

Microchip MPLAB XC8 Assembler V2.50 build 20240725155939 
                                                                                               Sat Mar 08 20:50:27 2025

Microchip MPLAB XC8 C Compiler v2.50 (Free license) build 20240725155939 Og1 
     1                           	processor	18F25K50
     2                           	fnconf	rparam,??,?,0
     3                           	pagewidth 120
     4                           	opt	flic
     5                           	psect	smallconst,global,reloc=2,class=SMALLCONST,space=0,delta=1,noexec
     6                           	psect	cinit,global,reloc=2,class=CODE,space=0,delta=1
     7                           	psect	bssCOMRAM,global,class=COMRAM,space=1,delta=1,lowdata,noexec
     8                           	psect	cstackBANK0,global,class=BANK0,space=1,delta=1,lowdata,noexec
     9                           	psect	cstackCOMRAM,global,class=COMRAM,space=1,delta=1,lowdata,noexec
    10                           	psect	text0,global,reloc=2,class=CODE,space=0,delta=1
    11                           	psect	text1,global,reloc=2,class=CODE,space=0,delta=1
    12                           	psect	text2,global,reloc=2,class=CODE,space=0,delta=1
    13                           	psect	text3,global,reloc=2,class=CODE,space=0,delta=1
    14                           	psect	text4,global,reloc=2,class=CODE,space=0,delta=1
    15                           	psect	text5,global,reloc=2,class=CODE,space=0,delta=1
    16                           	psect	text6,global,reloc=2,class=CODE,space=0,delta=1
    17                           	psect	text7,global,reloc=2,class=CODE,space=0,delta=1
    18                           	psect	text8,global,reloc=2,class=CODE,space=0,delta=1
    19                           	psect	text9,global,reloc=2,class=CODE,space=0,delta=1
    20                           	psect	text10,global,reloc=2,class=CODE,space=0,delta=1
    21                           	psect	text11,global,reloc=2,class=CODE,space=0,delta=1
    22                           	psect	text12,global,reloc=2,class=CODE,space=0,delta=1
    23                           	psect	text13,global,reloc=2,class=CODE,space=0,delta=1
    24                           	psect	text14,global,reloc=2,class=CODE,space=0,delta=1
    25                           	psect	text15,global,reloc=2,class=CODE,space=0,delta=1
    26                           	psect	text16,global,reloc=2,class=CODE,space=0,delta=1,inline
    27                           	psect	text17,global,reloc=2,class=CODE,space=0,delta=1,inline
    28                           	psect	text18,global,reloc=2,class=CODE,space=0,delta=1
    29                           	psect	text19,global,reloc=2,class=CODE,space=0,delta=1
    30                           	psect	text20,global,reloc=2,class=CODE,space=0,delta=1,inline
    31                           	psect	text21,global,reloc=2,class=CODE,space=0,delta=1
    32                           	psect	text22,global,reloc=2,class=CODE,space=0,delta=1,inline
    33                           	psect	text23,global,reloc=2,class=CODE,space=0,delta=1,inline
    34                           	psect	text24,global,reloc=2,class=CODE,space=0,delta=1,inline
    35                           	psect	text25,global,reloc=2,class=CODE,space=0,delta=1
    36                           	psect	text26,global,reloc=2,class=CODE,space=0,delta=1
    37                           	psect	text27,global,reloc=2,class=CODE,space=0,delta=1
    38                           	psect	text28,global,reloc=2,class=CODE,space=0,delta=1
    39                           	psect	text29,global,reloc=2,class=CODE,space=0,delta=1
    40                           	psect	text30,global,reloc=2,class=CODE,space=0,delta=1
    41                           	psect	intcode,global,reloc=2,class=CODE,space=0,delta=1
    42                           	psect	text32,global,reloc=2,class=CODE,space=0,delta=1
    43                           	psect	text33,global,reloc=2,class=CODE,space=0,delta=1,inline
    44                           	psect	text34,global,reloc=2,class=CODE,space=0,delta=1,inline
    45                           	psect	text35,global,reloc=2,class=CODE,space=0,delta=1
    46                           	psect	text36,global,reloc=2,class=CODE,space=0,delta=1
    47                           	psect	text37,global,reloc=2,class=CODE,space=0,delta=1
    48                           	psect	text38,global,reloc=2,class=CODE,space=0,delta=1
    49                           	psect	text39,global,reloc=2,class=CODE,space=0,delta=1
    50                           	psect	text40,global,reloc=2,class=CODE,space=0,delta=1
    51                           	psect	text41,global,reloc=2,class=CODE,space=0,delta=1
    52                           	psect	text42,global,reloc=2,class=CODE,space=0,delta=1
    53                           	psect	text43,global,reloc=2,class=CODE,space=0,delta=1
    54                           	psect	text44,global,reloc=2,class=CODE,space=0,delta=1
    55                           	psect	text45,global,reloc=2,class=CODE,space=0,delta=1
    56                           	psect	text46,global,reloc=2,class=CODE,space=0,delta=1
    57                           	psect	text47,global,reloc=2,class=CODE,space=0,delta=1
    58                           	psect	text48,global,reloc=2,class=CODE,space=0,delta=1
    59                           	psect	text49,global,reloc=2,class=CODE,space=0,delta=1
    60                           	psect	text50,global,reloc=2,class=CODE,space=0,delta=1
    61                           	psect	text51,global,reloc=2,class=CODE,space=0,delta=1,inline
    62                           	psect	text52,global,reloc=2,class=CODE,space=0,delta=1,inline
    63                           	psect	text53,global,reloc=2,class=CODE,space=0,delta=1,inline
    64                           	psect	text54,global,reloc=2,class=CODE,space=0,delta=1,inline
    65                           	psect	text55,global,reloc=2,class=CODE,space=0,delta=1,inline
    66                           	psect	text56,global,reloc=2,class=CODE,space=0,delta=1,inline
    67                           	psect	text57,global,reloc=2,class=CODE,space=0,delta=1,inline
    68                           	psect	text58,global,reloc=2,class=CODE,space=0,delta=1
    69                           	psect	text59,global,reloc=2,class=CODE,space=0,delta=1
    70                           	psect	text60,global,reloc=2,class=CODE,space=0,delta=1
    71                           	psect	text61,global,reloc=2,class=CODE,space=0,delta=1
    72                           	psect	text62,global,reloc=2,class=CODE,space=0,delta=1
    73                           	psect	text63,global,reloc=2,class=CODE,space=0,delta=1
    74                           	psect	text64,global,reloc=2,class=CODE,space=0,delta=1
    75                           	psect	text65,global,reloc=2,class=CODE,space=0,delta=1
    76                           	psect	text66,global,reloc=2,class=CODE,space=0,delta=1
    77                           	psect	text67,global,reloc=2,class=CODE,space=0,delta=1
    78                           	psect	text68,global,reloc=2,class=CODE,space=0,delta=1
    79                           	psect	text69,global,reloc=2,class=CODE,space=0,delta=1
    80                           	psect	text70,global,reloc=2,class=CODE,space=0,delta=1
    81                           	psect	text71,global,reloc=2,class=CODE,space=0,delta=1
    82                           	psect	text72,global,reloc=2,class=CODE,space=0,delta=1
    83                           	psect	text73,global,reloc=2,class=CODE,space=0,delta=1,inline
    84                           	psect	text74,global,reloc=2,class=CODE,space=0,delta=1,inline
    85                           	psect	intsave_regs,global,class=BIGRAM,space=1,delta=1,noexec
    86                           	psect	rparam,global,class=COMRAM,space=1,delta=1,noexec
    87                           	psect	temp,global,ovrld,common,class=COMRAM,space=1,delta=1,lowdata
    88                           	psect	config,global,abs,ovrld,class=CONFIG,space=4,delta=1,noexec
    89   000000                     
    90                           ; Generated 12/10/2023 GMT
    91                           ; 
    92                           ; Copyright © 2023, Microchip Technology Inc. and its subsidiaries ("Microchip")
    93                           ; All rights reserved.
    94                           ; 
    95                           ; This software is developed by Microchip Technology Inc. and its subsidiaries ("Microch
      +                          ip").
    96                           ; 
    97                           ; Redistribution and use in source and binary forms, with or without modification, are
    98                           ; permitted provided that the following conditions are met:
    99                           ; 
   100                           ;     1. Redistributions of source code must retain the above copyright notice, this lis
      +                          t of
   101                           ;        conditions and the following disclaimer.
   102                           ; 
   103                           ;     2. Redistributions in binary form must reproduce the above copyright notice, this 
      +                          list
   104                           ;        of conditions and the following disclaimer in the documentation and/or other
   105                           ;        materials provided with the distribution. Publication is not required when
   106                           ;        this file is used in an embedded application.
   107                           ; 
   108                           ;     3. Microchip's name may not be used to endorse or promote products derived from th
      +                          is
   109                           ;        software without specific prior written permission.
   110                           ; 
   111                           ; THIS SOFTWARE IS PROVIDED BY MICROCHIP "AS IS" AND ANY EXPRESS OR IMPLIED WARRANTIES,
   112                           ; INCLUDING, BUT NOT LIMITED TO, THE IMPLIED WARRANTIES OF MERCHANTABILITY AND FITNESS F
      +                          OR
   113                           ; PURPOSE ARE DISCLAIMED.  IN NO EVENT SHALL MICROCHIP BE LIABLE FOR ANY DIRECT, INDIREC
      +                          T,
   114                           ; INCIDENTAL, SPECIAL, EXEMPLARY, OR CONSEQUENTIAL DAMAGES (INCLUDING BUT NOT LIMITED TO
   115                           ; PROCUREMENT OF SUBSTITUTE GOODS OR SERVICES; LOSS OF USE, DATA OR PROFITS; OR BUSINESS
   116                           ; INTERRUPTION) HOWSOEVER CAUSED AND ON ANY THEORY OF LIABILITY, WHETHER IN CONTRACT, ST
      +                          RICT
   117                           ; LIABILITY, OR TORT (INCLUDING NEGLIGENCE OR OTHERWISE) ARISING IN ANY WAY OUT OF THE U
      +                          SE OF
   118                           ; THIS SOFTWARE, EVEN IF ADVISED OF THE POSSIBILITY OF SUCH DAMAGE.
   119                           ; 
   120                           ; 
   121                           ; Code-generator required, PIC18F25K50 Definitions
   122                           ; 
   123                           ; SFR Addresses
   124   000FE0                     bsr             equ	4064
   125   000FE9                     fsr0            equ	4073
   126   000FEA                     fsr0h           equ	4074
   127   000FE9                     fsr0l           equ	4073
   128   000FE1                     fsr1            equ	4065
   129   000FE2                     fsr1h           equ	4066
   130   000FE1                     fsr1l           equ	4065
   131   000FD9                     fsr2            equ	4057
   132   000FDA                     fsr2h           equ	4058
   133   000FD9                     fsr2l           equ	4057
   134   000FEF                     indf0           equ	4079
   135   000FE7                     indf1           equ	4071
   136   000FDF                     indf2           equ	4063
   137   000FF2                     intcon          equ	4082
   138   000000                     nvmcon          equ	0
   139   000FF9                     pcl             equ	4089
   140   000FFA                     pclath          equ	4090
   141   000FFB                     pclatu          equ	4091
   142   000FEB                     plusw0          equ	4075
   143   000FE3                     plusw1          equ	4067
   144   000FDB                     plusw2          equ	4059
   145   000FED                     postdec0        equ	4077
   146   000FE5                     postdec1        equ	4069
   147   000FDD                     postdec2        equ	4061
   148   000FEE                     postinc0        equ	4078
   149   000FE6                     postinc1        equ	4070
   150   000FDE                     postinc2        equ	4062
   151   000FEC                     preinc0         equ	4076
   152   000FE4                     preinc1         equ	4068
   153   000FDC                     preinc2         equ	4060
   154   000FF3                     prod            equ	4083
   155   000FF4                     prodh           equ	4084
   156   000FF3                     prodl           equ	4083
   157   000FD8                     status          equ	4056
   158   000FF5                     tablat          equ	4085
   159   000FF6                     tblptr          equ	4086
   160   000FF7                     tblptrh         equ	4087
   161   000FF6                     tblptrl         equ	4086
   162   000FF8                     tblptru         equ	4088
   163   000FFD                     tosl            equ	4093
   164   000FE8                     wreg            equ	4072
   165   000F57                     SRCON1          equ	3927	;# 
   166   000F58                     SRCON0          equ	3928	;# 
   167   000F59                     CCPTMRS         equ	3929	;# 
   168   000F5A                     VREGCON         equ	3930	;# 
   169   000F5B                     ANSELA          equ	3931	;# 
   170   000F5C                     ANSELB          equ	3932	;# 
   171   000F5D                     ANSELC          equ	3933	;# 
   172   000F60                     UCON            equ	3936	;# 
   173   000F61                     USTAT           equ	3937	;# 
   174   000F62                     UCFG            equ	3938	;# 
   175   000F63                     UADDR           equ	3939	;# 
   176   000F64                     UIE             equ	3940	;# 
   177   000F65                     UIR             equ	3941	;# 
   178   000F66                     UEIE            equ	3942	;# 
   179   000F67                     UEIR            equ	3943	;# 
   180   000F68                     UFRM            equ	3944	;# 
   181   000F68                     UFRML           equ	3944	;# 
   182   000F69                     UFRMH           equ	3945	;# 
   183   000F6A                     UEP0            equ	3946	;# 
   184   000F6B                     UEP1            equ	3947	;# 
   185   000F6C                     UEP2            equ	3948	;# 
   186   000F6D                     UEP3            equ	3949	;# 
   187   000F6E                     UEP4            equ	3950	;# 
   188   000F6F                     UEP5            equ	3951	;# 
   189   000F70                     UEP6            equ	3952	;# 
   190   000F71                     UEP7            equ	3953	;# 
   191   000F72                     UEP8            equ	3954	;# 
   192   000F73                     UEP9            equ	3955	;# 
   193   000F74                     UEP10           equ	3956	;# 
   194   000F75                     UEP11           equ	3957	;# 
   195   000F76                     UEP12           equ	3958	;# 
   196   000F77                     UEP13           equ	3959	;# 
   197   000F78                     UEP14           equ	3960	;# 
   198   000F79                     UEP15           equ	3961	;# 
   199   000F7A                     SLRCON          equ	3962	;# 
   200   000F7B                     VREFCON2        equ	3963	;# 
   201   000F7C                     VREFCON1        equ	3964	;# 
   202   000F7D                     VREFCON0        equ	3965	;# 
   203   000F7E                     PMD0            equ	3966	;# 
   204   000F7F                     PMD1            equ	3967	;# 
   205   000F80                     PORTA           equ	3968	;# 
   206   000F81                     PORTB           equ	3969	;# 
   207   000F82                     PORTC           equ	3970	;# 
   208   000F84                     PORTE           equ	3972	;# 
   209   000F85                     WPUB            equ	3973	;# 
   210   000F86                     IOCB            equ	3974	;# 
   211   000F87                     IOCC            equ	3975	;# 
   212   000F88                     CTMUICON        equ	3976	;# 
   213   000F89                     LATA            equ	3977	;# 
   214   000F8A                     LATB            equ	3978	;# 
   215   000F8B                     LATC            equ	3979	;# 
   216   000F8E                     CTMUCONL        equ	3982	;# 
   217   000F8E                     CTMUCON1        equ	3982	;# 
   218   000F8F                     CTMUCONH        equ	3983	;# 
   219   000F8F                     CTMUCON0        equ	3983	;# 
   220   000F90                     CCPR2           equ	3984	;# 
   221   000F90                     CCPR2L          equ	3984	;# 
   222   000F91                     CCPR2H          equ	3985	;# 
   223   000F92                     TRISA           equ	3986	;# 
   224   000F92                     DDRA            equ	3986	;# 
   225   000F93                     TRISB           equ	3987	;# 
   226   000F93                     DDRB            equ	3987	;# 
   227   000F94                     TRISC           equ	3988	;# 
   228   000F94                     DDRC            equ	3988	;# 
   229   000F97                     CCP2CON         equ	3991	;# 
   230   000F97                     ECCP2CON        equ	3991	;# 
   231   000F98                     CM1CON0         equ	3992	;# 
   232   000F99                     CM2CON0         equ	3993	;# 
   233   000F9A                     CM2CON1         equ	3994	;# 
   234   000F9B                     OSCTUNE         equ	3995	;# 
   235   000F9C                     HLVDCON         equ	3996	;# 
   236   000F9D                     PIE1            equ	3997	;# 
   237   000F9E                     PIR1            equ	3998	;# 
   238   000F9F                     IPR1            equ	3999	;# 
   239   000FA0                     PIE2            equ	4000	;# 
   240   000FA1                     PIR2            equ	4001	;# 
   241   000FA2                     IPR2            equ	4002	;# 
   242   000FA3                     PIE3            equ	4003	;# 
   243   000FA4                     PIR3            equ	4004	;# 
   244   000FA5                     IPR3            equ	4005	;# 
   245   000FA6                     EECON1          equ	4006	;# 
   246   000FA7                     EECON2          equ	4007	;# 
   247   000FA8                     EEDATA          equ	4008	;# 
   248   000FA9                     EEADR           equ	4009	;# 
   249   000FAB                     RCSTA1          equ	4011	;# 
   250   000FAB                     RCSTA           equ	4011	;# 
   251   000FAC                     TXSTA1          equ	4012	;# 
   252   000FAC                     TXSTA           equ	4012	;# 
   253   000FAD                     TXREG1          equ	4013	;# 
   254   000FAD                     TXREG           equ	4013	;# 
   255   000FAE                     RCREG1          equ	4014	;# 
   256   000FAE                     RCREG           equ	4014	;# 
   257   000FAF                     SPBRG1          equ	4015	;# 
   258   000FAF                     SPBRG           equ	4015	;# 
   259   000FB0                     SPBRGH1         equ	4016	;# 
   260   000FB0                     SPBRGH          equ	4016	;# 
   261   000FB1                     T3CON           equ	4017	;# 
   262   000FB2                     TMR3            equ	4018	;# 
   263   000FB2                     TMR3L           equ	4018	;# 
   264   000FB3                     TMR3H           equ	4019	;# 
   265   000FB4                     T3GCON          equ	4020	;# 
   266   000FB5                     ACTCON          equ	4021	;# 
   267   000FB5                     STCON           equ	4021	;# 
   268   000FB6                     ECCP1AS         equ	4022	;# 
   269   000FB7                     PWM1CON         equ	4023	;# 
   270   000FB7                     ECCP1DEL        equ	4023	;# 
   271   000FB8                     BAUDCON1        equ	4024	;# 
   272   000FB8                     BAUDCON         equ	4024	;# 
   273   000FB8                     BAUDCTL         equ	4024	;# 
   274   000FB9                     PSTR1CON        equ	4025	;# 
   275   000FBA                     T2CON           equ	4026	;# 
   276   000FBB                     PR2             equ	4027	;# 
   277   000FBC                     TMR2            equ	4028	;# 
   278   000FBD                     CCP1CON         equ	4029	;# 
   279   000FBD                     ECCP1CON        equ	4029	;# 
   280   000FBE                     CCPR1           equ	4030	;# 
   281   000FBE                     CCPR1L          equ	4030	;# 
   282   000FBF                     CCPR1H          equ	4031	;# 
   283   000FC0                     ADCON2          equ	4032	;# 
   284   000FC1                     ADCON1          equ	4033	;# 
   285   000FC2                     ADCON0          equ	4034	;# 
   286   000FC3                     ADRESL          equ	4035	;# 
   287   000FC4                     ADRESH          equ	4036	;# 
   288   000FC5                     SSP1CON2        equ	4037	;# 
   289   000FC5                     SSPCON2         equ	4037	;# 
   290   000FC6                     SSP1CON1        equ	4038	;# 
   291   000FC6                     SSPCON          equ	4038	;# 
   292   000FC6                     SSPCON1         equ	4038	;# 
   293   000FC7                     SSP1STAT        equ	4039	;# 
   294   000FC7                     SSPSTAT         equ	4039	;# 
   295   000FC8                     SSP1ADD         equ	4040	;# 
   296   000FC8                     SSPADD          equ	4040	;# 
   297   000FC9                     SSP1BUF         equ	4041	;# 
   298   000FC9                     SSPBUF          equ	4041	;# 
   299   000FCA                     SSP1MSK         equ	4042	;# 
   300   000FCA                     SSPMSK          equ	4042	;# 
   301   000FCB                     SSP1CON3        equ	4043	;# 
   302   000FCB                     SSPCON3         equ	4043	;# 
   303   000FCC                     T1GCON          equ	4044	;# 
   304   000FCD                     T1CON           equ	4045	;# 
   305   000FCE                     TMR1            equ	4046	;# 
   306   000FCE                     TMR1L           equ	4046	;# 
   307   000FCF                     TMR1H           equ	4047	;# 
   308   000FD0                     RCON            equ	4048	;# 
   309   000FD1                     WDTCON          equ	4049	;# 
   310   000FD2                     OSCCON2         equ	4050	;# 
   311   000FD3                     OSCCON          equ	4051	;# 
   312   000FD5                     T0CON           equ	4053	;# 
   313   000FD6                     TMR0            equ	4054	;# 
   314   000FD6                     TMR0L           equ	4054	;# 
   315   000FD7                     TMR0H           equ	4055	;# 
   316   000FD8                     STATUS          equ	4056	;# 
   317   000FD9                     FSR2            equ	4057	;# 
   318   000FD9                     FSR2L           equ	4057	;# 
   319   000FDA                     FSR2H           equ	4058	;# 
   320   000FDB                     PLUSW2          equ	4059	;# 
   321   000FDC                     PREINC2         equ	4060	;# 
   322   000FDD                     POSTDEC2        equ	4061	;# 
   323   000FDE                     POSTINC2        equ	4062	;# 
   324   000FDF                     INDF2           equ	4063	;# 
   325   000FE0                     BSR             equ	4064	;# 
   326   000FE1                     FSR1            equ	4065	;# 
   327   000FE1                     FSR1L           equ	4065	;# 
   328   000FE2                     FSR1H           equ	4066	;# 
   329   000FE3                     PLUSW1          equ	4067	;# 
   330   000FE4                     PREINC1         equ	4068	;# 
   331   000FE5                     POSTDEC1        equ	4069	;# 
   332   000FE6                     POSTINC1        equ	4070	;# 
   333   000FE7                     INDF1           equ	4071	;# 
   334   000FE8                     WREG            equ	4072	;# 
   335   000FE9                     FSR0            equ	4073	;# 
   336   000FE9                     FSR0L           equ	4073	;# 
   337   000FEA                     FSR0H           equ	4074	;# 
   338   000FEB                     PLUSW0          equ	4075	;# 
   339   000FEC                     PREINC0         equ	4076	;# 
   340   000FED                     POSTDEC0        equ	4077	;# 
   341   000FEE                     POSTINC0        equ	4078	;# 
   342   000FEF                     INDF0           equ	4079	;# 
   343   000FF0                     INTCON3         equ	4080	;# 
   344   000FF1                     INTCON2         equ	4081	;# 
   345   000FF2                     INTCON          equ	4082	;# 
   346   000FF3                     PROD            equ	4083	;# 
   347   000FF3                     PRODL           equ	4083	;# 
   348   000FF4                     PRODH           equ	4084	;# 
   349   000FF5                     TABLAT          equ	4085	;# 
   350   000FF6                     TBLPTR          equ	4086	;# 
   351   000FF6                     TBLPTRL         equ	4086	;# 
   352   000FF7                     TBLPTRH         equ	4087	;# 
   353   000FF8                     TBLPTRU         equ	4088	;# 
   354   000FF9                     PCLAT           equ	4089	;# 
   355   000FF9                     PC              equ	4089	;# 
   356   000FF9                     PCL             equ	4089	;# 
   357   000FFA                     PCLATH          equ	4090	;# 
   358   000FFB                     PCLATU          equ	4091	;# 
   359   000FFC                     STKPTR          equ	4092	;# 
   360   000FFD                     TOS             equ	4093	;# 
   361   000FFD                     TOSL            equ	4093	;# 
   362   000FFE                     TOSH            equ	4094	;# 
   363   000FFF                     TOSU            equ	4095	;# 
   364   000F57                     SRCON1          equ	3927	;# 
   365   000F58                     SRCON0          equ	3928	;# 
   366   000F59                     CCPTMRS         equ	3929	;# 
   367   000F5A                     VREGCON         equ	3930	;# 
   368   000F5B                     ANSELA          equ	3931	;# 
   369   000F5C                     ANSELB          equ	3932	;# 
   370   000F5D                     ANSELC          equ	3933	;# 
   371   000F60                     UCON            equ	3936	;# 
   372   000F61                     USTAT           equ	3937	;# 
   373   000F62                     UCFG            equ	3938	;# 
   374   000F63                     UADDR           equ	3939	;# 
   375   000F64                     UIE             equ	3940	;# 
   376   000F65                     UIR             equ	3941	;# 
   377   000F66                     UEIE            equ	3942	;# 
   378   000F67                     UEIR            equ	3943	;# 
   379   000F68                     UFRM            equ	3944	;# 
   380   000F68                     UFRML           equ	3944	;# 
   381   000F69                     UFRMH           equ	3945	;# 
   382   000F6A                     UEP0            equ	3946	;# 
   383   000F6B                     UEP1            equ	3947	;# 
   384   000F6C                     UEP2            equ	3948	;# 
   385   000F6D                     UEP3            equ	3949	;# 
   386   000F6E                     UEP4            equ	3950	;# 
   387   000F6F                     UEP5            equ	3951	;# 
   388   000F70                     UEP6            equ	3952	;# 
   389   000F71                     UEP7            equ	3953	;# 
   390   000F72                     UEP8            equ	3954	;# 
   391   000F73                     UEP9            equ	3955	;# 
   392   000F74                     UEP10           equ	3956	;# 
   393   000F75                     UEP11           equ	3957	;# 
   394   000F76                     UEP12           equ	3958	;# 
   395   000F77                     UEP13           equ	3959	;# 
   396   000F78                     UEP14           equ	3960	;# 
   397   000F79                     UEP15           equ	3961	;# 
   398   000F7A                     SLRCON          equ	3962	;# 
   399   000F7B                     VREFCON2        equ	3963	;# 
   400   000F7C                     VREFCON1        equ	3964	;# 
   401   000F7D                     VREFCON0        equ	3965	;# 
   402   000F7E                     PMD0            equ	3966	;# 
   403   000F7F                     PMD1            equ	3967	;# 
   404   000F80                     PORTA           equ	3968	;# 
   405   000F81                     PORTB           equ	3969	;# 
   406   000F82                     PORTC           equ	3970	;# 
   407   000F84                     PORTE           equ	3972	;# 
   408   000F85                     WPUB            equ	3973	;# 
   409   000F86                     IOCB            equ	3974	;# 
   410   000F87                     IOCC            equ	3975	;# 
   411   000F88                     CTMUICON        equ	3976	;# 
   412   000F89                     LATA            equ	3977	;# 
   413   000F8A                     LATB            equ	3978	;# 
   414   000F8B                     LATC            equ	3979	;# 
   415   000F8E                     CTMUCONL        equ	3982	;# 
   416   000F8E                     CTMUCON1        equ	3982	;# 
   417   000F8F                     CTMUCONH        equ	3983	;# 
   418   000F8F                     CTMUCON0        equ	3983	;# 
   419   000F90                     CCPR2           equ	3984	;# 
   420   000F90                     CCPR2L          equ	3984	;# 
   421   000F91                     CCPR2H          equ	3985	;# 
   422   000F92                     TRISA           equ	3986	;# 
   423   000F92                     DDRA            equ	3986	;# 
   424   000F93                     TRISB           equ	3987	;# 
   425   000F93                     DDRB            equ	3987	;# 
   426   000F94                     TRISC           equ	3988	;# 
   427   000F94                     DDRC            equ	3988	;# 
   428   000F97                     CCP2CON         equ	3991	;# 
   429   000F97                     ECCP2CON        equ	3991	;# 
   430   000F98                     CM1CON0         equ	3992	;# 
   431   000F99                     CM2CON0         equ	3993	;# 
   432   000F9A                     CM2CON1         equ	3994	;# 
   433   000F9B                     OSCTUNE         equ	3995	;# 
   434   000F9C                     HLVDCON         equ	3996	;# 
   435   000F9D                     PIE1            equ	3997	;# 
   436   000F9E                     PIR1            equ	3998	;# 
   437   000F9F                     IPR1            equ	3999	;# 
   438   000FA0                     PIE2            equ	4000	;# 
   439   000FA1                     PIR2            equ	4001	;# 
   440   000FA2                     IPR2            equ	4002	;# 
   441   000FA3                     PIE3            equ	4003	;# 
   442   000FA4                     PIR3            equ	4004	;# 
   443   000FA5                     IPR3            equ	4005	;# 
   444   000FA6                     EECON1          equ	4006	;# 
   445   000FA7                     EECON2          equ	4007	;# 
   446   000FA8                     EEDATA          equ	4008	;# 
   447   000FA9                     EEADR           equ	4009	;# 
   448   000FAB                     RCSTA1          equ	4011	;# 
   449   000FAB                     RCSTA           equ	4011	;# 
   450   000FAC                     TXSTA1          equ	4012	;# 
   451   000FAC                     TXSTA           equ	4012	;# 
   452   000FAD                     TXREG1          equ	4013	;# 
   453   000FAD                     TXREG           equ	4013	;# 
   454   000FAE                     RCREG1          equ	4014	;# 
   455   000FAE                     RCREG           equ	4014	;# 
   456   000FAF                     SPBRG1          equ	4015	;# 
   457   000FAF                     SPBRG           equ	4015	;# 
   458   000FB0                     SPBRGH1         equ	4016	;# 
   459   000FB0                     SPBRGH          equ	4016	;# 
   460   000FB1                     T3CON           equ	4017	;# 
   461   000FB2                     TMR3            equ	4018	;# 
   462   000FB2                     TMR3L           equ	4018	;# 
   463   000FB3                     TMR3H           equ	4019	;# 
   464   000FB4                     T3GCON          equ	4020	;# 
   465   000FB5                     ACTCON          equ	4021	;# 
   466   000FB5                     STCON           equ	4021	;# 
   467   000FB6                     ECCP1AS         equ	4022	;# 
   468   000FB7                     PWM1CON         equ	4023	;# 
   469   000FB7                     ECCP1DEL        equ	4023	;# 
   470   000FB8                     BAUDCON1        equ	4024	;# 
   471   000FB8                     BAUDCON         equ	4024	;# 
   472   000FB8                     BAUDCTL         equ	4024	;# 
   473   000FB9                     PSTR1CON        equ	4025	;# 
   474   000FBA                     T2CON           equ	4026	;# 
   475   000FBB                     PR2             equ	4027	;# 
   476   000FBC                     TMR2            equ	4028	;# 
   477   000FBD                     CCP1CON         equ	4029	;# 
   478   000FBD                     ECCP1CON        equ	4029	;# 
   479   000FBE                     CCPR1           equ	4030	;# 
   480   000FBE                     CCPR1L          equ	4030	;# 
   481   000FBF                     CCPR1H          equ	4031	;# 
   482   000FC0                     ADCON2          equ	4032	;# 
   483   000FC1                     ADCON1          equ	4033	;# 
   484   000FC2                     ADCON0          equ	4034	;# 
   485   000FC3                     ADRESL          equ	4035	;# 
   486   000FC4                     ADRESH          equ	4036	;# 
   487   000FC5                     SSP1CON2        equ	4037	;# 
   488   000FC5                     SSPCON2         equ	4037	;# 
   489   000FC6                     SSP1CON1        equ	4038	;# 
   490   000FC6                     SSPCON          equ	4038	;# 
   491   000FC6                     SSPCON1         equ	4038	;# 
   492   000FC7                     SSP1STAT        equ	4039	;# 
   493   000FC7                     SSPSTAT         equ	4039	;# 
   494   000FC8                     SSP1ADD         equ	4040	;# 
   495   000FC8                     SSPADD          equ	4040	;# 
   496   000FC9                     SSP1BUF         equ	4041	;# 
   497   000FC9                     SSPBUF          equ	4041	;# 
   498   000FCA                     SSP1MSK         equ	4042	;# 
   499   000FCA                     SSPMSK          equ	4042	;# 
   500   000FCB                     SSP1CON3        equ	4043	;# 
   501   000FCB                     SSPCON3         equ	4043	;# 
   502   000FCC                     T1GCON          equ	4044	;# 
   503   000FCD                     T1CON           equ	4045	;# 
   504   000FCE                     TMR1            equ	4046	;# 
   505   000FCE                     TMR1L           equ	4046	;# 
   506   000FCF                     TMR1H           equ	4047	;# 
   507   000FD0                     RCON            equ	4048	;# 
   508   000FD1                     WDTCON          equ	4049	;# 
   509   000FD2                     OSCCON2         equ	4050	;# 
   510   000FD3                     OSCCON          equ	4051	;# 
   511   000FD5                     T0CON           equ	4053	;# 
   512   000FD6                     TMR0            equ	4054	;# 
   513   000FD6                     TMR0L           equ	4054	;# 
   514   000FD7                     TMR0H           equ	4055	;# 
   515   000FD8                     STATUS          equ	4056	;# 
   516   000FD9                     FSR2            equ	4057	;# 
   517   000FD9                     FSR2L           equ	4057	;# 
   518   000FDA                     FSR2H           equ	4058	;# 
   519   000FDB                     PLUSW2          equ	4059	;# 
   520   000FDC                     PREINC2         equ	4060	;# 
   521   000FDD                     POSTDEC2        equ	4061	;# 
   522   000FDE                     POSTINC2        equ	4062	;# 
   523   000FDF                     INDF2           equ	4063	;# 
   524   000FE0                     BSR             equ	4064	;# 
   525   000FE1                     FSR1            equ	4065	;# 
   526   000FE1                     FSR1L           equ	4065	;# 
   527   000FE2                     FSR1H           equ	4066	;# 
   528   000FE3                     PLUSW1          equ	4067	;# 
   529   000FE4                     PREINC1         equ	4068	;# 
   530   000FE5                     POSTDEC1        equ	4069	;# 
   531   000FE6                     POSTINC1        equ	4070	;# 
   532   000FE7                     INDF1           equ	4071	;# 
   533   000FE8                     WREG            equ	4072	;# 
   534   000FE9                     FSR0            equ	4073	;# 
   535   000FE9                     FSR0L           equ	4073	;# 
   536   000FEA                     FSR0H           equ	4074	;# 
   537   000FEB                     PLUSW0          equ	4075	;# 
   538   000FEC                     PREINC0         equ	4076	;# 
   539   000FED                     POSTDEC0        equ	4077	;# 
   540   000FEE                     POSTINC0        equ	4078	;# 
   541   000FEF                     INDF0           equ	4079	;# 
   542   000FF0                     INTCON3         equ	4080	;# 
   543   000FF1                     INTCON2         equ	4081	;# 
   544   000FF2                     INTCON          equ	4082	;# 
   545   000FF3                     PROD            equ	4083	;# 
   546   000FF3                     PRODL           equ	4083	;# 
   547   000FF4                     PRODH           equ	4084	;# 
   548   000FF5                     TABLAT          equ	4085	;# 
   549   000FF6                     TBLPTR          equ	4086	;# 
   550   000FF6                     TBLPTRL         equ	4086	;# 
   551   000FF7                     TBLPTRH         equ	4087	;# 
   552   000FF8                     TBLPTRU         equ	4088	;# 
   553   000FF9                     PCLAT           equ	4089	;# 
   554   000FF9                     PC              equ	4089	;# 
   555   000FF9                     PCL             equ	4089	;# 
   556   000FFA                     PCLATH          equ	4090	;# 
   557   000FFB                     PCLATU          equ	4091	;# 
   558   000FFC                     STKPTR          equ	4092	;# 
   559   000FFD                     TOS             equ	4093	;# 
   560   000FFD                     TOSL            equ	4093	;# 
   561   000FFE                     TOSH            equ	4094	;# 
   562   000FFF                     TOSU            equ	4095	;# 
   563   000F57                     SRCON1          equ	3927	;# 
   564   000F58                     SRCON0          equ	3928	;# 
   565   000F59                     CCPTMRS         equ	3929	;# 
   566   000F5A                     VREGCON         equ	3930	;# 
   567   000F5B                     ANSELA          equ	3931	;# 
   568   000F5C                     ANSELB          equ	3932	;# 
   569   000F5D                     ANSELC          equ	3933	;# 
   570   000F60                     UCON            equ	3936	;# 
   571   000F61                     USTAT           equ	3937	;# 
   572   000F62                     UCFG            equ	3938	;# 
   573   000F63                     UADDR           equ	3939	;# 
   574   000F64                     UIE             equ	3940	;# 
   575   000F65                     UIR             equ	3941	;# 
   576   000F66                     UEIE            equ	3942	;# 
   577   000F67                     UEIR            equ	3943	;# 
   578   000F68                     UFRM            equ	3944	;# 
   579   000F68                     UFRML           equ	3944	;# 
   580   000F69                     UFRMH           equ	3945	;# 
   581   000F6A                     UEP0            equ	3946	;# 
   582   000F6B                     UEP1            equ	3947	;# 
   583   000F6C                     UEP2            equ	3948	;# 
   584   000F6D                     UEP3            equ	3949	;# 
   585   000F6E                     UEP4            equ	3950	;# 
   586   000F6F                     UEP5            equ	3951	;# 
   587   000F70                     UEP6            equ	3952	;# 
   588   000F71                     UEP7            equ	3953	;# 
   589   000F72                     UEP8            equ	3954	;# 
   590   000F73                     UEP9            equ	3955	;# 
   591   000F74                     UEP10           equ	3956	;# 
   592   000F75                     UEP11           equ	3957	;# 
   593   000F76                     UEP12           equ	3958	;# 
   594   000F77                     UEP13           equ	3959	;# 
   595   000F78                     UEP14           equ	3960	;# 
   596   000F79                     UEP15           equ	3961	;# 
   597   000F7A                     SLRCON          equ	3962	;# 
   598   000F7B                     VREFCON2        equ	3963	;# 
   599   000F7C                     VREFCON1        equ	3964	;# 
   600   000F7D                     VREFCON0        equ	3965	;# 
   601   000F7E                     PMD0            equ	3966	;# 
   602   000F7F                     PMD1            equ	3967	;# 
   603   000F80                     PORTA           equ	3968	;# 
   604   000F81                     PORTB           equ	3969	;# 
   605   000F82                     PORTC           equ	3970	;# 
   606   000F84                     PORTE           equ	3972	;# 
   607   000F85                     WPUB            equ	3973	;# 
   608   000F86                     IOCB            equ	3974	;# 
   609   000F87                     IOCC            equ	3975	;# 
   610   000F88                     CTMUICON        equ	3976	;# 
   611   000F89                     LATA            equ	3977	;# 
   612   000F8A                     LATB            equ	3978	;# 
   613   000F8B                     LATC            equ	3979	;# 
   614   000F8E                     CTMUCONL        equ	3982	;# 
   615   000F8E                     CTMUCON1        equ	3982	;# 
   616   000F8F                     CTMUCONH        equ	3983	;# 
   617   000F8F                     CTMUCON0        equ	3983	;# 
   618   000F90                     CCPR2           equ	3984	;# 
   619   000F90                     CCPR2L          equ	3984	;# 
   620   000F91                     CCPR2H          equ	3985	;# 
   621   000F92                     TRISA           equ	3986	;# 
   622   000F92                     DDRA            equ	3986	;# 
   623   000F93                     TRISB           equ	3987	;# 
   624   000F93                     DDRB            equ	3987	;# 
   625   000F94                     TRISC           equ	3988	;# 
   626   000F94                     DDRC            equ	3988	;# 
   627   000F97                     CCP2CON         equ	3991	;# 
   628   000F97                     ECCP2CON        equ	3991	;# 
   629   000F98                     CM1CON0         equ	3992	;# 
   630   000F99                     CM2CON0         equ	3993	;# 
   631   000F9A                     CM2CON1         equ	3994	;# 
   632   000F9B                     OSCTUNE         equ	3995	;# 
   633   000F9C                     HLVDCON         equ	3996	;# 
   634   000F9D                     PIE1            equ	3997	;# 
   635   000F9E                     PIR1            equ	3998	;# 
   636   000F9F                     IPR1            equ	3999	;# 
   637   000FA0                     PIE2            equ	4000	;# 
   638   000FA1                     PIR2            equ	4001	;# 
   639   000FA2                     IPR2            equ	4002	;# 
   640   000FA3                     PIE3            equ	4003	;# 
   641   000FA4                     PIR3            equ	4004	;# 
   642   000FA5                     IPR3            equ	4005	;# 
   643   000FA6                     EECON1          equ	4006	;# 
   644   000FA7                     EECON2          equ	4007	;# 
   645   000FA8                     EEDATA          equ	4008	;# 
   646   000FA9                     EEADR           equ	4009	;# 
   647   000FAB                     RCSTA1          equ	4011	;# 
   648   000FAB                     RCSTA           equ	4011	;# 
   649   000FAC                     TXSTA1          equ	4012	;# 
   650   000FAC                     TXSTA           equ	4012	;# 
   651   000FAD                     TXREG1          equ	4013	;# 
   652   000FAD                     TXREG           equ	4013	;# 
   653   000FAE                     RCREG1          equ	4014	;# 
   654   000FAE                     RCREG           equ	4014	;# 
   655   000FAF                     SPBRG1          equ	4015	;# 
   656   000FAF                     SPBRG           equ	4015	;# 
   657   000FB0                     SPBRGH1         equ	4016	;# 
   658   000FB0                     SPBRGH          equ	4016	;# 
   659   000FB1                     T3CON           equ	4017	;# 
   660   000FB2                     TMR3            equ	4018	;# 
   661   000FB2                     TMR3L           equ	4018	;# 
   662   000FB3                     TMR3H           equ	4019	;# 
   663   000FB4                     T3GCON          equ	4020	;# 
   664   000FB5                     ACTCON          equ	4021	;# 
   665   000FB5                     STCON           equ	4021	;# 
   666   000FB6                     ECCP1AS         equ	4022	;# 
   667   000FB7                     PWM1CON         equ	4023	;# 
   668   000FB7                     ECCP1DEL        equ	4023	;# 
   669   000FB8                     BAUDCON1        equ	4024	;# 
   670   000FB8                     BAUDCON         equ	4024	;# 
   671   000FB8                     BAUDCTL         equ	4024	;# 
   672   000FB9                     PSTR1CON        equ	4025	;# 
   673   000FBA                     T2CON           equ	4026	;# 
   674   000FBB                     PR2             equ	4027	;# 
   675   000FBC                     TMR2            equ	4028	;# 
   676   000FBD                     CCP1CON         equ	4029	;# 
   677   000FBD                     ECCP1CON        equ	4029	;# 
   678   000FBE                     CCPR1           equ	4030	;# 
   679   000FBE                     CCPR1L          equ	4030	;# 
   680   000FBF                     CCPR1H          equ	4031	;# 
   681   000FC0                     ADCON2          equ	4032	;# 
   682   000FC1                     ADCON1          equ	4033	;# 
   683   000FC2                     ADCON0          equ	4034	;# 
   684   000FC3                     ADRESL          equ	4035	;# 
   685   000FC4                     ADRESH          equ	4036	;# 
   686   000FC5                     SSP1CON2        equ	4037	;# 
   687   000FC5                     SSPCON2         equ	4037	;# 
   688   000FC6                     SSP1CON1        equ	4038	;# 
   689   000FC6                     SSPCON          equ	4038	;# 
   690   000FC6                     SSPCON1         equ	4038	;# 
   691   000FC7                     SSP1STAT        equ	4039	;# 
   692   000FC7                     SSPSTAT         equ	4039	;# 
   693   000FC8                     SSP1ADD         equ	4040	;# 
   694   000FC8                     SSPADD          equ	4040	;# 
   695   000FC9                     SSP1BUF         equ	4041	;# 
   696   000FC9                     SSPBUF          equ	4041	;# 
   697   000FCA                     SSP1MSK         equ	4042	;# 
   698   000FCA                     SSPMSK          equ	4042	;# 
   699   000FCB                     SSP1CON3        equ	4043	;# 
   700   000FCB                     SSPCON3         equ	4043	;# 
   701   000FCC                     T1GCON          equ	4044	;# 
   702   000FCD                     T1CON           equ	4045	;# 
   703   000FCE                     TMR1            equ	4046	;# 
   704   000FCE                     TMR1L           equ	4046	;# 
   705   000FCF                     TMR1H           equ	4047	;# 
   706   000FD0                     RCON            equ	4048	;# 
   707   000FD1                     WDTCON          equ	4049	;# 
   708   000FD2                     OSCCON2         equ	4050	;# 
   709   000FD3                     OSCCON          equ	4051	;# 
   710   000FD5                     T0CON           equ	4053	;# 
   711   000FD6                     TMR0            equ	4054	;# 
   712   000FD6                     TMR0L           equ	4054	;# 
   713   000FD7                     TMR0H           equ	4055	;# 
   714   000FD8                     STATUS          equ	4056	;# 
   715   000FD9                     FSR2            equ	4057	;# 
   716   000FD9                     FSR2L           equ	4057	;# 
   717   000FDA                     FSR2H           equ	4058	;# 
   718   000FDB                     PLUSW2          equ	4059	;# 
   719   000FDC                     PREINC2         equ	4060	;# 
   720   000FDD                     POSTDEC2        equ	4061	;# 
   721   000FDE                     POSTINC2        equ	4062	;# 
   722   000FDF                     INDF2           equ	4063	;# 
   723   000FE0                     BSR             equ	4064	;# 
   724   000FE1                     FSR1            equ	4065	;# 
   725   000FE1                     FSR1L           equ	4065	;# 
   726   000FE2                     FSR1H           equ	4066	;# 
   727   000FE3                     PLUSW1          equ	4067	;# 
   728   000FE4                     PREINC1         equ	4068	;# 
   729   000FE5                     POSTDEC1        equ	4069	;# 
   730   000FE6                     POSTINC1        equ	4070	;# 
   731   000FE7                     INDF1           equ	4071	;# 
   732   000FE8                     WREG            equ	4072	;# 
   733   000FE9                     FSR0            equ	4073	;# 
   734   000FE9                     FSR0L           equ	4073	;# 
   735   000FEA                     FSR0H           equ	4074	;# 
   736   000FEB                     PLUSW0          equ	4075	;# 
   737   000FEC                     PREINC0         equ	4076	;# 
   738   000FED                     POSTDEC0        equ	4077	;# 
   739   000FEE                     POSTINC0        equ	4078	;# 
   740   000FEF                     INDF0           equ	4079	;# 
   741   000FF0                     INTCON3         equ	4080	;# 
   742   000FF1                     INTCON2         equ	4081	;# 
   743   000FF2                     INTCON          equ	4082	;# 
   744   000FF3                     PROD            equ	4083	;# 
   745   000FF3                     PRODL           equ	4083	;# 
   746   000FF4                     PRODH           equ	4084	;# 
   747   000FF5                     TABLAT          equ	4085	;# 
   748   000FF6                     TBLPTR          equ	4086	;# 
   749   000FF6                     TBLPTRL         equ	4086	;# 
   750   000FF7                     TBLPTRH         equ	4087	;# 
   751   000FF8                     TBLPTRU         equ	4088	;# 
   752   000FF9                     PCLAT           equ	4089	;# 
   753   000FF9                     PC              equ	4089	;# 
   754   000FF9                     PCL             equ	4089	;# 
   755   000FFA                     PCLATH          equ	4090	;# 
   756   000FFB                     PCLATU          equ	4091	;# 
   757   000FFC                     STKPTR          equ	4092	;# 
   758   000FFD                     TOS             equ	4093	;# 
   759   000FFD                     TOSL            equ	4093	;# 
   760   000FFE                     TOSH            equ	4094	;# 
   761   000FFF                     TOSU            equ	4095	;# 
   762   000F57                     SRCON1          equ	3927	;# 
   763   000F58                     SRCON0          equ	3928	;# 
   764   000F59                     CCPTMRS         equ	3929	;# 
   765   000F5A                     VREGCON         equ	3930	;# 
   766   000F5B                     ANSELA          equ	3931	;# 
   767   000F5C                     ANSELB          equ	3932	;# 
   768   000F5D                     ANSELC          equ	3933	;# 
   769   000F60                     UCON            equ	3936	;# 
   770   000F61                     USTAT           equ	3937	;# 
   771   000F62                     UCFG            equ	3938	;# 
   772   000F63                     UADDR           equ	3939	;# 
   773   000F64                     UIE             equ	3940	;# 
   774   000F65                     UIR             equ	3941	;# 
   775   000F66                     UEIE            equ	3942	;# 
   776   000F67                     UEIR            equ	3943	;# 
   777   000F68                     UFRM            equ	3944	;# 
   778   000F68                     UFRML           equ	3944	;# 
   779   000F69                     UFRMH           equ	3945	;# 
   780   000F6A                     UEP0            equ	3946	;# 
   781   000F6B                     UEP1            equ	3947	;# 
   782   000F6C                     UEP2            equ	3948	;# 
   783   000F6D                     UEP3            equ	3949	;# 
   784   000F6E                     UEP4            equ	3950	;# 
   785   000F6F                     UEP5            equ	3951	;# 
   786   000F70                     UEP6            equ	3952	;# 
   787   000F71                     UEP7            equ	3953	;# 
   788   000F72                     UEP8            equ	3954	;# 
   789   000F73                     UEP9            equ	3955	;# 
   790   000F74                     UEP10           equ	3956	;# 
   791   000F75                     UEP11           equ	3957	;# 
   792   000F76                     UEP12           equ	3958	;# 
   793   000F77                     UEP13           equ	3959	;# 
   794   000F78                     UEP14           equ	3960	;# 
   795   000F79                     UEP15           equ	3961	;# 
   796   000F7A                     SLRCON          equ	3962	;# 
   797   000F7B                     VREFCON2        equ	3963	;# 
   798   000F7C                     VREFCON1        equ	3964	;# 
   799   000F7D                     VREFCON0        equ	3965	;# 
   800   000F7E                     PMD0            equ	3966	;# 
   801   000F7F                     PMD1            equ	3967	;# 
   802   000F80                     PORTA           equ	3968	;# 
   803   000F81                     PORTB           equ	3969	;# 
   804   000F82                     PORTC           equ	3970	;# 
   805   000F84                     PORTE           equ	3972	;# 
   806   000F85                     WPUB            equ	3973	;# 
   807   000F86                     IOCB            equ	3974	;# 
   808   000F87                     IOCC            equ	3975	;# 
   809   000F88                     CTMUICON        equ	3976	;# 
   810   000F89                     LATA            equ	3977	;# 
   811   000F8A                     LATB            equ	3978	;# 
   812   000F8B                     LATC            equ	3979	;# 
   813   000F8E                     CTMUCONL        equ	3982	;# 
   814   000F8E                     CTMUCON1        equ	3982	;# 
   815   000F8F                     CTMUCONH        equ	3983	;# 
   816   000F8F                     CTMUCON0        equ	3983	;# 
   817   000F90                     CCPR2           equ	3984	;# 
   818   000F90                     CCPR2L          equ	3984	;# 
   819   000F91                     CCPR2H          equ	3985	;# 
   820   000F92                     TRISA           equ	3986	;# 
   821   000F92                     DDRA            equ	3986	;# 
   822   000F93                     TRISB           equ	3987	;# 
   823   000F93                     DDRB            equ	3987	;# 
   824   000F94                     TRISC           equ	3988	;# 
   825   000F94                     DDRC            equ	3988	;# 
   826   000F97                     CCP2CON         equ	3991	;# 
   827   000F97                     ECCP2CON        equ	3991	;# 
   828   000F98                     CM1CON0         equ	3992	;# 
   829   000F99                     CM2CON0         equ	3993	;# 
   830   000F9A                     CM2CON1         equ	3994	;# 
   831   000F9B                     OSCTUNE         equ	3995	;# 
   832   000F9C                     HLVDCON         equ	3996	;# 
   833   000F9D                     PIE1            equ	3997	;# 
   834   000F9E                     PIR1            equ	3998	;# 
   835   000F9F                     IPR1            equ	3999	;# 
   836   000FA0                     PIE2            equ	4000	;# 
   837   000FA1                     PIR2            equ	4001	;# 
   838   000FA2                     IPR2            equ	4002	;# 
   839   000FA3                     PIE3            equ	4003	;# 
   840   000FA4                     PIR3            equ	4004	;# 
   841   000FA5                     IPR3            equ	4005	;# 
   842   000FA6                     EECON1          equ	4006	;# 
   843   000FA7                     EECON2          equ	4007	;# 
   844   000FA8                     EEDATA          equ	4008	;# 
   845   000FA9                     EEADR           equ	4009	;# 
   846   000FAB                     RCSTA1          equ	4011	;# 
   847   000FAB                     RCSTA           equ	4011	;# 
   848   000FAC                     TXSTA1          equ	4012	;# 
   849   000FAC                     TXSTA           equ	4012	;# 
   850   000FAD                     TXREG1          equ	4013	;# 
   851   000FAD                     TXREG           equ	4013	;# 
   852   000FAE                     RCREG1          equ	4014	;# 
   853   000FAE                     RCREG           equ	4014	;# 
   854   000FAF                     SPBRG1          equ	4015	;# 
   855   000FAF                     SPBRG           equ	4015	;# 
   856   000FB0                     SPBRGH1         equ	4016	;# 
   857   000FB0                     SPBRGH          equ	4016	;# 
   858   000FB1                     T3CON           equ	4017	;# 
   859   000FB2                     TMR3            equ	4018	;# 
   860   000FB2                     TMR3L           equ	4018	;# 
   861   000FB3                     TMR3H           equ	4019	;# 
   862   000FB4                     T3GCON          equ	4020	;# 
   863   000FB5                     ACTCON          equ	4021	;# 
   864   000FB5                     STCON           equ	4021	;# 
   865   000FB6                     ECCP1AS         equ	4022	;# 
   866   000FB7                     PWM1CON         equ	4023	;# 
   867   000FB7                     ECCP1DEL        equ	4023	;# 
   868   000FB8                     BAUDCON1        equ	4024	;# 
   869   000FB8                     BAUDCON         equ	4024	;# 
   870   000FB8                     BAUDCTL         equ	4024	;# 
   871   000FB9                     PSTR1CON        equ	4025	;# 
   872   000FBA                     T2CON           equ	4026	;# 
   873   000FBB                     PR2             equ	4027	;# 
   874   000FBC                     TMR2            equ	4028	;# 
   875   000FBD                     CCP1CON         equ	4029	;# 
   876   000FBD                     ECCP1CON        equ	4029	;# 
   877   000FBE                     CCPR1           equ	4030	;# 
   878   000FBE                     CCPR1L          equ	4030	;# 
   879   000FBF                     CCPR1H          equ	4031	;# 
   880   000FC0                     ADCON2          equ	4032	;# 
   881   000FC1                     ADCON1          equ	4033	;# 
   882   000FC2                     ADCON0          equ	4034	;# 
   883   000FC3                     ADRESL          equ	4035	;# 
   884   000FC4                     ADRESH          equ	4036	;# 
   885   000FC5                     SSP1CON2        equ	4037	;# 
   886   000FC5                     SSPCON2         equ	4037	;# 
   887   000FC6                     SSP1CON1        equ	4038	;# 
   888   000FC6                     SSPCON          equ	4038	;# 
   889   000FC6                     SSPCON1         equ	4038	;# 
   890   000FC7                     SSP1STAT        equ	4039	;# 
   891   000FC7                     SSPSTAT         equ	4039	;# 
   892   000FC8                     SSP1ADD         equ	4040	;# 
   893   000FC8                     SSPADD          equ	4040	;# 
   894   000FC9                     SSP1BUF         equ	4041	;# 
   895   000FC9                     SSPBUF          equ	4041	;# 
   896   000FCA                     SSP1MSK         equ	4042	;# 
   897   000FCA                     SSPMSK          equ	4042	;# 
   898   000FCB                     SSP1CON3        equ	4043	;# 
   899   000FCB                     SSPCON3         equ	4043	;# 
   900   000FCC                     T1GCON          equ	4044	;# 
   901   000FCD                     T1CON           equ	4045	;# 
   902   000FCE                     TMR1            equ	4046	;# 
   903   000FCE                     TMR1L           equ	4046	;# 
   904   000FCF                     TMR1H           equ	4047	;# 
   905   000FD0                     RCON            equ	4048	;# 
   906   000FD1                     WDTCON          equ	4049	;# 
   907   000FD2                     OSCCON2         equ	4050	;# 
   908   000FD3                     OSCCON          equ	4051	;# 
   909   000FD5                     T0CON           equ	4053	;# 
   910   000FD6                     TMR0            equ	4054	;# 
   911   000FD6                     TMR0L           equ	4054	;# 
   912   000FD7                     TMR0H           equ	4055	;# 
   913   000FD8                     STATUS          equ	4056	;# 
   914   000FD9                     FSR2            equ	4057	;# 
   915   000FD9                     FSR2L           equ	4057	;# 
   916   000FDA                     FSR2H           equ	4058	;# 
   917   000FDB                     PLUSW2          equ	4059	;# 
   918   000FDC                     PREINC2         equ	4060	;# 
   919   000FDD                     POSTDEC2        equ	4061	;# 
   920   000FDE                     POSTINC2        equ	4062	;# 
   921   000FDF                     INDF2           equ	4063	;# 
   922   000FE0                     BSR             equ	4064	;# 
   923   000FE1                     FSR1            equ	4065	;# 
   924   000FE1                     FSR1L           equ	4065	;# 
   925   000FE2                     FSR1H           equ	4066	;# 
   926   000FE3                     PLUSW1          equ	4067	;# 
   927   000FE4                     PREINC1         equ	4068	;# 
   928   000FE5                     POSTDEC1        equ	4069	;# 
   929   000FE6                     POSTINC1        equ	4070	;# 
   930   000FE7                     INDF1           equ	4071	;# 
   931   000FE8                     WREG            equ	4072	;# 
   932   000FE9                     FSR0            equ	4073	;# 
   933   000FE9                     FSR0L           equ	4073	;# 
   934   000FEA                     FSR0H           equ	4074	;# 
   935   000FEB                     PLUSW0          equ	4075	;# 
   936   000FEC                     PREINC0         equ	4076	;# 
   937   000FED                     POSTDEC0        equ	4077	;# 
   938   000FEE                     POSTINC0        equ	4078	;# 
   939   000FEF                     INDF0           equ	4079	;# 
   940   000FF0                     INTCON3         equ	4080	;# 
   941   000FF1                     INTCON2         equ	4081	;# 
   942   000FF2                     INTCON          equ	4082	;# 
   943   000FF3                     PROD            equ	4083	;# 
   944   000FF3                     PRODL           equ	4083	;# 
   945   000FF4                     PRODH           equ	4084	;# 
   946   000FF5                     TABLAT          equ	4085	;# 
   947   000FF6                     TBLPTR          equ	4086	;# 
   948   000FF6                     TBLPTRL         equ	4086	;# 
   949   000FF7                     TBLPTRH         equ	4087	;# 
   950   000FF8                     TBLPTRU         equ	4088	;# 
   951   000FF9                     PCLAT           equ	4089	;# 
   952   000FF9                     PC              equ	4089	;# 
   953   000FF9                     PCL             equ	4089	;# 
   954   000FFA                     PCLATH          equ	4090	;# 
   955   000FFB                     PCLATU          equ	4091	;# 
   956   000FFC                     STKPTR          equ	4092	;# 
   957   000FFD                     TOS             equ	4093	;# 
   958   000FFD                     TOSL            equ	4093	;# 
   959   000FFE                     TOSH            equ	4094	;# 
   960   000FFF                     TOSU            equ	4095	;# 
   961   000F57                     SRCON1          equ	3927	;# 
   962   000F58                     SRCON0          equ	3928	;# 
   963   000F59                     CCPTMRS         equ	3929	;# 
   964   000F5A                     VREGCON         equ	3930	;# 
   965   000F5B                     ANSELA          equ	3931	;# 
   966   000F5C                     ANSELB          equ	3932	;# 
   967   000F5D                     ANSELC          equ	3933	;# 
   968   000F60                     UCON            equ	3936	;# 
   969   000F61                     USTAT           equ	3937	;# 
   970   000F62                     UCFG            equ	3938	;# 
   971   000F63                     UADDR           equ	3939	;# 
   972   000F64                     UIE             equ	3940	;# 
   973   000F65                     UIR             equ	3941	;# 
   974   000F66                     UEIE            equ	3942	;# 
   975   000F67                     UEIR            equ	3943	;# 
   976   000F68                     UFRM            equ	3944	;# 
   977   000F68                     UFRML           equ	3944	;# 
   978   000F69                     UFRMH           equ	3945	;# 
   979   000F6A                     UEP0            equ	3946	;# 
   980   000F6B                     UEP1            equ	3947	;# 
   981   000F6C                     UEP2            equ	3948	;# 
   982   000F6D                     UEP3            equ	3949	;# 
   983   000F6E                     UEP4            equ	3950	;# 
   984   000F6F                     UEP5            equ	3951	;# 
   985   000F70                     UEP6            equ	3952	;# 
   986   000F71                     UEP7            equ	3953	;# 
   987   000F72                     UEP8            equ	3954	;# 
   988   000F73                     UEP9            equ	3955	;# 
   989   000F74                     UEP10           equ	3956	;# 
   990   000F75                     UEP11           equ	3957	;# 
   991   000F76                     UEP12           equ	3958	;# 
   992   000F77                     UEP13           equ	3959	;# 
   993   000F78                     UEP14           equ	3960	;# 
   994   000F79                     UEP15           equ	3961	;# 
   995   000F7A                     SLRCON          equ	3962	;# 
   996   000F7B                     VREFCON2        equ	3963	;# 
   997   000F7C                     VREFCON1        equ	3964	;# 
   998   000F7D                     VREFCON0        equ	3965	;# 
   999   000F7E                     PMD0            equ	3966	;# 
  1000   000F7F                     PMD1            equ	3967	;# 
  1001   000F80                     PORTA           equ	3968	;# 
  1002   000F81                     PORTB           equ	3969	;# 
  1003   000F82                     PORTC           equ	3970	;# 
  1004   000F84                     PORTE           equ	3972	;# 
  1005   000F85                     WPUB            equ	3973	;# 
  1006   000F86                     IOCB            equ	3974	;# 
  1007   000F87                     IOCC            equ	3975	;# 
  1008   000F88                     CTMUICON        equ	3976	;# 
  1009   000F89                     LATA            equ	3977	;# 
  1010   000F8A                     LATB            equ	3978	;# 
  1011   000F8B                     LATC            equ	3979	;# 
  1012   000F8E                     CTMUCONL        equ	3982	;# 
  1013   000F8E                     CTMUCON1        equ	3982	;# 
  1014   000F8F                     CTMUCONH        equ	3983	;# 
  1015   000F8F                     CTMUCON0        equ	3983	;# 
  1016   000F90                     CCPR2           equ	3984	;# 
  1017   000F90                     CCPR2L          equ	3984	;# 
  1018   000F91                     CCPR2H          equ	3985	;# 
  1019   000F92                     TRISA           equ	3986	;# 
  1020   000F92                     DDRA            equ	3986	;# 
  1021   000F93                     TRISB           equ	3987	;# 
  1022   000F93                     DDRB            equ	3987	;# 
  1023   000F94                     TRISC           equ	3988	;# 
  1024   000F94                     DDRC            equ	3988	;# 
  1025   000F97                     CCP2CON         equ	3991	;# 
  1026   000F97                     ECCP2CON        equ	3991	;# 
  1027   000F98                     CM1CON0         equ	3992	;# 
  1028   000F99                     CM2CON0         equ	3993	;# 
  1029   000F9A                     CM2CON1         equ	3994	;# 
  1030   000F9B                     OSCTUNE         equ	3995	;# 
  1031   000F9C                     HLVDCON         equ	3996	;# 
  1032   000F9D                     PIE1            equ	3997	;# 
  1033   000F9E                     PIR1            equ	3998	;# 
  1034   000F9F                     IPR1            equ	3999	;# 
  1035   000FA0                     PIE2            equ	4000	;# 
  1036   000FA1                     PIR2            equ	4001	;# 
  1037   000FA2                     IPR2            equ	4002	;# 
  1038   000FA3                     PIE3            equ	4003	;# 
  1039   000FA4                     PIR3            equ	4004	;# 
  1040   000FA5                     IPR3            equ	4005	;# 
  1041   000FA6                     EECON1          equ	4006	;# 
  1042   000FA7                     EECON2          equ	4007	;# 
  1043   000FA8                     EEDATA          equ	4008	;# 
  1044   000FA9                     EEADR           equ	4009	;# 
  1045   000FAB                     RCSTA1          equ	4011	;# 
  1046   000FAB                     RCSTA           equ	4011	;# 
  1047   000FAC                     TXSTA1          equ	4012	;# 
  1048   000FAC                     TXSTA           equ	4012	;# 
  1049   000FAD                     TXREG1          equ	4013	;# 
  1050   000FAD                     TXREG           equ	4013	;# 
  1051   000FAE                     RCREG1          equ	4014	;# 
  1052   000FAE                     RCREG           equ	4014	;# 
  1053   000FAF                     SPBRG1          equ	4015	;# 
  1054   000FAF                     SPBRG           equ	4015	;# 
  1055   000FB0                     SPBRGH1         equ	4016	;# 
  1056   000FB0                     SPBRGH          equ	4016	;# 
  1057   000FB1                     T3CON           equ	4017	;# 
  1058   000FB2                     TMR3            equ	4018	;# 
  1059   000FB2                     TMR3L           equ	4018	;# 
  1060   000FB3                     TMR3H           equ	4019	;# 
  1061   000FB4                     T3GCON          equ	4020	;# 
  1062   000FB5                     ACTCON          equ	4021	;# 
  1063   000FB5                     STCON           equ	4021	;# 
  1064   000FB6                     ECCP1AS         equ	4022	;# 
  1065   000FB7                     PWM1CON         equ	4023	;# 
  1066   000FB7                     ECCP1DEL        equ	4023	;# 
  1067   000FB8                     BAUDCON1        equ	4024	;# 
  1068   000FB8                     BAUDCON         equ	4024	;# 
  1069   000FB8                     BAUDCTL         equ	4024	;# 
  1070   000FB9                     PSTR1CON        equ	4025	;# 
  1071   000FBA                     T2CON           equ	4026	;# 
  1072   000FBB                     PR2             equ	4027	;# 
  1073   000FBC                     TMR2            equ	4028	;# 
  1074   000FBD                     CCP1CON         equ	4029	;# 
  1075   000FBD                     ECCP1CON        equ	4029	;# 
  1076   000FBE                     CCPR1           equ	4030	;# 
  1077   000FBE                     CCPR1L          equ	4030	;# 
  1078   000FBF                     CCPR1H          equ	4031	;# 
  1079   000FC0                     ADCON2          equ	4032	;# 
  1080   000FC1                     ADCON1          equ	4033	;# 
  1081   000FC2                     ADCON0          equ	4034	;# 
  1082   000FC3                     ADRESL          equ	4035	;# 
  1083   000FC4                     ADRESH          equ	4036	;# 
  1084   000FC5                     SSP1CON2        equ	4037	;# 
  1085   000FC5                     SSPCON2         equ	4037	;# 
  1086   000FC6                     SSP1CON1        equ	4038	;# 
  1087   000FC6                     SSPCON          equ	4038	;# 
  1088   000FC6                     SSPCON1         equ	4038	;# 
  1089   000FC7                     SSP1STAT        equ	4039	;# 
  1090   000FC7                     SSPSTAT         equ	4039	;# 
  1091   000FC8                     SSP1ADD         equ	4040	;# 
  1092   000FC8                     SSPADD          equ	4040	;# 
  1093   000FC9                     SSP1BUF         equ	4041	;# 
  1094   000FC9                     SSPBUF          equ	4041	;# 
  1095   000FCA                     SSP1MSK         equ	4042	;# 
  1096   000FCA                     SSPMSK          equ	4042	;# 
  1097   000FCB                     SSP1CON3        equ	4043	;# 
  1098   000FCB                     SSPCON3         equ	4043	;# 
  1099   000FCC                     T1GCON          equ	4044	;# 
  1100   000FCD                     T1CON           equ	4045	;# 
  1101   000FCE                     TMR1            equ	4046	;# 
  1102   000FCE                     TMR1L           equ	4046	;# 
  1103   000FCF                     TMR1H           equ	4047	;# 
  1104   000FD0                     RCON            equ	4048	;# 
  1105   000FD1                     WDTCON          equ	4049	;# 
  1106   000FD2                     OSCCON2         equ	4050	;# 
  1107   000FD3                     OSCCON          equ	4051	;# 
  1108   000FD5                     T0CON           equ	4053	;# 
  1109   000FD6                     TMR0            equ	4054	;# 
  1110   000FD6                     TMR0L           equ	4054	;# 
  1111   000FD7                     TMR0H           equ	4055	;# 
  1112   000FD8                     STATUS          equ	4056	;# 
  1113   000FD9                     FSR2            equ	4057	;# 
  1114   000FD9                     FSR2L           equ	4057	;# 
  1115   000FDA                     FSR2H           equ	4058	;# 
  1116   000FDB                     PLUSW2          equ	4059	;# 
  1117   000FDC                     PREINC2         equ	4060	;# 
  1118   000FDD                     POSTDEC2        equ	4061	;# 
  1119   000FDE                     POSTINC2        equ	4062	;# 
  1120   000FDF                     INDF2           equ	4063	;# 
  1121   000FE0                     BSR             equ	4064	;# 
  1122   000FE1                     FSR1            equ	4065	;# 
  1123   000FE1                     FSR1L           equ	4065	;# 
  1124   000FE2                     FSR1H           equ	4066	;# 
  1125   000FE3                     PLUSW1          equ	4067	;# 
  1126   000FE4                     PREINC1         equ	4068	;# 
  1127   000FE5                     POSTDEC1        equ	4069	;# 
  1128   000FE6                     POSTINC1        equ	4070	;# 
  1129   000FE7                     INDF1           equ	4071	;# 
  1130   000FE8                     WREG            equ	4072	;# 
  1131   000FE9                     FSR0            equ	4073	;# 
  1132   000FE9                     FSR0L           equ	4073	;# 
  1133   000FEA                     FSR0H           equ	4074	;# 
  1134   000FEB                     PLUSW0          equ	4075	;# 
  1135   000FEC                     PREINC0         equ	4076	;# 
  1136   000FED                     POSTDEC0        equ	4077	;# 
  1137   000FEE                     POSTINC0        equ	4078	;# 
  1138   000FEF                     INDF0           equ	4079	;# 
  1139   000FF0                     INTCON3         equ	4080	;# 
  1140   000FF1                     INTCON2         equ	4081	;# 
  1141   000FF2                     INTCON          equ	4082	;# 
  1142   000FF3                     PROD            equ	4083	;# 
  1143   000FF3                     PRODL           equ	4083	;# 
  1144   000FF4                     PRODH           equ	4084	;# 
  1145   000FF5                     TABLAT          equ	4085	;# 
  1146   000FF6                     TBLPTR          equ	4086	;# 
  1147   000FF6                     TBLPTRL         equ	4086	;# 
  1148   000FF7                     TBLPTRH         equ	4087	;# 
  1149   000FF8                     TBLPTRU         equ	4088	;# 
  1150   000FF9                     PCLAT           equ	4089	;# 
  1151   000FF9                     PC              equ	4089	;# 
  1152   000FF9                     PCL             equ	4089	;# 
  1153   000FFA                     PCLATH          equ	4090	;# 
  1154   000FFB                     PCLATU          equ	4091	;# 
  1155   000FFC                     STKPTR          equ	4092	;# 
  1156   000FFD                     TOS             equ	4093	;# 
  1157   000FFD                     TOSL            equ	4093	;# 
  1158   000FFE                     TOSH            equ	4094	;# 
  1159   000FFF                     TOSU            equ	4095	;# 
  1160   000F57                     SRCON1          equ	3927	;# 
  1161   000F58                     SRCON0          equ	3928	;# 
  1162   000F59                     CCPTMRS         equ	3929	;# 
  1163   000F5A                     VREGCON         equ	3930	;# 
  1164   000F5B                     ANSELA          equ	3931	;# 
  1165   000F5C                     ANSELB          equ	3932	;# 
  1166   000F5D                     ANSELC          equ	3933	;# 
  1167   000F60                     UCON            equ	3936	;# 
  1168   000F61                     USTAT           equ	3937	;# 
  1169   000F62                     UCFG            equ	3938	;# 
  1170   000F63                     UADDR           equ	3939	;# 
  1171   000F64                     UIE             equ	3940	;# 
  1172   000F65                     UIR             equ	3941	;# 
  1173   000F66                     UEIE            equ	3942	;# 
  1174   000F67                     UEIR            equ	3943	;# 
  1175   000F68                     UFRM            equ	3944	;# 
  1176   000F68                     UFRML           equ	3944	;# 
  1177   000F69                     UFRMH           equ	3945	;# 
  1178   000F6A                     UEP0            equ	3946	;# 
  1179   000F6B                     UEP1            equ	3947	;# 
  1180   000F6C                     UEP2            equ	3948	;# 
  1181   000F6D                     UEP3            equ	3949	;# 
  1182   000F6E                     UEP4            equ	3950	;# 
  1183   000F6F                     UEP5            equ	3951	;# 
  1184   000F70                     UEP6            equ	3952	;# 
  1185   000F71                     UEP7            equ	3953	;# 
  1186   000F72                     UEP8            equ	3954	;# 
  1187   000F73                     UEP9            equ	3955	;# 
  1188   000F74                     UEP10           equ	3956	;# 
  1189   000F75                     UEP11           equ	3957	;# 
  1190   000F76                     UEP12           equ	3958	;# 
  1191   000F77                     UEP13           equ	3959	;# 
  1192   000F78                     UEP14           equ	3960	;# 
  1193   000F79                     UEP15           equ	3961	;# 
  1194   000F7A                     SLRCON          equ	3962	;# 
  1195   000F7B                     VREFCON2        equ	3963	;# 
  1196   000F7C                     VREFCON1        equ	3964	;# 
  1197   000F7D                     VREFCON0        equ	3965	;# 
  1198   000F7E                     PMD0            equ	3966	;# 
  1199   000F7F                     PMD1            equ	3967	;# 
  1200   000F80                     PORTA           equ	3968	;# 
  1201   000F81                     PORTB           equ	3969	;# 
  1202   000F82                     PORTC           equ	3970	;# 
  1203   000F84                     PORTE           equ	3972	;# 
  1204   000F85                     WPUB            equ	3973	;# 
  1205   000F86                     IOCB            equ	3974	;# 
  1206   000F87                     IOCC            equ	3975	;# 
  1207   000F88                     CTMUICON        equ	3976	;# 
  1208   000F89                     LATA            equ	3977	;# 
  1209   000F8A                     LATB            equ	3978	;# 
  1210   000F8B                     LATC            equ	3979	;# 
  1211   000F8E                     CTMUCONL        equ	3982	;# 
  1212   000F8E                     CTMUCON1        equ	3982	;# 
  1213   000F8F                     CTMUCONH        equ	3983	;# 
  1214   000F8F                     CTMUCON0        equ	3983	;# 
  1215   000F90                     CCPR2           equ	3984	;# 
  1216   000F90                     CCPR2L          equ	3984	;# 
  1217   000F91                     CCPR2H          equ	3985	;# 
  1218   000F92                     TRISA           equ	3986	;# 
  1219   000F92                     DDRA            equ	3986	;# 
  1220   000F93                     TRISB           equ	3987	;# 
  1221   000F93                     DDRB            equ	3987	;# 
  1222   000F94                     TRISC           equ	3988	;# 
  1223   000F94                     DDRC            equ	3988	;# 
  1224   000F97                     CCP2CON         equ	3991	;# 
  1225   000F97                     ECCP2CON        equ	3991	;# 
  1226   000F98                     CM1CON0         equ	3992	;# 
  1227   000F99                     CM2CON0         equ	3993	;# 
  1228   000F9A                     CM2CON1         equ	3994	;# 
  1229   000F9B                     OSCTUNE         equ	3995	;# 
  1230   000F9C                     HLVDCON         equ	3996	;# 
  1231   000F9D                     PIE1            equ	3997	;# 
  1232   000F9E                     PIR1            equ	3998	;# 
  1233   000F9F                     IPR1            equ	3999	;# 
  1234   000FA0                     PIE2            equ	4000	;# 
  1235   000FA1                     PIR2            equ	4001	;# 
  1236   000FA2                     IPR2            equ	4002	;# 
  1237   000FA3                     PIE3            equ	4003	;# 
  1238   000FA4                     PIR3            equ	4004	;# 
  1239   000FA5                     IPR3            equ	4005	;# 
  1240   000FA6                     EECON1          equ	4006	;# 
  1241   000FA7                     EECON2          equ	4007	;# 
  1242   000FA8                     EEDATA          equ	4008	;# 
  1243   000FA9                     EEADR           equ	4009	;# 
  1244   000FAB                     RCSTA1          equ	4011	;# 
  1245   000FAB                     RCSTA           equ	4011	;# 
  1246   000FAC                     TXSTA1          equ	4012	;# 
  1247   000FAC                     TXSTA           equ	4012	;# 
  1248   000FAD                     TXREG1          equ	4013	;# 
  1249   000FAD                     TXREG           equ	4013	;# 
  1250   000FAE                     RCREG1          equ	4014	;# 
  1251   000FAE                     RCREG           equ	4014	;# 
  1252   000FAF                     SPBRG1          equ	4015	;# 
  1253   000FAF                     SPBRG           equ	4015	;# 
  1254   000FB0                     SPBRGH1         equ	4016	;# 
  1255   000FB0                     SPBRGH          equ	4016	;# 
  1256   000FB1                     T3CON           equ	4017	;# 
  1257   000FB2                     TMR3            equ	4018	;# 
  1258   000FB2                     TMR3L           equ	4018	;# 
  1259   000FB3                     TMR3H           equ	4019	;# 
  1260   000FB4                     T3GCON          equ	4020	;# 
  1261   000FB5                     ACTCON          equ	4021	;# 
  1262   000FB5                     STCON           equ	4021	;# 
  1263   000FB6                     ECCP1AS         equ	4022	;# 
  1264   000FB7                     PWM1CON         equ	4023	;# 
  1265   000FB7                     ECCP1DEL        equ	4023	;# 
  1266   000FB8                     BAUDCON1        equ	4024	;# 
  1267   000FB8                     BAUDCON         equ	4024	;# 
  1268   000FB8                     BAUDCTL         equ	4024	;# 
  1269   000FB9                     PSTR1CON        equ	4025	;# 
  1270   000FBA                     T2CON           equ	4026	;# 
  1271   000FBB                     PR2             equ	4027	;# 
  1272   000FBC                     TMR2            equ	4028	;# 
  1273   000FBD                     CCP1CON         equ	4029	;# 
  1274   000FBD                     ECCP1CON        equ	4029	;# 
  1275   000FBE                     CCPR1           equ	4030	;# 
  1276   000FBE                     CCPR1L          equ	4030	;# 
  1277   000FBF                     CCPR1H          equ	4031	;# 
  1278   000FC0                     ADCON2          equ	4032	;# 
  1279   000FC1                     ADCON1          equ	4033	;# 
  1280   000FC2                     ADCON0          equ	4034	;# 
  1281   000FC3                     ADRESL          equ	4035	;# 
  1282   000FC4                     ADRESH          equ	4036	;# 
  1283   000FC5                     SSP1CON2        equ	4037	;# 
  1284   000FC5                     SSPCON2         equ	4037	;# 
  1285   000FC6                     SSP1CON1        equ	4038	;# 
  1286   000FC6                     SSPCON          equ	4038	;# 
  1287   000FC6                     SSPCON1         equ	4038	;# 
  1288   000FC7                     SSP1STAT        equ	4039	;# 
  1289   000FC7                     SSPSTAT         equ	4039	;# 
  1290   000FC8                     SSP1ADD         equ	4040	;# 
  1291   000FC8                     SSPADD          equ	4040	;# 
  1292   000FC9                     SSP1BUF         equ	4041	;# 
  1293   000FC9                     SSPBUF          equ	4041	;# 
  1294   000FCA                     SSP1MSK         equ	4042	;# 
  1295   000FCA                     SSPMSK          equ	4042	;# 
  1296   000FCB                     SSP1CON3        equ	4043	;# 
  1297   000FCB                     SSPCON3         equ	4043	;# 
  1298   000FCC                     T1GCON          equ	4044	;# 
  1299   000FCD                     T1CON           equ	4045	;# 
  1300   000FCE                     TMR1            equ	4046	;# 
  1301   000FCE                     TMR1L           equ	4046	;# 
  1302   000FCF                     TMR1H           equ	4047	;# 
  1303   000FD0                     RCON            equ	4048	;# 
  1304   000FD1                     WDTCON          equ	4049	;# 
  1305   000FD2                     OSCCON2         equ	4050	;# 
  1306   000FD3                     OSCCON          equ	4051	;# 
  1307   000FD5                     T0CON           equ	4053	;# 
  1308   000FD6                     TMR0            equ	4054	;# 
  1309   000FD6                     TMR0L           equ	4054	;# 
  1310   000FD7                     TMR0H           equ	4055	;# 
  1311   000FD8                     STATUS          equ	4056	;# 
  1312   000FD9                     FSR2            equ	4057	;# 
  1313   000FD9                     FSR2L           equ	4057	;# 
  1314   000FDA                     FSR2H           equ	4058	;# 
  1315   000FDB                     PLUSW2          equ	4059	;# 
  1316   000FDC                     PREINC2         equ	4060	;# 
  1317   000FDD                     POSTDEC2        equ	4061	;# 
  1318   000FDE                     POSTINC2        equ	4062	;# 
  1319   000FDF                     INDF2           equ	4063	;# 
  1320   000FE0                     BSR             equ	4064	;# 
  1321   000FE1                     FSR1            equ	4065	;# 
  1322   000FE1                     FSR1L           equ	4065	;# 
  1323   000FE2                     FSR1H           equ	4066	;# 
  1324   000FE3                     PLUSW1          equ	4067	;# 
  1325   000FE4                     PREINC1         equ	4068	;# 
  1326   000FE5                     POSTDEC1        equ	4069	;# 
  1327   000FE6                     POSTINC1        equ	4070	;# 
  1328   000FE7                     INDF1           equ	4071	;# 
  1329   000FE8                     WREG            equ	4072	;# 
  1330   000FE9                     FSR0            equ	4073	;# 
  1331   000FE9                     FSR0L           equ	4073	;# 
  1332   000FEA                     FSR0H           equ	4074	;# 
  1333   000FEB                     PLUSW0          equ	4075	;# 
  1334   000FEC                     PREINC0         equ	4076	;# 
  1335   000FED                     POSTDEC0        equ	4077	;# 
  1336   000FEE                     POSTINC0        equ	4078	;# 
  1337   000FEF                     INDF0           equ	4079	;# 
  1338   000FF0                     INTCON3         equ	4080	;# 
  1339   000FF1                     INTCON2         equ	4081	;# 
  1340   000FF2                     INTCON          equ	4082	;# 
  1341   000FF3                     PROD            equ	4083	;# 
  1342   000FF3                     PRODL           equ	4083	;# 
  1343   000FF4                     PRODH           equ	4084	;# 
  1344   000FF5                     TABLAT          equ	4085	;# 
  1345   000FF6                     TBLPTR          equ	4086	;# 
  1346   000FF6                     TBLPTRL         equ	4086	;# 
  1347   000FF7                     TBLPTRH         equ	4087	;# 
  1348   000FF8                     TBLPTRU         equ	4088	;# 
  1349   000FF9                     PCLAT           equ	4089	;# 
  1350   000FF9                     PC              equ	4089	;# 
  1351   000FF9                     PCL             equ	4089	;# 
  1352   000FFA                     PCLATH          equ	4090	;# 
  1353   000FFB                     PCLATU          equ	4091	;# 
  1354   000FFC                     STKPTR          equ	4092	;# 
  1355   000FFD                     TOS             equ	4093	;# 
  1356   000FFD                     TOSL            equ	4093	;# 
  1357   000FFE                     TOSH            equ	4094	;# 
  1358   000FFF                     TOSU            equ	4095	;# 
  1359   000F57                     SRCON1          equ	3927	;# 
  1360   000F58                     SRCON0          equ	3928	;# 
  1361   000F59                     CCPTMRS         equ	3929	;# 
  1362   000F5A                     VREGCON         equ	3930	;# 
  1363   000F5B                     ANSELA          equ	3931	;# 
  1364   000F5C                     ANSELB          equ	3932	;# 
  1365   000F5D                     ANSELC          equ	3933	;# 
  1366   000F60                     UCON            equ	3936	;# 
  1367   000F61                     USTAT           equ	3937	;# 
  1368   000F62                     UCFG            equ	3938	;# 
  1369   000F63                     UADDR           equ	3939	;# 
  1370   000F64                     UIE             equ	3940	;# 
  1371   000F65                     UIR             equ	3941	;# 
  1372   000F66                     UEIE            equ	3942	;# 
  1373   000F67                     UEIR            equ	3943	;# 
  1374   000F68                     UFRM            equ	3944	;# 
  1375   000F68                     UFRML           equ	3944	;# 
  1376   000F69                     UFRMH           equ	3945	;# 
  1377   000F6A                     UEP0            equ	3946	;# 
  1378   000F6B                     UEP1            equ	3947	;# 
  1379   000F6C                     UEP2            equ	3948	;# 
  1380   000F6D                     UEP3            equ	3949	;# 
  1381   000F6E                     UEP4            equ	3950	;# 
  1382   000F6F                     UEP5            equ	3951	;# 
  1383   000F70                     UEP6            equ	3952	;# 
  1384   000F71                     UEP7            equ	3953	;# 
  1385   000F72                     UEP8            equ	3954	;# 
  1386   000F73                     UEP9            equ	3955	;# 
  1387   000F74                     UEP10           equ	3956	;# 
  1388   000F75                     UEP11           equ	3957	;# 
  1389   000F76                     UEP12           equ	3958	;# 
  1390   000F77                     UEP13           equ	3959	;# 
  1391   000F78                     UEP14           equ	3960	;# 
  1392   000F79                     UEP15           equ	3961	;# 
  1393   000F7A                     SLRCON          equ	3962	;# 
  1394   000F7B                     VREFCON2        equ	3963	;# 
  1395   000F7C                     VREFCON1        equ	3964	;# 
  1396   000F7D                     VREFCON0        equ	3965	;# 
  1397   000F7E                     PMD0            equ	3966	;# 
  1398   000F7F                     PMD1            equ	3967	;# 
  1399   000F80                     PORTA           equ	3968	;# 
  1400   000F81                     PORTB           equ	3969	;# 
  1401   000F82                     PORTC           equ	3970	;# 
  1402   000F84                     PORTE           equ	3972	;# 
  1403   000F85                     WPUB            equ	3973	;# 
  1404   000F86                     IOCB            equ	3974	;# 
  1405   000F87                     IOCC            equ	3975	;# 
  1406   000F88                     CTMUICON        equ	3976	;# 
  1407   000F89                     LATA            equ	3977	;# 
  1408   000F8A                     LATB            equ	3978	;# 
  1409   000F8B                     LATC            equ	3979	;# 
  1410   000F8E                     CTMUCONL        equ	3982	;# 
  1411   000F8E                     CTMUCON1        equ	3982	;# 
  1412   000F8F                     CTMUCONH        equ	3983	;# 
  1413   000F8F                     CTMUCON0        equ	3983	;# 
  1414   000F90                     CCPR2           equ	3984	;# 
  1415   000F90                     CCPR2L          equ	3984	;# 
  1416   000F91                     CCPR2H          equ	3985	;# 
  1417   000F92                     TRISA           equ	3986	;# 
  1418   000F92                     DDRA            equ	3986	;# 
  1419   000F93                     TRISB           equ	3987	;# 
  1420   000F93                     DDRB            equ	3987	;# 
  1421   000F94                     TRISC           equ	3988	;# 
  1422   000F94                     DDRC            equ	3988	;# 
  1423   000F97                     CCP2CON         equ	3991	;# 
  1424   000F97                     ECCP2CON        equ	3991	;# 
  1425   000F98                     CM1CON0         equ	3992	;# 
  1426   000F99                     CM2CON0         equ	3993	;# 
  1427   000F9A                     CM2CON1         equ	3994	;# 
  1428   000F9B                     OSCTUNE         equ	3995	;# 
  1429   000F9C                     HLVDCON         equ	3996	;# 
  1430   000F9D                     PIE1            equ	3997	;# 
  1431   000F9E                     PIR1            equ	3998	;# 
  1432   000F9F                     IPR1            equ	3999	;# 
  1433   000FA0                     PIE2            equ	4000	;# 
  1434   000FA1                     PIR2            equ	4001	;# 
  1435   000FA2                     IPR2            equ	4002	;# 
  1436   000FA3                     PIE3            equ	4003	;# 
  1437   000FA4                     PIR3            equ	4004	;# 
  1438   000FA5                     IPR3            equ	4005	;# 
  1439   000FA6                     EECON1          equ	4006	;# 
  1440   000FA7                     EECON2          equ	4007	;# 
  1441   000FA8                     EEDATA          equ	4008	;# 
  1442   000FA9                     EEADR           equ	4009	;# 
  1443   000FAB                     RCSTA1          equ	4011	;# 
  1444   000FAB                     RCSTA           equ	4011	;# 
  1445   000FAC                     TXSTA1          equ	4012	;# 
  1446   000FAC                     TXSTA           equ	4012	;# 
  1447   000FAD                     TXREG1          equ	4013	;# 
  1448   000FAD                     TXREG           equ	4013	;# 
  1449   000FAE                     RCREG1          equ	4014	;# 
  1450   000FAE                     RCREG           equ	4014	;# 
  1451   000FAF                     SPBRG1          equ	4015	;# 
  1452   000FAF                     SPBRG           equ	4015	;# 
  1453   000FB0                     SPBRGH1         equ	4016	;# 
  1454   000FB0                     SPBRGH          equ	4016	;# 
  1455   000FB1                     T3CON           equ	4017	;# 
  1456   000FB2                     TMR3            equ	4018	;# 
  1457   000FB2                     TMR3L           equ	4018	;# 
  1458   000FB3                     TMR3H           equ	4019	;# 
  1459   000FB4                     T3GCON          equ	4020	;# 
  1460   000FB5                     ACTCON          equ	4021	;# 
  1461   000FB5                     STCON           equ	4021	;# 
  1462   000FB6                     ECCP1AS         equ	4022	;# 
  1463   000FB7                     PWM1CON         equ	4023	;# 
  1464   000FB7                     ECCP1DEL        equ	4023	;# 
  1465   000FB8                     BAUDCON1        equ	4024	;# 
  1466   000FB8                     BAUDCON         equ	4024	;# 
  1467   000FB8                     BAUDCTL         equ	4024	;# 
  1468   000FB9                     PSTR1CON        equ	4025	;# 
  1469   000FBA                     T2CON           equ	4026	;# 
  1470   000FBB                     PR2             equ	4027	;# 
  1471   000FBC                     TMR2            equ	4028	;# 
  1472   000FBD                     CCP1CON         equ	4029	;# 
  1473   000FBD                     ECCP1CON        equ	4029	;# 
  1474   000FBE                     CCPR1           equ	4030	;# 
  1475   000FBE                     CCPR1L          equ	4030	;# 
  1476   000FBF                     CCPR1H          equ	4031	;# 
  1477   000FC0                     ADCON2          equ	4032	;# 
  1478   000FC1                     ADCON1          equ	4033	;# 
  1479   000FC2                     ADCON0          equ	4034	;# 
  1480   000FC3                     ADRESL          equ	4035	;# 
  1481   000FC4                     ADRESH          equ	4036	;# 
  1482   000FC5                     SSP1CON2        equ	4037	;# 
  1483   000FC5                     SSPCON2         equ	4037	;# 
  1484   000FC6                     SSP1CON1        equ	4038	;# 
  1485   000FC6                     SSPCON          equ	4038	;# 
  1486   000FC6                     SSPCON1         equ	4038	;# 
  1487   000FC7                     SSP1STAT        equ	4039	;# 
  1488   000FC7                     SSPSTAT         equ	4039	;# 
  1489   000FC8                     SSP1ADD         equ	4040	;# 
  1490   000FC8                     SSPADD          equ	4040	;# 
  1491   000FC9                     SSP1BUF         equ	4041	;# 
  1492   000FC9                     SSPBUF          equ	4041	;# 
  1493   000FCA                     SSP1MSK         equ	4042	;# 
  1494   000FCA                     SSPMSK          equ	4042	;# 
  1495   000FCB                     SSP1CON3        equ	4043	;# 
  1496   000FCB                     SSPCON3         equ	4043	;# 
  1497   000FCC                     T1GCON          equ	4044	;# 
  1498   000FCD                     T1CON           equ	4045	;# 
  1499   000FCE                     TMR1            equ	4046	;# 
  1500   000FCE                     TMR1L           equ	4046	;# 
  1501   000FCF                     TMR1H           equ	4047	;# 
  1502   000FD0                     RCON            equ	4048	;# 
  1503   000FD1                     WDTCON          equ	4049	;# 
  1504   000FD2                     OSCCON2         equ	4050	;# 
  1505   000FD3                     OSCCON          equ	4051	;# 
  1506   000FD5                     T0CON           equ	4053	;# 
  1507   000FD6                     TMR0            equ	4054	;# 
  1508   000FD6                     TMR0L           equ	4054	;# 
  1509   000FD7                     TMR0H           equ	4055	;# 
  1510   000FD8                     STATUS          equ	4056	;# 
  1511   000FD9                     FSR2            equ	4057	;# 
  1512   000FD9                     FSR2L           equ	4057	;# 
  1513   000FDA                     FSR2H           equ	4058	;# 
  1514   000FDB                     PLUSW2          equ	4059	;# 
  1515   000FDC                     PREINC2         equ	4060	;# 
  1516   000FDD                     POSTDEC2        equ	4061	;# 
  1517   000FDE                     POSTINC2        equ	4062	;# 
  1518   000FDF                     INDF2           equ	4063	;# 
  1519   000FE0                     BSR             equ	4064	;# 
  1520   000FE1                     FSR1            equ	4065	;# 
  1521   000FE1                     FSR1L           equ	4065	;# 
  1522   000FE2                     FSR1H           equ	4066	;# 
  1523   000FE3                     PLUSW1          equ	4067	;# 
  1524   000FE4                     PREINC1         equ	4068	;# 
  1525   000FE5                     POSTDEC1        equ	4069	;# 
  1526   000FE6                     POSTINC1        equ	4070	;# 
  1527   000FE7                     INDF1           equ	4071	;# 
  1528   000FE8                     WREG            equ	4072	;# 
  1529   000FE9                     FSR0            equ	4073	;# 
  1530   000FE9                     FSR0L           equ	4073	;# 
  1531   000FEA                     FSR0H           equ	4074	;# 
  1532   000FEB                     PLUSW0          equ	4075	;# 
  1533   000FEC                     PREINC0         equ	4076	;# 
  1534   000FED                     POSTDEC0        equ	4077	;# 
  1535   000FEE                     POSTINC0        equ	4078	;# 
  1536   000FEF                     INDF0           equ	4079	;# 
  1537   000FF0                     INTCON3         equ	4080	;# 
  1538   000FF1                     INTCON2         equ	4081	;# 
  1539   000FF2                     INTCON          equ	4082	;# 
  1540   000FF3                     PROD            equ	4083	;# 
  1541   000FF3                     PRODL           equ	4083	;# 
  1542   000FF4                     PRODH           equ	4084	;# 
  1543   000FF5                     TABLAT          equ	4085	;# 
  1544   000FF6                     TBLPTR          equ	4086	;# 
  1545   000FF6                     TBLPTRL         equ	4086	;# 
  1546   000FF7                     TBLPTRH         equ	4087	;# 
  1547   000FF8                     TBLPTRU         equ	4088	;# 
  1548   000FF9                     PCLAT           equ	4089	;# 
  1549   000FF9                     PC              equ	4089	;# 
  1550   000FF9                     PCL             equ	4089	;# 
  1551   000FFA                     PCLATH          equ	4090	;# 
  1552   000FFB                     PCLATU          equ	4091	;# 
  1553   000FFC                     STKPTR          equ	4092	;# 
  1554   000FFD                     TOS             equ	4093	;# 
  1555   000FFD                     TOSL            equ	4093	;# 
  1556   000FFE                     TOSH            equ	4094	;# 
  1557   000FFF                     TOSU            equ	4095	;# 
  1558                           
  1559                           	psect	smallconst
  1560   000800                     __psmallconst:
  1561                           	callstack 0
  1562   000800  00                 	db	0
  1563   000801                     _i2c1_fsmStateTable:
  1564                           	callstack 0
  1565   000801  92                 	db	low _I2C1_DO_IDLE
  1566   000802  12                 	db	high _I2C1_DO_IDLE
  1567   000803  0C                 	db	low _I2C1_DO_SEND_ADR_READ
  1568   000804  12                 	db	high _I2C1_DO_SEND_ADR_READ
  1569   000805  FE                 	db	low _I2C1_DO_SEND_ADR_WRITE
  1570   000806  11                 	db	high _I2C1_DO_SEND_ADR_WRITE
  1571   000807  36                 	db	low _I2C1_DO_TX
  1572   000808  08                 	db	high _I2C1_DO_TX
  1573   000809  F6                 	db	low _I2C1_DO_RX
  1574   00080A  08                 	db	high _I2C1_DO_RX
  1575   00080B  38                 	db	low _I2C1_DO_RCEN
  1576   00080C  12                 	db	high _I2C1_DO_RCEN
  1577   00080D  A6                 	db	low _I2C1_DO_TX_EMPTY
  1578   00080E  0A                 	db	high _I2C1_DO_TX_EMPTY
  1579   00080F  8A                 	db	low _I2C1_DO_SEND_RESTART_READ
  1580   000810  12                 	db	high _I2C1_DO_SEND_RESTART_READ
  1581   000811  82                 	db	low _I2C1_DO_SEND_RESTART_WRITE
  1582   000812  12                 	db	high _I2C1_DO_SEND_RESTART_WRITE
  1583   000813  7A                 	db	low _I2C1_DO_SEND_RESTART
  1584   000814  12                 	db	high _I2C1_DO_SEND_RESTART
  1585   000815  72                 	db	low _I2C1_DO_SEND_STOP
  1586   000816  12                 	db	high _I2C1_DO_SEND_STOP
  1587   000817  6A                 	db	low _I2C1_DO_RX_ACK
  1588   000818  12                 	db	high _I2C1_DO_RX_ACK
  1589   000819  62                 	db	low _I2C1_DO_RX_NACK_STOP
  1590   00081A  12                 	db	high _I2C1_DO_RX_NACK_STOP
  1591   00081B  5A                 	db	low _I2C1_DO_RX_NACK_RESTART
  1592   00081C  12                 	db	high _I2C1_DO_RX_NACK_RESTART
  1593   00081D  52                 	db	low _I2C1_DO_RESET
  1594   00081E  12                 	db	high _I2C1_DO_RESET
  1595   00081F  86                 	db	low _I2C1_DO_ADDRESS_NACK
  1596   000820  0B                 	db	high _I2C1_DO_ADDRESS_NACK
  1597   000821                     __end_of_i2c1_fsmStateTable:
  1598                           	callstack 0
  1599   000F5B                     _ANSELA         set	3931
  1600   000F5C                     _ANSELB         set	3932
  1601   000F5D                     _ANSELC         set	3933
  1602   000FB5                     _ACTCON         set	4021
  1603   000F9B                     _OSCTUNE        set	3995
  1604   000FD2                     _OSCCON2        set	4050
  1605   000FD3                     _OSCCON         set	4051
  1606   000FC7                     _SSP1STATbits   set	4039
  1607   000FC5                     _SSP1CON2bits   set	4037
  1608   000FC9                     _SSP1BUF        set	4041
  1609   000FC6                     _SSP1CON1bits   set	4038
  1610   000FC8                     _SSP1ADD        set	4040
  1611   000FC5                     _SSP1CON2       set	4037
  1612   000FC6                     _SSP1CON1       set	4038
  1613   000FC7                     _SSP1STAT       set	4039
  1614   000F82                     _PORTCbits      set	3970
  1615   000F94                     _TRISCbits      set	3988
  1616   000F9E                     _PIR1bits       set	3998
  1617   000F9D                     _PIE1bits       set	3997
  1618   000FA1                     _PIR2bits       set	4001
  1619   000FA0                     _PIE2bits       set	4000
  1620   000FD0                     _RCONbits       set	4048
  1621   000FF2                     _INTCONbits     set	4082
  1622   000FF1                     _INTCON2bits    set	4081
  1623   000F85                     _WPUB           set	3973
  1624   000F94                     _TRISC          set	3988
  1625   000F93                     _TRISB          set	3987
  1626   000F92                     _TRISA          set	3986
  1627   000F8B                     _LATC           set	3979
  1628   000F8A                     _LATB           set	3978
  1629   000F89                     _LATA           set	3977
  1630   000821                     STR_1:
  1631   000821  50                 	db	80	;'P'
  1632   000822  72                 	db	114	;'r'
  1633   000823  6F                 	db	111	;'o'
  1634   000824  62                 	db	98	;'b'
  1635   000825  61                 	db	97	;'a'
  1636   000826  6E                 	db	110	;'n'
  1637   000827  64                 	db	100	;'d'
  1638   000828  6F                 	db	111	;'o'
  1639   000829  2E                 	db	46
  1640   00082A  2E                 	db	46
  1641   00082B  2E                 	db	46
  1642   00082C  00                 	db	0
  1643   00082D                     STR_2:
  1644   00082D  4C                 	db	76	;'L'
  1645   00082E  43                 	db	67	;'C'
  1646   00082F  44                 	db	68	;'D'
  1647   000830  2E                 	db	46
  1648   000831  2E                 	db	46
  1649   000832  2E                 	db	46
  1650   000833  00                 	db	0
  1651   000834  00                 	db	0	; dummy byte at the end
  1652   000002                     __activetblptr  equ	2
  1653                           
  1654                           ; #config settings
  1655                           
  1656                           	psect	cinit
  1657   001178                     __pcinit:
  1658                           	callstack 0
  1659   001178                     start_initialization:
  1660                           	callstack 0
  1661   001178                     __initialization:
  1662                           	callstack 0
  1663                           
  1664                           ; Clear objects allocated to COMRAM (34 bytes)
  1665   001178  EE00  F027         	lfsr	0,__pbssCOMRAM
  1666   00117C  0E22               	movlw	34
  1667   00117E                     clear_0:
  1668   00117E  6AEE               	clrf	postinc0,c
  1669   001180  06E8               	decf	wreg,f,c
  1670   001182  E1FD               	bnz	clear_0
  1671   001184                     end_of_initialization:
  1672                           	callstack 0
  1673   001184                     __end_of__initialization:
  1674                           	callstack 0
  1675   001184  9049               	bcf	int$flags,0,c	;clear compiler interrupt flag (level 1)
  1676   001186  9249               	bcf	int$flags,1,c	;clear compiler interrupt flag (level 2)
  1677   001188  0E00               	movlw	low (__Lmediumconst shr (0+16))
  1678   00118A  6EF8               	movwf	tblptru,c
  1679   00118C  0100               	movlb	0
  1680   00118E  EFCC  F004         	goto	_main	;jump to C main() function
  1681                           
  1682                           	psect	bssCOMRAM
  1683   000027                     __pbssCOMRAM:
  1684                           	callstack 0
  1685   000027                     _I2C1_Status:
  1686                           	callstack 0
  1687   000027                     	ds	30
  1688   000045                     _MSSP1_InterruptHandler:
  1689                           	callstack 0
  1690   000045                     	ds	2
  1691   000047                     _display_cursor_blink:
  1692                           	callstack 0
  1693   000047                     	ds	1
  1694   000048                     _pcf_port:
  1695                           	callstack 0
  1696   000048                     	ds	1
  1697                           
  1698                           	psect	cstackBANK0
  1699   000060                     __pcstackBANK0:
  1700                           	callstack 0
  1701   000060                     ??_lcd_command:
  1702   000060                     ??_lcd_writeletter:
  1703                           
  1704                           ; 1 bytes @ 0x0
  1705   000060                     	ds	1
  1706   000061                     lcd_writeletter@letter:
  1707                           	callstack 0
  1708   000061                     lcd_command@command:
  1709                           	callstack 0
  1710                           
  1711                           ; 1 bytes @ 0x1
  1712   000061                     	ds	1
  1713   000062                     lcd_go@column:
  1714                           	callstack 0
  1715   000062                     ??_lcd_start:
  1716                           
  1717                           ; 1 bytes @ 0x2
  1718   000062                     	ds	1
  1719   000063                     lcd_go@line:
  1720                           	callstack 0
  1721                           
  1722                           ; 1 bytes @ 0x3
  1723   000063                     	ds	1
  1724   000064                     lcd_go@temp:
  1725                           	callstack 0
  1726                           
  1727                           ; 1 bytes @ 0x4
  1728   000064                     	ds	1
  1729   000065                     lcd_writemessage@column:
  1730                           	callstack 0
  1731                           
  1732                           ; 1 bytes @ 0x5
  1733   000065                     	ds	1
  1734   000066                     lcd_writemessage@message:
  1735                           	callstack 0
  1736                           
  1737                           ; 1 bytes @ 0x6
  1738   000066                     	ds	1
  1739   000067                     lcd_writemessage@line:
  1740                           	callstack 0
  1741                           
  1742                           ; 1 bytes @ 0x7
  1743   000067                     	ds	1
  1744   000068                     ??_main:
  1745                           
  1746                           ; 1 bytes @ 0x8
  1747   000068                     	ds	2
  1748                           
  1749                           	psect	cstackCOMRAM
  1750   000001                     __pcstackCOMRAM:
  1751                           	callstack 0
  1752   000001                     I2C1_MasterSendTxData@data:
  1753                           	callstack 0
  1754   000001                     i2I2C1_SetBuffer@buffer:
  1755                           	callstack 0
  1756   000001                     i2I2C1_SetCallback@cb:
  1757                           	callstack 0
  1758   000001                     
  1759                           ; 1 bytes @ 0x0
  1760   000001                     	ds	1
  1761   000002                     
  1762                           ; 1 bytes @ 0x1
  1763   000002                     	ds	1
  1764   000003                     i2I2C1_SetCallback@ptr:
  1765                           	callstack 0
  1766   000003                     i2I2C1_SetBuffer@bufferSize:
  1767                           	callstack 0
  1768                           
  1769                           ; 2 bytes @ 0x2
  1770   000003                     	ds	1
  1771   000004                     i2I2C1_SetCallback@idx:
  1772                           	callstack 0
  1773   000004                     
  1774                           ; 1 bytes @ 0x3
  1775   000004                     	ds	1
  1776   000005                     I2C1_SetDataCompleteCallback@cb:
  1777                           	callstack 0
  1778   000005                     
  1779                           ; 1 bytes @ 0x4
  1780   000005                     	ds	2
  1781   000007                     I2C1_SetDataCompleteCallback@ptr:
  1782                           	callstack 0
  1783                           
  1784                           ; 1 bytes @ 0x6
  1785   000007                     	ds	1
  1786   000008                     wr1RegCompleteHandler@p:
  1787                           	callstack 0
  1788   000008                     rd1RegCompleteHandler@p:
  1789                           	callstack 0
  1790   000008                     rd2RegCompleteHandler@p:
  1791                           	callstack 0
  1792   000008                     wr2RegCompleteHandler@p:
  1793                           	callstack 0
  1794   000008                     rdBlkRegCompleteHandler@p:
  1795                           	callstack 0
  1796   000008                     rd1RegCompleteHandler@i2c1_master_example$F1566@ptr:
  1797                           	callstack 0
  1798   000008                     rd2RegCompleteHandler@i2c1_master_example$F1577@ptr:
  1799                           	callstack 0
  1800   000008                     wr1RegCompleteHandler@i2c1_master_example$F1583@ptr:
  1801                           	callstack 0
  1802   000008                     wr2RegCompleteHandler@i2c1_master_example$F1589@ptr:
  1803                           	callstack 0
  1804   000008                     rdBlkRegCompleteHandler@i2c1_master_example$F1600@ptr:
  1805                           	callstack 0
  1806   000008                     
  1807                           ; 1 bytes @ 0x7
  1808   000008                     	ds	1
  1809   000009                     ??_rdBlkRegCompleteHandler:
  1810   000009                     ??_rdBlkRegCompleteHandler@xxtofl$F2282:
  1811                           
  1812                           ; 1 bytes @ 0x8
  1813   000009                     	ds	1
  1814   00000A                     ??_I2C1_DO_TX:
  1815   00000A                     ??_I2C1_DO_RX:
  1816   00000A                     ??_I2C1_DO_TX_EMPTY:
  1817   00000A                     ??_I2C1_DO_ADDRESS_NACK:
  1818                           
  1819                           ; 1 bytes @ 0x9
  1820   00000A                     	ds	2
  1821   00000C                     ??_I2C1_MasterFsm:
  1822                           
  1823                           ; 1 bytes @ 0xB
  1824   00000C                     	ds	1
  1825   00000D                     ??_INTERRUPT_InterruptManager:
  1826                           
  1827                           ; 1 bytes @ 0xC
  1828   00000D                     	ds	10
  1829   000017                     I2C1_Close@returnValue:
  1830                           	callstack 0
  1831   000017                     I2C1_MasterOperation@read:
  1832                           	callstack 0
  1833   000017                     I2C1_SetBuffer@buffer:
  1834                           	callstack 0
  1835   000017                     I2C1_SetInterruptHandler@InterruptHandler:
  1836                           	callstack 0
  1837   000017                     I2C1_SetCallback@cb:
  1838                           	callstack 0
  1839   000017                     
  1840                           ; 1 bytes @ 0x16
  1841   000017                     	ds	1
  1842   000018                     I2C1_MasterOperation@returnValue:
  1843                           	callstack 0
  1844                           
  1845                           ; 1 bytes @ 0x17
  1846   000018                     	ds	1
  1847   000019                     I2C1_Open@address:
  1848                           	callstack 0
  1849   000019                     I2C1_SetCallback@ptr:
  1850                           	callstack 0
  1851   000019                     I2C1_SetBuffer@bufferSize:
  1852                           	callstack 0
  1853   000019                     
  1854                           ; 1 bytes @ 0x18
  1855   000019                     	ds	1
  1856   00001A                     I2C1_Open@returnValue:
  1857                           	callstack 0
  1858   00001A                     I2C1_SetCallback@idx:
  1859                           	callstack 0
  1860   00001A                     
  1861                           ; 1 bytes @ 0x19
  1862   00001A                     	ds	1
  1863   00001B                     I2C1_SetAddressNackCallback@cb:
  1864                           	callstack 0
  1865   00001B                     
  1866                           ; 1 bytes @ 0x1A
  1867   00001B                     	ds	2
  1868   00001D                     I2C1_SetAddressNackCallback@ptr:
  1869                           	callstack 0
  1870                           
  1871                           ; 2 bytes @ 0x1C
  1872   00001D                     	ds	2
  1873   00001F                     i2c_writeNBytes@data:
  1874                           	callstack 0
  1875   00001F                     
  1876                           ; 1 bytes @ 0x1E
  1877   00001F                     	ds	2
  1878   000021                     i2c_writeNBytes@len:
  1879                           	callstack 0
  1880                           
  1881                           ; 2 bytes @ 0x20
  1882   000021                     	ds	2
  1883   000023                     i2c_writeNBytes@address:
  1884                           	callstack 0
  1885   000023                     
  1886                           ; 1 bytes @ 0x22
  1887   000023                     	ds	1
  1888   000024                     pcf8574_write_wEnable@writeBuffer:
  1889                           	callstack 0
  1890   000024                     ??_pcf8574_write:
  1891   000024                     
  1892                           ; 1 bytes @ 0x23
  1893   000024                     	ds	2
  1894   000026                     pcf8574_write@data:
  1895                           	callstack 0
  1896                           
  1897                           ; 1 bytes @ 0x25
  1898   000026                     	ds	1
  1899   000027                     
  1900                           ; 1 bytes @ 0x26
  1901 ;;
  1902 ;;Main: autosize = 0, tempsize = 2, incstack = 0, save=0
  1903 ;;
  1904 ;; *************** function _main *****************
  1905 ;; Defined at:
  1906 ;;		line 50 in file "main.c"
  1907 ;; Parameters:    Size  Location     Type
  1908 ;;		None
  1909 ;; Auto vars:     Size  Location     Type
  1910 ;;		None
  1911 ;; Return value:  Size  Location     Type
  1912 ;;                  1    wreg      void 
  1913 ;; Registers used:
  1914 ;;		wreg, fsr2l, fsr2h, status,2, status,0, tblptrl, tblptrh, tblptru, prodl, prodh, cstack
  1915 ;; Tracked objects:
  1916 ;;		On entry : 0/0
  1917 ;;		On exit  : 0/0
  1918 ;;		Unchanged: 0/0
  1919 ;; Data sizes:     COMRAM   BANK0   BANK1   BANK2   BANK3   BANK4   BANK5   BANK6   BANK7
  1920 ;;      Params:         0       0       0       0       0       0       0       0       0
  1921 ;;      Locals:         0       0       0       0       0       0       0       0       0
  1922 ;;      Temps:          0       2       0       0       0       0       0       0       0
  1923 ;;      Totals:         0       2       0       0       0       0       0       0       0
  1924 ;;Total ram usage:        2 bytes
  1925 ;; Hardware stack levels required when called: 15
  1926 ;; This function calls:
  1927 ;;		_SYSTEM_Initialize
  1928 ;;		_lcd_delete
  1929 ;;		_lcd_start
  1930 ;;		_lcd_writemessage
  1931 ;; This function is called by:
  1932 ;;		Startup code after reset
  1933 ;; This function uses a non-reentrant model
  1934 ;;
  1935                           
  1936                           	psect	text0
  1937   000998                     __ptext0:
  1938                           	callstack 0
  1939   000998                     _main:
  1940                           	callstack 16
  1941   000998                     
  1942                           ;main.c: 53:     SYSTEM_Initialize();
  1943   000998  ECE7  F008         	call	_SYSTEM_Initialize	;wreg free
  1944   00099C                     
  1945                           ;main.c: 60:     (INTCONbits.GIE = 1);
  1946   00099C  8EF2               	bsf	242,7,c	;volatile
  1947   00099E                     
  1948                           ;main.c: 66:     (INTCONbits.PEIE = 1);
  1949   00099E  8CF2               	bsf	242,6,c	;volatile
  1950   0009A0                     
  1951                           ;main.c: 70:     _delay((unsigned long)((500)*(16000000/4000.0)));
  1952   0009A0  0E0B               	movlw	11
  1953   0009A2  0100               	movlb	0	; () banked
  1954   0009A4  6F69               	movwf	(??_main+1)& (0+255),b
  1955   0009A6  0E26               	movlw	38
  1956   0009A8  6F68               	movwf	??_main& (0+255),b
  1957   0009AA  0E5D               	movlw	93
  1958   0009AC                     u1597:
  1959   0009AC  2EE8               	decfsz	wreg,f,c
  1960   0009AE  D7FE               	bra	u1597
  1961   0009B0  2F68               	decfsz	??_main& (0+255),f,b
  1962   0009B2  D7FC               	bra	u1597
  1963   0009B4  2F69               	decfsz	(??_main+1)& (0+255),f,b
  1964   0009B6  D7FA               	bra	u1597
  1965   0009B8  D000               	nop2	
  1966   0009BA                     
  1967                           ;main.c: 71:     lcd_start();
  1968   0009BA  ECF6  F005         	call	_lcd_start	;wreg free
  1969   0009BE                     
  1970                           ;main.c: 73:     ANSELC = 0;
  1971   0009BE  010F               	movlb	15	; () banked
  1972   0009C0  6B5D               	clrf	93,b	;volatile
  1973   0009C2                     
  1974                           ; BSR set to: 15
  1975                           ;main.c: 74:     TRISCbits.TRISC2 = 0;
  1976   0009C2  9494               	bcf	148,2,c	;volatile
  1977   0009C4  0000               	nop		;# 
  1978   0009C6                     l3636:
  1979                           
  1980                           ;main.c: 77:     {;main.c: 79:         _delay((unsigned long)((2000)*(16000000/4000.0)))
      +                          ;
  1981   0009C6  0E29               	movlw	41
  1982   0009C8  0100               	movlb	0	; () banked
  1983   0009CA  6F69               	movwf	(??_main+1)& (0+255),b
  1984   0009CC  0E96               	movlw	150
  1985   0009CE  6F68               	movwf	??_main& (0+255),b
  1986   0009D0  0E7F               	movlw	127
  1987   0009D2                     u1607:
  1988   0009D2  2EE8               	decfsz	wreg,f,c
  1989   0009D4  D7FE               	bra	u1607
  1990   0009D6  2F68               	decfsz	??_main& (0+255),f,b
  1991   0009D8  D7FC               	bra	u1607
  1992   0009DA  2F69               	decfsz	(??_main+1)& (0+255),f,b
  1993   0009DC  D7FA               	bra	u1607
  1994   0009DE                     
  1995                           ;main.c: 80:         lcd_delete();
  1996   0009DE  EC21  F009         	call	_lcd_delete	;wreg free
  1997   0009E2                     
  1998                           ;main.c: 81:         PORTCbits.RC2 = 1;
  1999   0009E2  8482               	bsf	130,2,c	;volatile
  2000   0009E4                     
  2001                           ;main.c: 82:         lcd_writemessage(1,1,"Probando...");
  2002   0009E4  0E01               	movlw	1
  2003   0009E6  0100               	movlb	0	; () banked
  2004   0009E8  6F65               	movwf	lcd_writemessage@column& (0+255),b
  2005   0009EA  0E21               	movlw	low STR_1
  2006   0009EC  6F66               	movwf	lcd_writemessage@message& (0+255),b
  2007   0009EE  0E01               	movlw	1
  2008   0009F0  EC30  F007         	call	_lcd_writemessage
  2009   0009F4                     
  2010                           ;main.c: 83:         _delay((unsigned long)((2000)*(16000000/4000.0)));
  2011   0009F4  0E29               	movlw	41
  2012   0009F6  0100               	movlb	0	; () banked
  2013   0009F8  6F69               	movwf	(??_main+1)& (0+255),b
  2014   0009FA  0E96               	movlw	150
  2015   0009FC  6F68               	movwf	??_main& (0+255),b
  2016   0009FE  0E7F               	movlw	127
  2017   000A00                     u1617:
  2018   000A00  2EE8               	decfsz	wreg,f,c
  2019   000A02  D7FE               	bra	u1617
  2020   000A04  2F68               	decfsz	??_main& (0+255),f,b
  2021   000A06  D7FC               	bra	u1617
  2022   000A08  2F69               	decfsz	(??_main+1)& (0+255),f,b
  2023   000A0A  D7FA               	bra	u1617
  2024   000A0C                     
  2025                           ;main.c: 84:         lcd_delete();
  2026   000A0C  EC21  F009         	call	_lcd_delete	;wreg free
  2027   000A10                     
  2028                           ;main.c: 85:         lcd_writemessage(1,1,"LCD...");
  2029   000A10  0E01               	movlw	1
  2030   000A12  0100               	movlb	0	; () banked
  2031   000A14  6F65               	movwf	lcd_writemessage@column& (0+255),b
  2032   000A16  0E2D               	movlw	low STR_2
  2033   000A18  6F66               	movwf	lcd_writemessage@message& (0+255),b
  2034   000A1A  0E01               	movlw	1
  2035   000A1C  EC30  F007         	call	_lcd_writemessage
  2036   000A20                     
  2037                           ;main.c: 86:         PORTCbits.RC2 = 0;
  2038   000A20  9482               	bcf	130,2,c	;volatile
  2039   000A22  EFE3  F004         	goto	l3636
  2040   000A26  EF63  F000         	goto	start
  2041   000A2A                     __end_of_main:
  2042                           	callstack 0
  2043                           
  2044 ;; *************** function _lcd_writemessage *****************
  2045 ;; Defined at:
  2046 ;;		line 146 in file "seri_lcd.c"
  2047 ;; Parameters:    Size  Location     Type
  2048 ;;  line            1    wreg     unsigned char 
  2049 ;;  column          1    5[BANK0 ] unsigned char 
  2050 ;;  message         1    6[BANK0 ] PTR const unsigned char 
  2051 ;;		 -> STR_2(7), STR_1(12), 
  2052 ;; Auto vars:     Size  Location     Type
  2053 ;;  line            1    7[BANK0 ] unsigned char 
  2054 ;; Return value:  Size  Location     Type
  2055 ;;                  1    wreg      void 
  2056 ;; Registers used:
  2057 ;;		wreg, fsr2l, fsr2h, status,2, status,0, tblptrl, tblptrh, tblptru, prodl, prodh, cstack
  2058 ;; Tracked objects:
  2059 ;;		On entry : 0/0
  2060 ;;		On exit  : 0/0
  2061 ;;		Unchanged: 0/0
  2062 ;; Data sizes:     COMRAM   BANK0   BANK1   BANK2   BANK3   BANK4   BANK5   BANK6   BANK7
  2063 ;;      Params:         0       2       0       0       0       0       0       0       0
  2064 ;;      Locals:         0       1       0       0       0       0       0       0       0
  2065 ;;      Temps:          0       0       0       0       0       0       0       0       0
  2066 ;;      Totals:         0       3       0       0       0       0       0       0       0
  2067 ;;Total ram usage:        3 bytes
  2068 ;; Hardware stack levels used: 1
  2069 ;; Hardware stack levels required when called: 14
  2070 ;; This function calls:
  2071 ;;		_lcd_go
  2072 ;;		_lcd_writeletter
  2073 ;; This function is called by:
  2074 ;;		_main
  2075 ;; This function uses a non-reentrant model
  2076 ;;
  2077                           
  2078                           	psect	text1
  2079   000E60                     __ptext1:
  2080                           	callstack 0
  2081   000E60                     _lcd_writemessage:
  2082                           	callstack 16
  2083                           
  2084                           ;incstack = 0
  2085                           ;lcd_writemessage@line stored from wreg
  2086   000E60  0100               	movlb	0	; () banked
  2087   000E62  6F67               	movwf	lcd_writemessage@line& (0+255),b
  2088   000E64                     
  2089                           ;seri_lcd.c: 147:     lcd_go(line, column);
  2090   000E64  C065  F062         	movff	lcd_writemessage@column,lcd_go@column
  2091   000E68  0100               	movlb	0	; () banked
  2092   000E6A  5167               	movf	lcd_writemessage@line& (0+255),w,b
  2093   000E6C  EC8F  F005         	call	_lcd_go
  2094   000E70                     l3524:
  2095                           
  2096                           ;seri_lcd.c: 149:         lcd_writeletter(*message++);
  2097   000E70  C066  FFF6         	movff	lcd_writemessage@message,tblptrl
  2098   000E74                     	if	1	;There is more than 1 active tblptr byte
  2099   000E74  0E08               	movlw	high __smallconst
  2100   000E76  6EF7               	movwf	tblptrh,c
  2101   000E78                     	endif
  2102   000E78                     	if	0	;tblptru may be non-zero
  2103   000E78                     	endif
  2104   000E78                     	if	0	;tblptru may be non-zero
  2105   000E78                     	endif
  2106   000E78  0008               	tblrd		*
  2107   000E7A  50F5               	movf	tablat,w,c
  2108   000E7C  EC0B  F007         	call	_lcd_writeletter
  2109   000E80  0100               	movlb	0	; () banked
  2110   000E82  2B66               	incf	lcd_writemessage@message& (0+255),f,b
  2111   000E84                     
  2112                           ; BSR set to: 0
  2113                           ;seri_lcd.c: 150:     } while (*message);
  2114   000E84  C066  FFF6         	movff	lcd_writemessage@message,tblptrl
  2115   000E88                     	if	1	;There is more than 1 active tblptr byte
  2116   000E88  0E08               	movlw	high __smallconst
  2117   000E8A  6EF7               	movwf	tblptrh,c
  2118   000E8C                     	endif
  2119   000E8C                     	if	0	;tblptru may be non-zero
  2120   000E8C                     	endif
  2121   000E8C                     	if	0	;tblptru may be non-zero
  2122   000E8C                     	endif
  2123   000E8C  0008               	tblrd		*
  2124   000E8E  50F5               	movf	tablat,w,c
  2125   000E90  0900               	iorlw	0
  2126   000E92  A4D8               	btfss	status,2,c
  2127   000E94  EF4E  F007         	goto	u1281
  2128   000E98  EF50  F007         	goto	u1280
  2129   000E9C                     u1281:
  2130   000E9C  EF38  F007         	goto	l3524
  2131   000EA0                     u1280:
  2132   000EA0                     
  2133                           ; BSR set to: 0
  2134   000EA0  0012               	return		;funcret
  2135   000EA2                     __end_of_lcd_writemessage:
  2136                           	callstack 0
  2137                           
  2138 ;; *************** function _lcd_writeletter *****************
  2139 ;; Defined at:
  2140 ;;		line 175 in file "seri_lcd.c"
  2141 ;; Parameters:    Size  Location     Type
  2142 ;;  letter          1    wreg     unsigned char 
  2143 ;; Auto vars:     Size  Location     Type
  2144 ;;  letter          1    1[BANK0 ] unsigned char 
  2145 ;; Return value:  Size  Location     Type
  2146 ;;                  1    wreg      void 
  2147 ;; Registers used:
  2148 ;;		wreg, fsr2l, fsr2h, status,2, status,0, prodl, prodh, cstack
  2149 ;; Tracked objects:
  2150 ;;		On entry : 0/0
  2151 ;;		On exit  : 0/0
  2152 ;;		Unchanged: 0/0
  2153 ;; Data sizes:     COMRAM   BANK0   BANK1   BANK2   BANK3   BANK4   BANK5   BANK6   BANK7
  2154 ;;      Params:         0       0       0       0       0       0       0       0       0
  2155 ;;      Locals:         0       1       0       0       0       0       0       0       0
  2156 ;;      Temps:          0       1       0       0       0       0       0       0       0
  2157 ;;      Totals:         0       2       0       0       0       0       0       0       0
  2158 ;;Total ram usage:        2 bytes
  2159 ;; Hardware stack levels used: 1
  2160 ;; Hardware stack levels required when called: 12
  2161 ;; This function calls:
  2162 ;;		_lcd_busy
  2163 ;;		_pcf8574_write_wEnable
  2164 ;; This function is called by:
  2165 ;;		_lcd_writemessage
  2166 ;;		_lcd_writemessage_cp
  2167 ;;		_lcd_specialcharacter
  2168 ;; This function uses a non-reentrant model
  2169 ;;
  2170                           
  2171                           	psect	text2
  2172   000E16                     __ptext2:
  2173                           	callstack 0
  2174   000E16                     _lcd_writeletter:
  2175                           	callstack 17
  2176                           
  2177                           ; BSR set to: 0
  2178                           ;incstack = 0
  2179                           ;lcd_writeletter@letter stored from wreg
  2180   000E16  0100               	movlb	0	; () banked
  2181   000E18  6F61               	movwf	lcd_writeletter@letter& (0+255),b
  2182   000E1A                     
  2183                           ;seri_lcd.c: 176:     lcd_busy();
  2184   000E1A  EC17  F009         	call	_lcd_busy	;wreg free
  2185   000E1E                     
  2186                           ;seri_lcd.c: 177:     pcf_port.lcd.RS = 1;
  2187   000E1E  8048               	bsf	_pcf_port^0,0,c
  2188   000E20                     
  2189                           ;seri_lcd.c: 179:     pcf_port.port = (pcf_port.port & 0x0f) | (letter & 0xf0);
  2190   000E20  C061  F060         	movff	lcd_writeletter@letter,??_lcd_writeletter
  2191   000E24  0EF0               	movlw	240
  2192   000E26  0100               	movlb	0	; () banked
  2193   000E28  1760               	andwf	??_lcd_writeletter& (0+255),f,b
  2194   000E2A  5048               	movf	_pcf_port^0,w,c
  2195   000E2C  0B0F               	andlw	15
  2196   000E2E  1160               	iorwf	??_lcd_writeletter& (0+255),w,b
  2197   000E30  6E48               	movwf	_pcf_port^0,c
  2198   000E32                     
  2199                           ; BSR set to: 0
  2200                           ;seri_lcd.c: 180:     pcf8574_write_wEnable();
  2201   000E32  ECBE  F007         	call	_pcf8574_write_wEnable	;wreg free
  2202   000E36                     
  2203                           ;seri_lcd.c: 181:     _delay((unsigned long)((200)*(16000000/4000000.0)));
  2204   000E36  0EA0               	movlw	160
  2205   000E38                     u1627:
  2206   000E38  D000               	nop2	
  2207   000E3A  2EE8               	decfsz	wreg,f,c
  2208   000E3C  D7FD               	bra	u1627
  2209   000E3E                     
  2210                           ;seri_lcd.c: 183:     pcf_port.port = (pcf_port.port & 0x0f) | (letter << 4);
  2211   000E3E  C061  F060         	movff	lcd_writeletter@letter,??_lcd_writeletter
  2212   000E42  0100               	movlb	0	; () banked
  2213   000E44  3B60               	swapf	??_lcd_writeletter& (0+255),f,b
  2214   000E46  0EF0               	movlw	240
  2215   000E48  1760               	andwf	??_lcd_writeletter& (0+255),f,b
  2216   000E4A  5048               	movf	_pcf_port^0,w,c
  2217   000E4C  0B0F               	andlw	15
  2218   000E4E  1160               	iorwf	??_lcd_writeletter& (0+255),w,b
  2219   000E50  6E48               	movwf	_pcf_port^0,c
  2220   000E52                     
  2221                           ; BSR set to: 0
  2222                           ;seri_lcd.c: 184:     pcf8574_write_wEnable();
  2223   000E52  ECBE  F007         	call	_pcf8574_write_wEnable	;wreg free
  2224   000E56                     
  2225                           ;seri_lcd.c: 185:     _delay((unsigned long)((200)*(16000000/4000000.0)));
  2226   000E56  0EA0               	movlw	160
  2227   000E58                     u1637:
  2228   000E58  D000               	nop2	
  2229   000E5A  2EE8               	decfsz	wreg,f,c
  2230   000E5C  D7FD               	bra	u1637
  2231   000E5E  0012               	return		;funcret
  2232   000E60                     __end_of_lcd_writeletter:
  2233                           	callstack 0
  2234                           
  2235 ;; *************** function _lcd_go *****************
  2236 ;; Defined at:
  2237 ;;		line 122 in file "seri_lcd.c"
  2238 ;; Parameters:    Size  Location     Type
  2239 ;;  line            1    wreg     unsigned char 
  2240 ;;  column          1    2[BANK0 ] unsigned char 
  2241 ;; Auto vars:     Size  Location     Type
  2242 ;;  line            1    3[BANK0 ] unsigned char 
  2243 ;;  temp            1    4[BANK0 ] unsigned char 
  2244 ;; Return value:  Size  Location     Type
  2245 ;;                  1    wreg      void 
  2246 ;; Registers used:
  2247 ;;		wreg, fsr2l, fsr2h, status,2, status,0, prodl, prodh, cstack
  2248 ;; Tracked objects:
  2249 ;;		On entry : 0/0
  2250 ;;		On exit  : 0/0
  2251 ;;		Unchanged: 0/0
  2252 ;; Data sizes:     COMRAM   BANK0   BANK1   BANK2   BANK3   BANK4   BANK5   BANK6   BANK7
  2253 ;;      Params:         0       1       0       0       0       0       0       0       0
  2254 ;;      Locals:         0       2       0       0       0       0       0       0       0
  2255 ;;      Temps:          0       0       0       0       0       0       0       0       0
  2256 ;;      Totals:         0       3       0       0       0       0       0       0       0
  2257 ;;Total ram usage:        3 bytes
  2258 ;; Hardware stack levels used: 1
  2259 ;; Hardware stack levels required when called: 13
  2260 ;; This function calls:
  2261 ;;		_lcd_command
  2262 ;; This function is called by:
  2263 ;;		_lcd_writemessage
  2264 ;; This function uses a non-reentrant model
  2265 ;;
  2266                           
  2267                           	psect	text3
  2268   000B1E                     __ptext3:
  2269                           	callstack 0
  2270   000B1E                     _lcd_go:
  2271                           	callstack 16
  2272                           
  2273                           ;incstack = 0
  2274                           ;lcd_go@line stored from wreg
  2275   000B1E  0100               	movlb	0	; () banked
  2276   000B20  6F63               	movwf	lcd_go@line& (0+255),b
  2277   000B22                     
  2278                           ;seri_lcd.c: 123:     char temp;;seri_lcd.c: 124:     switch (line) {
  2279   000B22  EFA7  F005         	goto	l3470
  2280   000B26                     l3460:
  2281                           
  2282                           ; BSR set to: 0
  2283                           ;seri_lcd.c: 126:             temp = column - 1 + 0x80;
  2284   000B26  5162               	movf	lcd_go@column& (0+255),w,b
  2285   000B28  0F7F               	addlw	127
  2286   000B2A  6F64               	movwf	lcd_go@temp& (0+255),b
  2287                           
  2288                           ;seri_lcd.c: 127:             break;
  2289   000B2C  EFBB  F005         	goto	l3472
  2290   000B30                     l3462:
  2291                           
  2292                           ; BSR set to: 0
  2293                           ;seri_lcd.c: 129:             temp = column - 1 + 0xc0;
  2294   000B30  5162               	movf	lcd_go@column& (0+255),w,b
  2295   000B32  0FBF               	addlw	191
  2296   000B34  6F64               	movwf	lcd_go@temp& (0+255),b
  2297                           
  2298                           ;seri_lcd.c: 130:             break;
  2299   000B36  EFBB  F005         	goto	l3472
  2300   000B3A                     l3464:
  2301                           
  2302                           ; BSR set to: 0
  2303                           ;seri_lcd.c: 132:             temp = (column - 1 + 0x94);
  2304   000B3A  5162               	movf	lcd_go@column& (0+255),w,b
  2305   000B3C  0F93               	addlw	147
  2306   000B3E  6F64               	movwf	lcd_go@temp& (0+255),b
  2307                           
  2308                           ;seri_lcd.c: 133:             break;
  2309   000B40  EFBB  F005         	goto	l3472
  2310   000B44                     l3466:
  2311                           
  2312                           ; BSR set to: 0
  2313                           ;seri_lcd.c: 135:             temp = (column - 1 + 0xd4);
  2314   000B44  5162               	movf	lcd_go@column& (0+255),w,b
  2315   000B46  0FD3               	addlw	211
  2316   000B48  6F64               	movwf	lcd_go@temp& (0+255),b
  2317                           
  2318                           ;seri_lcd.c: 136:             break;
  2319   000B4A  EFBB  F005         	goto	l3472
  2320   000B4E                     l3470:
  2321   000B4E  0100               	movlb	0	; () banked
  2322   000B50  5163               	movf	lcd_go@line& (0+255),w,b
  2323                           
  2324                           ; Switch size 1, requested type "simple"
  2325                           ; Number of cases is 4, Range of values is 1 to 4
  2326                           ; switch strategies available:
  2327                           ; Name         Instructions Cycles
  2328                           ; simple_byte           13     7 (average)
  2329                           ;	Chosen strategy is simple_byte
  2330   000B52  0A01               	xorlw	1	; case 1
  2331   000B54  B4D8               	btfsc	status,2,c
  2332   000B56  EF93  F005         	goto	l3460
  2333   000B5A  0A03               	xorlw	3	; case 2
  2334   000B5C  B4D8               	btfsc	status,2,c
  2335   000B5E  EF98  F005         	goto	l3462
  2336   000B62  0A01               	xorlw	1	; case 3
  2337   000B64  B4D8               	btfsc	status,2,c
  2338   000B66  EF9D  F005         	goto	l3464
  2339   000B6A  0A07               	xorlw	7	; case 4
  2340   000B6C  B4D8               	btfsc	status,2,c
  2341   000B6E  EFA2  F005         	goto	l3466
  2342   000B72  EFBB  F005         	goto	l3472
  2343   000B76                     l3472:
  2344                           
  2345                           ; BSR set to: 0
  2346                           ;seri_lcd.c: 138:     lcd_command(temp);
  2347   000B76  5164               	movf	lcd_go@temp& (0+255),w,b
  2348   000B78  EC28  F006         	call	_lcd_command
  2349   000B7C                     
  2350                           ;seri_lcd.c: 139:     _delay((unsigned long)((100)*(16000000/4000000.0)));
  2351   000B7C  0E85               	movlw	133
  2352   000B7E                     u1647:
  2353   000B7E  2EE8               	decfsz	wreg,f,c
  2354   000B80  D7FE               	bra	u1647
  2355   000B82  0000               	nop	
  2356   000B84  0012               	return		;funcret
  2357   000B86                     __end_of_lcd_go:
  2358                           	callstack 0
  2359                           
  2360 ;; *************** function _lcd_start *****************
  2361 ;; Defined at:
  2362 ;;		line 96 in file "seri_lcd.c"
  2363 ;; Parameters:    Size  Location     Type
  2364 ;;		None
  2365 ;; Auto vars:     Size  Location     Type
  2366 ;;		None
  2367 ;; Return value:  Size  Location     Type
  2368 ;;                  1    wreg      void 
  2369 ;; Registers used:
  2370 ;;		wreg, fsr2l, fsr2h, status,2, status,0, prodl, prodh, cstack
  2371 ;; Tracked objects:
  2372 ;;		On entry : 0/0
  2373 ;;		On exit  : 0/0
  2374 ;;		Unchanged: 0/0
  2375 ;; Data sizes:     COMRAM   BANK0   BANK1   BANK2   BANK3   BANK4   BANK5   BANK6   BANK7
  2376 ;;      Params:         0       0       0       0       0       0       0       0       0
  2377 ;;      Locals:         0       0       0       0       0       0       0       0       0
  2378 ;;      Temps:          0       1       0       0       0       0       0       0       0
  2379 ;;      Totals:         0       1       0       0       0       0       0       0       0
  2380 ;;Total ram usage:        1 bytes
  2381 ;; Hardware stack levels used: 1
  2382 ;; Hardware stack levels required when called: 14
  2383 ;; This function calls:
  2384 ;;		_lcd_command
  2385 ;;		_lcd_delete
  2386 ;;		_lcd_lighting_ac
  2387 ;;		_pcf8574_write
  2388 ;;		_pcf8574_write_wEnable
  2389 ;; This function is called by:
  2390 ;;		_main
  2391 ;; This function uses a non-reentrant model
  2392 ;;
  2393                           
  2394                           	psect	text4
  2395   000BEC                     __ptext4:
  2396                           	callstack 0
  2397   000BEC                     _lcd_start:
  2398                           	callstack 16
  2399   000BEC                     
  2400                           ;seri_lcd.c: 98:     pcf8574_write(0x00);
  2401   000BEC  0E00               	movlw	0
  2402   000BEE  EC9D  F008         	call	_pcf8574_write
  2403   000BF2                     
  2404                           ;seri_lcd.c: 99:     pcf_port.port=0x00;
  2405   000BF2  6A48               	clrf	_pcf_port^0,c
  2406   000BF4                     
  2407                           ;seri_lcd.c: 101:     pcf_port.port = 0x20 | (pcf_port.port & 0x0f);
  2408   000BF4  5048               	movf	_pcf_port^0,w,c
  2409   000BF6  0B0F               	andlw	15
  2410   000BF8  0920               	iorlw	32
  2411   000BFA  6E48               	movwf	_pcf_port^0,c
  2412   000BFC                     
  2413                           ;seri_lcd.c: 103:     pcf8574_write_wEnable();
  2414   000BFC  ECBE  F007         	call	_pcf8574_write_wEnable	;wreg free
  2415   000C00                     
  2416                           ;seri_lcd.c: 104:     _delay((unsigned long)((5)*(16000000/4000.0)));
  2417   000C00  0E1A               	movlw	26
  2418   000C02  0100               	movlb	0	; () banked
  2419   000C04  6F62               	movwf	??_lcd_start& (0+255),b
  2420   000C06  0EF8               	movlw	248
  2421   000C08                     u1657:
  2422   000C08  2EE8               	decfsz	wreg,f,c
  2423   000C0A  D7FE               	bra	u1657
  2424   000C0C  2F62               	decfsz	??_lcd_start& (0+255),f,b
  2425   000C0E  D7FC               	bra	u1657
  2426   000C10  0000               	nop	
  2427   000C12                     
  2428                           ;seri_lcd.c: 106:     lcd_command(0x28);
  2429   000C12  0E28               	movlw	40
  2430   000C14  EC28  F006         	call	_lcd_command
  2431   000C18                     
  2432                           ;seri_lcd.c: 107:     _delay((unsigned long)((40)*(16000000/4000000.0)));
  2433   000C18  0E35               	movlw	53
  2434   000C1A                     u1667:
  2435   000C1A  2EE8               	decfsz	wreg,f,c
  2436   000C1C  D7FE               	bra	u1667
  2437   000C1E  0000               	nop	
  2438   000C20                     
  2439                           ;seri_lcd.c: 108:     lcd_command(0x0C);
  2440   000C20  0E0C               	movlw	12
  2441   000C22  EC28  F006         	call	_lcd_command
  2442   000C26                     
  2443                           ;seri_lcd.c: 109:     _delay((unsigned long)((40)*(16000000/4000000.0)));
  2444   000C26  0E35               	movlw	53
  2445   000C28                     u1677:
  2446   000C28  2EE8               	decfsz	wreg,f,c
  2447   000C2A  D7FE               	bra	u1677
  2448   000C2C  0000               	nop	
  2449   000C2E                     
  2450                           ;seri_lcd.c: 110:     lcd_command(0x06);
  2451   000C2E  0E06               	movlw	6
  2452   000C30  EC28  F006         	call	_lcd_command
  2453   000C34                     
  2454                           ;seri_lcd.c: 111:     _delay((unsigned long)((2)*(16000000/4000.0)));
  2455   000C34  0E0B               	movlw	11
  2456   000C36  0100               	movlb	0	; () banked
  2457   000C38  6F62               	movwf	??_lcd_start& (0+255),b
  2458   000C3A  0E62               	movlw	98
  2459   000C3C                     u1687:
  2460   000C3C  2EE8               	decfsz	wreg,f,c
  2461   000C3E  D7FE               	bra	u1687
  2462   000C40  2F62               	decfsz	??_lcd_start& (0+255),f,b
  2463   000C42  D7FC               	bra	u1687
  2464   000C44  0000               	nop	
  2465   000C46                     
  2466                           ;seri_lcd.c: 113:     lcd_delete();
  2467   000C46  EC21  F009         	call	_lcd_delete	;wreg free
  2468   000C4A                     
  2469                           ;seri_lcd.c: 114:     lcd_lighting_ac();
  2470   000C4A  EC0D  F009         	call	_lcd_lighting_ac	;wreg free
  2471   000C4E  0012               	return		;funcret
  2472   000C50                     __end_of_lcd_start:
  2473                           	callstack 0
  2474                           
  2475 ;; *************** function _lcd_lighting_ac *****************
  2476 ;; Defined at:
  2477 ;;		line 351 in file "seri_lcd.c"
  2478 ;; Parameters:    Size  Location     Type
  2479 ;;		None
  2480 ;; Auto vars:     Size  Location     Type
  2481 ;;		None
  2482 ;; Return value:  Size  Location     Type
  2483 ;;                  1    wreg      void 
  2484 ;; Registers used:
  2485 ;;		wreg, fsr2l, fsr2h, status,2, status,0, prodl, prodh, cstack
  2486 ;; Tracked objects:
  2487 ;;		On entry : 0/0
  2488 ;;		On exit  : 0/0
  2489 ;;		Unchanged: 0/0
  2490 ;; Data sizes:     COMRAM   BANK0   BANK1   BANK2   BANK3   BANK4   BANK5   BANK6   BANK7
  2491 ;;      Params:         0       0       0       0       0       0       0       0       0
  2492 ;;      Locals:         0       0       0       0       0       0       0       0       0
  2493 ;;      Temps:          0       0       0       0       0       0       0       0       0
  2494 ;;      Totals:         0       0       0       0       0       0       0       0       0
  2495 ;;Total ram usage:        0 bytes
  2496 ;; Hardware stack levels used: 1
  2497 ;; Hardware stack levels required when called: 12
  2498 ;; This function calls:
  2499 ;;		_pcf8574_write
  2500 ;; This function is called by:
  2501 ;;		_lcd_start
  2502 ;; This function uses a non-reentrant model
  2503 ;;
  2504                           
  2505                           	psect	text5
  2506   00121A                     __ptext5:
  2507                           	callstack 0
  2508   00121A                     _lcd_lighting_ac:
  2509                           	callstack 17
  2510   00121A                     
  2511                           ;seri_lcd.c: 353:     pcf_port.lcd.LED=1;
  2512   00121A  8648               	bsf	_pcf_port^0,3,c
  2513   00121C                     
  2514                           ;seri_lcd.c: 354:     pcf8574_write(pcf_port.port);
  2515   00121C  5048               	movf	_pcf_port^0,w,c
  2516   00121E  EC9D  F008         	call	_pcf8574_write
  2517   001222  0012               	return		;funcret
  2518   001224                     __end_of_lcd_lighting_ac:
  2519                           	callstack 0
  2520                           
  2521 ;; *************** function _pcf8574_write *****************
  2522 ;; Defined at:
  2523 ;;		line 28 in file "pcf8574.c"
  2524 ;; Parameters:    Size  Location     Type
  2525 ;;  data            1    wreg     unsigned char 
  2526 ;; Auto vars:     Size  Location     Type
  2527 ;;  data            1   37[COMRAM] unsigned char 
  2528 ;; Return value:  Size  Location     Type
  2529 ;;                  1    wreg      void 
  2530 ;; Registers used:
  2531 ;;		wreg, fsr2l, fsr2h, status,2, status,0, prodl, prodh, cstack
  2532 ;; Tracked objects:
  2533 ;;		On entry : 0/0
  2534 ;;		On exit  : 0/0
  2535 ;;		Unchanged: 0/0
  2536 ;; Data sizes:     COMRAM   BANK0   BANK1   BANK2   BANK3   BANK4   BANK5   BANK6   BANK7
  2537 ;;      Params:         0       0       0       0       0       0       0       0       0
  2538 ;;      Locals:         1       0       0       0       0       0       0       0       0
  2539 ;;      Temps:          2       0       0       0       0       0       0       0       0
  2540 ;;      Totals:         3       0       0       0       0       0       0       0       0
  2541 ;;Total ram usage:        3 bytes
  2542 ;; Hardware stack levels used: 1
  2543 ;; Hardware stack levels required when called: 11
  2544 ;; This function calls:
  2545 ;;		_i2c_writeNBytes
  2546 ;; This function is called by:
  2547 ;;		_lcd_start
  2548 ;;		_lcd_lighting_ac
  2549 ;;		_lcd_lighting_close
  2550 ;; This function uses a non-reentrant model
  2551 ;;
  2552                           
  2553                           	psect	text6
  2554   00113A                     __ptext6:
  2555                           	callstack 0
  2556   00113A                     _pcf8574_write:
  2557                           	callstack 18
  2558                           
  2559                           ;incstack = 0
  2560                           ;pcf8574_write@data stored from wreg
  2561   00113A  6E26               	movwf	pcf8574_write@data^0,c
  2562   00113C                     
  2563                           ;pcf8574.c: 40: i2c_writeNBytes(0x27,data, 1);
  2564   00113C  5026               	movf	pcf8574_write@data^0,w,c
  2565   00113E  6E24               	movwf	??_pcf8574_write^0,c
  2566   001140  6A25               	clrf	(??_pcf8574_write+1)^0,c
  2567   001142  C024  F01F         	movff	??_pcf8574_write,i2c_writeNBytes@data
  2568   001146  C025  F020         	movff	??_pcf8574_write+1,i2c_writeNBytes@data+1
  2569   00114A  0E00               	movlw	0
  2570   00114C  6E22               	movwf	(i2c_writeNBytes@len+1)^0,c
  2571   00114E  0E01               	movlw	1
  2572   001150  6E21               	movwf	i2c_writeNBytes@len^0,c
  2573   001152  0E27               	movlw	39
  2574   001154  EC86  F006         	call	_i2c_writeNBytes
  2575   001158  0012               	return		;funcret
  2576   00115A                     __end_of_pcf8574_write:
  2577                           	callstack 0
  2578                           
  2579 ;; *************** function _lcd_delete *****************
  2580 ;; Defined at:
  2581 ;;		line 235 in file "seri_lcd.c"
  2582 ;; Parameters:    Size  Location     Type
  2583 ;;		None
  2584 ;; Auto vars:     Size  Location     Type
  2585 ;;		None
  2586 ;; Return value:  Size  Location     Type
  2587 ;;                  1    wreg      void 
  2588 ;; Registers used:
  2589 ;;		wreg, fsr2l, fsr2h, status,2, status,0, prodl, prodh, cstack
  2590 ;; Tracked objects:
  2591 ;;		On entry : 0/0
  2592 ;;		On exit  : 0/0
  2593 ;;		Unchanged: 0/0
  2594 ;; Data sizes:     COMRAM   BANK0   BANK1   BANK2   BANK3   BANK4   BANK5   BANK6   BANK7
  2595 ;;      Params:         0       0       0       0       0       0       0       0       0
  2596 ;;      Locals:         0       0       0       0       0       0       0       0       0
  2597 ;;      Temps:          0       0       0       0       0       0       0       0       0
  2598 ;;      Totals:         0       0       0       0       0       0       0       0       0
  2599 ;;Total ram usage:        0 bytes
  2600 ;; Hardware stack levels used: 1
  2601 ;; Hardware stack levels required when called: 13
  2602 ;; This function calls:
  2603 ;;		_lcd_command
  2604 ;; This function is called by:
  2605 ;;		_main
  2606 ;;		_lcd_start
  2607 ;; This function uses a non-reentrant model
  2608 ;;
  2609                           
  2610                           	psect	text7
  2611   001242                     __ptext7:
  2612                           	callstack 0
  2613   001242                     _lcd_delete:
  2614                           	callstack 16
  2615   001242                     
  2616                           ;seri_lcd.c: 236:     lcd_command(0x01);
  2617   001242  0E01               	movlw	1
  2618   001244  EC28  F006         	call	_lcd_command
  2619   001248  0012               	return		;funcret
  2620   00124A                     __end_of_lcd_delete:
  2621                           	callstack 0
  2622                           
  2623 ;; *************** function _lcd_command *****************
  2624 ;; Defined at:
  2625 ;;		line 192 in file "seri_lcd.c"
  2626 ;; Parameters:    Size  Location     Type
  2627 ;;  command         1    wreg     unsigned char 
  2628 ;; Auto vars:     Size  Location     Type
  2629 ;;  command         1    1[BANK0 ] unsigned char 
  2630 ;; Return value:  Size  Location     Type
  2631 ;;                  1    wreg      void 
  2632 ;; Registers used:
  2633 ;;		wreg, fsr2l, fsr2h, status,2, status,0, prodl, prodh, cstack
  2634 ;; Tracked objects:
  2635 ;;		On entry : 0/0
  2636 ;;		On exit  : 0/0
  2637 ;;		Unchanged: 0/0
  2638 ;; Data sizes:     COMRAM   BANK0   BANK1   BANK2   BANK3   BANK4   BANK5   BANK6   BANK7
  2639 ;;      Params:         0       0       0       0       0       0       0       0       0
  2640 ;;      Locals:         0       1       0       0       0       0       0       0       0
  2641 ;;      Temps:          0       1       0       0       0       0       0       0       0
  2642 ;;      Totals:         0       2       0       0       0       0       0       0       0
  2643 ;;Total ram usage:        2 bytes
  2644 ;; Hardware stack levels used: 1
  2645 ;; Hardware stack levels required when called: 12
  2646 ;; This function calls:
  2647 ;;		_lcd_busy
  2648 ;;		_pcf8574_write_wEnable
  2649 ;; This function is called by:
  2650 ;;		_lcd_start
  2651 ;;		_lcd_go
  2652 ;;		_lcd_delete
  2653 ;;		_lcd_specialcharacter
  2654 ;;		_lcd_carriageret
  2655 ;;		_lcd_cursor_ac
  2656 ;;		_lcd_cursor_close
  2657 ;;		_lcd_display_ac
  2658 ;;		_lcd_display_close
  2659 ;;		_lcd_blink_ac
  2660 ;;		_lcd_blink_close
  2661 ;;		_lcd_left_record
  2662 ;;		_lcd_right_record
  2663 ;;		_lcd_line1
  2664 ;;		_lcd_line2
  2665 ;;		_lcd_line3
  2666 ;;		_lcd_line4
  2667 ;; This function uses a non-reentrant model
  2668 ;;
  2669                           
  2670                           	psect	text8
  2671   000C50                     __ptext8:
  2672                           	callstack 0
  2673   000C50                     _lcd_command:
  2674                           	callstack 16
  2675                           
  2676                           ;incstack = 0
  2677                           ;lcd_command@command stored from wreg
  2678   000C50  0100               	movlb	0	; () banked
  2679   000C52  6F61               	movwf	lcd_command@command& (0+255),b
  2680   000C54                     
  2681                           ;seri_lcd.c: 193:     lcd_busy();
  2682   000C54  EC17  F009         	call	_lcd_busy	;wreg free
  2683   000C58                     
  2684                           ;seri_lcd.c: 194:     pcf_port.lcd.RS = 0;
  2685   000C58  9048               	bcf	_pcf_port^0,0,c
  2686   000C5A                     
  2687                           ;seri_lcd.c: 196:     pcf_port.port = (pcf_port.port & 0x0f) | (command & 0xf0);
  2688   000C5A  C061  F060         	movff	lcd_command@command,??_lcd_command
  2689   000C5E  0EF0               	movlw	240
  2690   000C60  0100               	movlb	0	; () banked
  2691   000C62  1760               	andwf	??_lcd_command& (0+255),f,b
  2692   000C64  5048               	movf	_pcf_port^0,w,c
  2693   000C66  0B0F               	andlw	15
  2694   000C68  1160               	iorwf	??_lcd_command& (0+255),w,b
  2695   000C6A  6E48               	movwf	_pcf_port^0,c
  2696   000C6C                     
  2697                           ; BSR set to: 0
  2698                           ;seri_lcd.c: 197:     pcf8574_write_wEnable();
  2699   000C6C  ECBE  F007         	call	_pcf8574_write_wEnable	;wreg free
  2700   000C70                     
  2701                           ;seri_lcd.c: 198:     _delay((unsigned long)((5)*(16000000/4000.0)));
  2702   000C70  0E1A               	movlw	26
  2703   000C72  0100               	movlb	0	; () banked
  2704   000C74  6F60               	movwf	??_lcd_command& (0+255),b
  2705   000C76  0EF8               	movlw	248
  2706   000C78                     u1697:
  2707   000C78  2EE8               	decfsz	wreg,f,c
  2708   000C7A  D7FE               	bra	u1697
  2709   000C7C  2F60               	decfsz	??_lcd_command& (0+255),f,b
  2710   000C7E  D7FC               	bra	u1697
  2711   000C80  0000               	nop	
  2712   000C82                     
  2713                           ;seri_lcd.c: 200:     pcf_port.port = (pcf_port.port & 0x0f) | (command << 4);
  2714   000C82  C061  F060         	movff	lcd_command@command,??_lcd_command
  2715   000C86  0100               	movlb	0	; () banked
  2716   000C88  3B60               	swapf	??_lcd_command& (0+255),f,b
  2717   000C8A  0EF0               	movlw	240
  2718   000C8C  1760               	andwf	??_lcd_command& (0+255),f,b
  2719   000C8E  5048               	movf	_pcf_port^0,w,c
  2720   000C90  0B0F               	andlw	15
  2721   000C92  1160               	iorwf	??_lcd_command& (0+255),w,b
  2722   000C94  6E48               	movwf	_pcf_port^0,c
  2723   000C96                     
  2724                           ; BSR set to: 0
  2725                           ;seri_lcd.c: 201:     pcf8574_write_wEnable();
  2726   000C96  ECBE  F007         	call	_pcf8574_write_wEnable	;wreg free
  2727   000C9A                     
  2728                           ;seri_lcd.c: 202:     _delay((unsigned long)((5)*(16000000/4000.0)));
  2729   000C9A  0E1A               	movlw	26
  2730   000C9C  0100               	movlb	0	; () banked
  2731   000C9E  6F60               	movwf	??_lcd_command& (0+255),b
  2732   000CA0  0EF8               	movlw	248
  2733   000CA2                     u1707:
  2734   000CA2  2EE8               	decfsz	wreg,f,c
  2735   000CA4  D7FE               	bra	u1707
  2736   000CA6  2F60               	decfsz	??_lcd_command& (0+255),f,b
  2737   000CA8  D7FC               	bra	u1707
  2738   000CAA  0000               	nop	
  2739   000CAC  0012               	return		;funcret
  2740   000CAE                     __end_of_lcd_command:
  2741                           	callstack 0
  2742                           
  2743 ;; *************** function _pcf8574_write_wEnable *****************
  2744 ;; Defined at:
  2745 ;;		line 59 in file "seri_lcd.c"
  2746 ;; Parameters:    Size  Location     Type
  2747 ;;		None
  2748 ;; Auto vars:     Size  Location     Type
  2749 ;;  writeBuffer     3   35[COMRAM] unsigned char [3]
  2750 ;;  timeOut         2    0        unsigned short 
  2751 ;; Return value:  Size  Location     Type
  2752 ;;                  1    wreg      void 
  2753 ;; Registers used:
  2754 ;;		wreg, fsr2l, fsr2h, status,2, status,0, prodl, prodh, cstack
  2755 ;; Tracked objects:
  2756 ;;		On entry : 0/0
  2757 ;;		On exit  : 0/0
  2758 ;;		Unchanged: 0/0
  2759 ;; Data sizes:     COMRAM   BANK0   BANK1   BANK2   BANK3   BANK4   BANK5   BANK6   BANK7
  2760 ;;      Params:         0       0       0       0       0       0       0       0       0
  2761 ;;      Locals:         3       0       0       0       0       0       0       0       0
  2762 ;;      Temps:          0       0       0       0       0       0       0       0       0
  2763 ;;      Totals:         3       0       0       0       0       0       0       0       0
  2764 ;;Total ram usage:        3 bytes
  2765 ;; Hardware stack levels used: 1
  2766 ;; Hardware stack levels required when called: 11
  2767 ;; This function calls:
  2768 ;;		_i2c_writeNBytes
  2769 ;; This function is called by:
  2770 ;;		_lcd_start
  2771 ;;		_lcd_writeletter
  2772 ;;		_lcd_command
  2773 ;; This function uses a non-reentrant model
  2774 ;;
  2775                           
  2776                           	psect	text9
  2777   000F7C                     __ptext9:
  2778                           	callstack 0
  2779   000F7C                     _pcf8574_write_wEnable:
  2780                           	callstack 17
  2781   000F7C                     
  2782                           ;seri_lcd.c: 75:     uint8_t writeBuffer[3];;seri_lcd.c: 76:     uint16_t timeOut;;seri_
      +                          lcd.c: 78:     writeBuffer[0] = pcf_port.port;
  2783   000F7C  C048  F024         	movff	_pcf_port,pcf8574_write_wEnable@writeBuffer
  2784                           
  2785                           ;seri_lcd.c: 79:     pcf_port.lcd.E = 1;
  2786   000F80  8448               	bsf	_pcf_port^0,2,c
  2787                           
  2788                           ;seri_lcd.c: 80:     writeBuffer[1] = pcf_port.port;
  2789   000F82  C048  F025         	movff	_pcf_port,pcf8574_write_wEnable@writeBuffer+1
  2790                           
  2791                           ;seri_lcd.c: 81:     pcf_port.lcd.E = 0;
  2792   000F86  9448               	bcf	_pcf_port^0,2,c
  2793                           
  2794                           ;seri_lcd.c: 82:     writeBuffer[2] = pcf_port.port;
  2795   000F88  C048  F026         	movff	_pcf_port,pcf8574_write_wEnable@writeBuffer+2
  2796   000F8C                     
  2797                           ;seri_lcd.c: 84: i2c_writeNBytes(0x27, writeBuffer, 3);
  2798   000F8C  0E24               	movlw	low pcf8574_write_wEnable@writeBuffer
  2799   000F8E  6E1F               	movwf	i2c_writeNBytes@data^0,c
  2800   000F90  6A20               	clrf	(i2c_writeNBytes@data+1)^0,c
  2801   000F92  0E00               	movlw	0
  2802   000F94  6E22               	movwf	(i2c_writeNBytes@len+1)^0,c
  2803   000F96  0E03               	movlw	3
  2804   000F98  6E21               	movwf	i2c_writeNBytes@len^0,c
  2805   000F9A  0E27               	movlw	39
  2806   000F9C  EC86  F006         	call	_i2c_writeNBytes
  2807   000FA0  0012               	return		;funcret
  2808   000FA2                     __end_of_pcf8574_write_wEnable:
  2809                           	callstack 0
  2810                           
  2811 ;; *************** function _i2c_writeNBytes *****************
  2812 ;; Defined at:
  2813 ;;		line 71 in file "mcc_generated_files/drivers/i2c_simple_master.c"
  2814 ;; Parameters:    Size  Location     Type
  2815 ;;  address         1    wreg     unsigned char 
  2816 ;;  data            2   30[COMRAM] PTR void 
  2817 ;;		 -> pcf8574_write_wEnable@writeBuffer(3), RAM(2047), 
  2818 ;;  len             2   32[COMRAM] unsigned int 
  2819 ;; Auto vars:     Size  Location     Type
  2820 ;;  address         1   34[COMRAM] unsigned char 
  2821 ;; Return value:  Size  Location     Type
  2822 ;;                  1    wreg      void 
  2823 ;; Registers used:
  2824 ;;		wreg, fsr2l, fsr2h, status,2, status,0, prodl, prodh, cstack
  2825 ;; Tracked objects:
  2826 ;;		On entry : 0/0
  2827 ;;		On exit  : 0/0
  2828 ;;		Unchanged: 0/0
  2829 ;; Data sizes:     COMRAM   BANK0   BANK1   BANK2   BANK3   BANK4   BANK5   BANK6   BANK7
  2830 ;;      Params:         4       0       0       0       0       0       0       0       0
  2831 ;;      Locals:         1       0       0       0       0       0       0       0       0
  2832 ;;      Temps:          0       0       0       0       0       0       0       0       0
  2833 ;;      Totals:         5       0       0       0       0       0       0       0       0
  2834 ;;Total ram usage:        5 bytes
  2835 ;; Hardware stack levels used: 1
  2836 ;; Hardware stack levels required when called: 10
  2837 ;; This function calls:
  2838 ;;		_I2C1_Close
  2839 ;;		_I2C1_MasterWrite
  2840 ;;		_I2C1_Open
  2841 ;;		_I2C1_SetAddressNackCallback
  2842 ;;		_I2C1_SetBuffer
  2843 ;; This function is called by:
  2844 ;;		_pcf8574_write
  2845 ;;		_pcf8574_write_wEnable
  2846 ;; This function uses a non-reentrant model
  2847 ;;
  2848                           
  2849                           	psect	text10
  2850   000D0C                     __ptext10:
  2851                           	callstack 0
  2852   000D0C                     _i2c_writeNBytes:
  2853                           	callstack 17
  2854                           
  2855                           ;incstack = 0
  2856                           ;i2c_writeNBytes@address stored from wreg
  2857   000D0C  6E23               	movwf	i2c_writeNBytes@address^0,c
  2858   000D0E                     l3418:
  2859   000D0E  5023               	movf	i2c_writeNBytes@address^0,w,c
  2860   000D10  EC15  F005         	call	_I2C1_Open
  2861   000D14  0900               	iorlw	0
  2862   000D16  B4D8               	btfsc	status,2,c
  2863   000D18  EF90  F006         	goto	u1261
  2864   000D1C  EF92  F006         	goto	u1260
  2865   000D20                     u1261:
  2866   000D20  EF87  F006         	goto	l3418
  2867   000D24                     u1260:
  2868   000D24                     
  2869                           ;mcc_generated_files/drivers/i2c_simple_master.c: 74:     I2C1_SetBuffer(data,len);
  2870   000D24  C01F  F017         	movff	i2c_writeNBytes@data,I2C1_SetBuffer@buffer
  2871   000D28  C020  F018         	movff	i2c_writeNBytes@data+1,I2C1_SetBuffer@buffer+1
  2872   000D2C  C021  F019         	movff	i2c_writeNBytes@len,I2C1_SetBuffer@bufferSize
  2873   000D30  C022  F01A         	movff	i2c_writeNBytes@len+1,I2C1_SetBuffer@bufferSize+1
  2874   000D34  EC7B  F008         	call	_I2C1_SetBuffer	;wreg free
  2875   000D38                     
  2876                           ;mcc_generated_files/drivers/i2c_simple_master.c: 75:     I2C1_SetAddressNackCallback(((
      +                          void*)0),((void*)0));
  2877   000D38  0E00               	movlw	0
  2878   000D3A  6E1B               	movwf	I2C1_SetAddressNackCallback@cb^0,c
  2879   000D3C  0E00               	movlw	0
  2880   000D3E  6E1C               	movwf	(I2C1_SetAddressNackCallback@cb+1)^0,c
  2881   000D40  0E00               	movlw	0
  2882   000D42  6E1D               	movwf	I2C1_SetAddressNackCallback@ptr^0,c
  2883   000D44  0E00               	movlw	0
  2884   000D46  6E1E               	movwf	(I2C1_SetAddressNackCallback@ptr+1)^0,c
  2885   000D48  ECC9  F008         	call	_I2C1_SetAddressNackCallback	;wreg free
  2886   000D4C                     
  2887                           ;mcc_generated_files/drivers/i2c_simple_master.c: 76:     I2C1_MasterWrite();
  2888   000D4C  EC25  F009         	call	_I2C1_MasterWrite	;wreg free
  2889   000D50                     l3426:
  2890   000D50  ECA9  F007         	call	_I2C1_Close	;wreg free
  2891   000D54  06E8               	decf	wreg,f,c
  2892   000D56  B4D8               	btfsc	status,2,c
  2893   000D58  EFB0  F006         	goto	u1271
  2894   000D5C  EFB2  F006         	goto	u1270
  2895   000D60                     u1271:
  2896   000D60  EFA8  F006         	goto	l3426
  2897   000D64                     u1270:
  2898   000D64  0012               	return		;funcret
  2899   000D66                     __end_of_i2c_writeNBytes:
  2900                           	callstack 0
  2901                           
  2902 ;; *************** function _I2C1_SetBuffer *****************
  2903 ;; Defined at:
  2904 ;;		line 264 in file "mcc_generated_files/i2c1_master.c"
  2905 ;; Parameters:    Size  Location     Type
  2906 ;;  buffer          2   22[COMRAM] PTR void 
  2907 ;;		 -> pcf8574_write_wEnable@writeBuffer(3), RAM(2047), I2C1_ReadDataBlock@reg(1), I2C1_ReadDataBlock@bufferBlock(4), 
  2908 ;;		 -> I2C1_Write2ByteRegister@reg(1), I2C1_Write2ByteRegister@data(2), I2C1_Write1ByteRegister@reg(1), I2C1_Write1Byte
      +Register@data(1), 
  2909 ;;		 -> I2C1_Read2ByteRegister@reg(1), I2C1_Read2ByteRegister@returnValue(2), I2C1_Read1ByteRegister@reg(1), I2C1_Read1B
      +yteRegister@returnValue(1), 
  2910 ;;		 -> i2c_readDataBlock@reg(1), i2c_readDataBlock@d(4), i2c_write2ByteRegister@reg(1), i2c_write2ByteRegister@data(2),
      + 
  2911 ;;		 -> i2c_read2ByteRegister@reg(1), i2c_read2ByteRegister@result(2), i2c_read1ByteRegister@reg(1), i2c_read1ByteRegist
      +er@d2(1), 
  2912 ;;		 -> i2c_write1ByteRegister@reg(1), i2c_write1ByteRegister@data(1), NULL(0), 
  2913 ;;  bufferSize      2   24[COMRAM] unsigned int 
  2914 ;; Auto vars:     Size  Location     Type
  2915 ;;		None
  2916 ;; Return value:  Size  Location     Type
  2917 ;;                  1    wreg      void 
  2918 ;; Registers used:
  2919 ;;		wreg, status,2, status,0
  2920 ;; Tracked objects:
  2921 ;;		On entry : 0/0
  2922 ;;		On exit  : 0/0
  2923 ;;		Unchanged: 0/0
  2924 ;; Data sizes:     COMRAM   BANK0   BANK1   BANK2   BANK3   BANK4   BANK5   BANK6   BANK7
  2925 ;;      Params:         4       0       0       0       0       0       0       0       0
  2926 ;;      Locals:         0       0       0       0       0       0       0       0       0
  2927 ;;      Temps:          0       0       0       0       0       0       0       0       0
  2928 ;;      Totals:         4       0       0       0       0       0       0       0       0
  2929 ;;Total ram usage:        4 bytes
  2930 ;; Hardware stack levels used: 1
  2931 ;; Hardware stack levels required when called: 7
  2932 ;; This function calls:
  2933 ;;		Nothing
  2934 ;; This function is called by:
  2935 ;;		_i2c_writeNBytes
  2936 ;;		_i2c_write1ByteRegister
  2937 ;;		_i2c_read1ByteRegister
  2938 ;;		_i2c_read2ByteRegister
  2939 ;;		_i2c_write2ByteRegister
  2940 ;;		_i2c_readDataBlock
  2941 ;;		_i2c_readNBytes
  2942 ;;		_I2C1_Read1ByteRegister
  2943 ;;		_I2C1_Read2ByteRegister
  2944 ;;		_I2C1_Write1ByteRegister
  2945 ;;		_I2C1_Write2ByteRegister
  2946 ;;		_I2C1_WriteNBytes
  2947 ;;		_I2C1_ReadNBytes
  2948 ;;		_I2C1_ReadDataBlock
  2949 ;; This function uses a non-reentrant model
  2950 ;;
  2951                           
  2952                           	psect	text11
  2953   0010F6                     __ptext11:
  2954                           	callstack 0
  2955   0010F6                     _I2C1_SetBuffer:
  2956                           	callstack 19
  2957   0010F6                     
  2958                           ;mcc_generated_files/i2c1_master.c: 264: void I2C1_SetBuffer(void *buffer, size_t buffer
      +                          Size);mcc_generated_files/i2c1_master.c: 265: {;mcc_generated_files/i2c1_master.c: 266: 
      +                              if(I2C1_Status.bufferFree)
  2959   0010F6  A644               	btfss	(_I2C1_Status+29)^0,3,c
  2960   0010F8  EF80  F008         	goto	u1231
  2961   0010FC  EF82  F008         	goto	u1230
  2962   001100                     u1231:
  2963   001100  EF8B  F008         	goto	l319
  2964   001104                     u1230:
  2965   001104                     
  2966                           ;mcc_generated_files/i2c1_master.c: 267:     {;mcc_generated_files/i2c1_master.c: 268:  
      +                                 I2C1_Status.data_ptr = buffer;
  2967   001104  C017  F03E         	movff	I2C1_SetBuffer@buffer,_I2C1_Status+23
  2968   001108  C018  F03F         	movff	I2C1_SetBuffer@buffer+1,_I2C1_Status+24
  2969   00110C                     
  2970                           ;mcc_generated_files/i2c1_master.c: 269:         I2C1_Status.data_length = bufferSize;
  2971   00110C  C019  F040         	movff	I2C1_SetBuffer@bufferSize,_I2C1_Status+25
  2972   001110  C01A  F041         	movff	I2C1_SetBuffer@bufferSize+1,_I2C1_Status+26
  2973   001114                     
  2974                           ;mcc_generated_files/i2c1_master.c: 270:         I2C1_Status.bufferFree = 0;
  2975   001114  9644               	bcf	(_I2C1_Status+29)^0,3,c
  2976   001116                     l319:
  2977   001116  0012               	return		;funcret
  2978   001118                     __end_of_I2C1_SetBuffer:
  2979                           	callstack 0
  2980                           
  2981 ;; *************** function _I2C1_SetAddressNackCallback *****************
  2982 ;; Defined at:
  2983 ;;		line 284 in file "mcc_generated_files/i2c1_master.c"
  2984 ;; Parameters:    Size  Location     Type
  2985 ;;  cb              2   26[COMRAM] PTR FTN(PTR void ,)enum 
  2986 ;;		 -> NULL(1), 
  2987 ;;  ptr             2   28[COMRAM] PTR void 
  2988 ;;		 -> NULL(0), 
  2989 ;; Auto vars:     Size  Location     Type
  2990 ;;		None
  2991 ;; Return value:  Size  Location     Type
  2992 ;;                  1    wreg      void 
  2993 ;; Registers used:
  2994 ;;		wreg, fsr2l, fsr2h, status,2, status,0, prodl, prodh, cstack
  2995 ;; Tracked objects:
  2996 ;;		On entry : 0/0
  2997 ;;		On exit  : 0/0
  2998 ;;		Unchanged: 0/0
  2999 ;; Data sizes:     COMRAM   BANK0   BANK1   BANK2   BANK3   BANK4   BANK5   BANK6   BANK7
  3000 ;;      Params:         4       0       0       0       0       0       0       0       0
  3001 ;;      Locals:         0       0       0       0       0       0       0       0       0
  3002 ;;      Temps:          0       0       0       0       0       0       0       0       0
  3003 ;;      Totals:         4       0       0       0       0       0       0       0       0
  3004 ;;Total ram usage:        4 bytes
  3005 ;; Hardware stack levels used: 1
  3006 ;; Hardware stack levels required when called: 8
  3007 ;; This function calls:
  3008 ;;		_I2C1_SetCallback
  3009 ;; This function is called by:
  3010 ;;		_i2c_writeNBytes
  3011 ;;		_i2c_write1ByteRegister
  3012 ;;		_i2c_read1ByteRegister
  3013 ;;		_i2c_read2ByteRegister
  3014 ;;		_i2c_write2ByteRegister
  3015 ;;		_i2c_readDataBlock
  3016 ;;		_I2C1_Read1ByteRegister
  3017 ;;		_I2C1_Read2ByteRegister
  3018 ;;		_I2C1_Write1ByteRegister
  3019 ;;		_I2C1_Write2ByteRegister
  3020 ;;		_I2C1_WriteNBytes
  3021 ;;		_I2C1_ReadDataBlock
  3022 ;; This function uses a non-reentrant model
  3023 ;;
  3024                           
  3025                           	psect	text12
  3026   001192                     __ptext12:
  3027                           	callstack 0
  3028   001192                     _I2C1_SetAddressNackCallback:
  3029                           	callstack 18
  3030   001192                     
  3031                           ;mcc_generated_files/i2c1_master.c: 284: void I2C1_SetAddressNackCallback(i2c1_callback_
      +                          t cb, void *ptr);mcc_generated_files/i2c1_master.c: 285: {;mcc_generated_files/i2c1_mast
      +                          er.c: 286:     I2C1_SetCallback(I2C1_ADDR_NACK, cb, ptr);
  3032   001192  C01B  F017         	movff	I2C1_SetAddressNackCallback@cb,I2C1_SetCallback@cb
  3033   001196  C01C  F018         	movff	I2C1_SetAddressNackCallback@cb+1,I2C1_SetCallback@cb+1
  3034   00119A  C01D  F019         	movff	I2C1_SetAddressNackCallback@ptr,I2C1_SetCallback@ptr
  3035   00119E  0E02               	movlw	2
  3036   0011A0  ECB3  F006         	call	_I2C1_SetCallback
  3037   0011A4  0012               	return		;funcret
  3038   0011A6                     __end_of_I2C1_SetAddressNackCallback:
  3039                           	callstack 0
  3040                           
  3041 ;; *************** function _I2C1_SetCallback *****************
  3042 ;; Defined at:
  3043 ;;		line 304 in file "mcc_generated_files/i2c1_master.c"
  3044 ;; Parameters:    Size  Location     Type
  3045 ;;  idx             1    wreg     enum E5032
  3046 ;;  cb              2   22[COMRAM] PTR FTN(PTR void ,)enum 
  3047 ;;		 -> rdBlkRegCompleteHandler@i2c1_master_example$F1600(1), wr2RegCompleteHandler@i2c1_master_example$F1589(1), wr1Reg
      +CompleteHandler@i2c1_master_example$F1583(1), rd2RegCompleteHandler@i2c1_master_example$F1577(1), 
  3048 ;;		 -> rd1RegCompleteHandler@i2c1_master_example$F1566(1), NULL(1), rdBlkRegCompleteHandler(1), wr2RegCompleteHandler(1
      +), 
  3049 ;;		 -> rd2RegCompleteHandler(1), rd1RegCompleteHandler(1), wr1RegCompleteHandler(1), 
  3050 ;;  ptr             1   24[COMRAM] PTR void 
  3051 ;;		 -> I2C1_ReadDataBlock@bufferBlock(4), I2C1_Write2ByteRegister@data(2), I2C1_Write1ByteRegister@data(1), I2C1_Read2B
      +yteRegister@returnValue(2), 
  3052 ;;		 -> I2C1_Read1ByteRegister@returnValue(1), i2c_readDataBlock@d(4), i2c_write2ByteRegister@data(2), i2c_read2ByteRegi
      +ster@result(2), 
  3053 ;;		 -> i2c_read1ByteRegister@d2(1), i2c_write1ByteRegister@data(1), NULL(0), 
  3054 ;; Auto vars:     Size  Location     Type
  3055 ;;  idx             1   25[COMRAM] enum E5032
  3056 ;; Return value:  Size  Location     Type
  3057 ;;                  1    wreg      void 
  3058 ;; Registers used:
  3059 ;;		wreg, fsr2l, fsr2h, status,2, status,0, prodl, prodh
  3060 ;; Tracked objects:
  3061 ;;		On entry : 0/0
  3062 ;;		On exit  : 0/0
  3063 ;;		Unchanged: 0/0
  3064 ;; Data sizes:     COMRAM   BANK0   BANK1   BANK2   BANK3   BANK4   BANK5   BANK6   BANK7
  3065 ;;      Params:         3       0       0       0       0       0       0       0       0
  3066 ;;      Locals:         1       0       0       0       0       0       0       0       0
  3067 ;;      Temps:          0       0       0       0       0       0       0       0       0
  3068 ;;      Totals:         4       0       0       0       0       0       0       0       0
  3069 ;;Total ram usage:        4 bytes
  3070 ;; Hardware stack levels used: 1
  3071 ;; Hardware stack levels required when called: 7
  3072 ;; This function calls:
  3073 ;;		Nothing
  3074 ;; This function is called by:
  3075 ;;		_I2C1_SetAddressNackCallback
  3076 ;;		_I2C1_SetWriteCollisionCallback
  3077 ;;		_I2C1_SetDataNackCallback
  3078 ;;		_I2C1_SetTimeoutCallback
  3079 ;; This function uses a non-reentrant model
  3080 ;;
  3081                           
  3082                           	psect	text13
  3083   000D66                     __ptext13:
  3084                           	callstack 0
  3085   000D66                     _I2C1_SetCallback:
  3086                           	callstack 18
  3087                           
  3088                           ;incstack = 0
  3089                           ;I2C1_SetCallback@idx stored from wreg
  3090   000D66  6E1A               	movwf	I2C1_SetCallback@idx^0,c
  3091   000D68                     
  3092                           ;mcc_generated_files/i2c1_master.c: 304: static void I2C1_SetCallback(i2c1_callbackIndex
      +                          _t idx, i2c1_callback_t cb, void *ptr);mcc_generated_files/i2c1_master.c: 305: {;mcc_gen
      +                          erated_files/i2c1_master.c: 306:     if(cb)
  3093   000D68  5017               	movf	I2C1_SetCallback@cb^0,w,c
  3094   000D6A  1018               	iorwf	(I2C1_SetCallback@cb+1)^0,w,c
  3095   000D6C  B4D8               	btfsc	status,2,c
  3096   000D6E  EFBB  F006         	goto	u1221
  3097   000D72  EFBD  F006         	goto	u1220
  3098   000D76                     u1221:
  3099   000D76  EFCF  F006         	goto	l3332
  3100   000D7A                     u1220:
  3101   000D7A                     
  3102                           ;mcc_generated_files/i2c1_master.c: 307:     {;mcc_generated_files/i2c1_master.c: 308:  
      +                                 I2C1_Status.callbackTable[idx] = cb;
  3103   000D7A  501A               	movf	I2C1_SetCallback@idx^0,w,c
  3104   000D7C  0D02               	mullw	2
  3105   000D7E  50F3               	movf	243,w,c
  3106   000D80  0F27               	addlw	low _I2C1_Status
  3107   000D82  6ED9               	movwf	fsr2l,c
  3108   000D84  6ADA               	clrf	fsr2h,c
  3109   000D86  C017  FFDE         	movff	I2C1_SetCallback@cb,postinc2
  3110   000D8A  C018  FFDD         	movff	I2C1_SetCallback@cb+1,postdec2
  3111   000D8E                     
  3112                           ;mcc_generated_files/i2c1_master.c: 309:         I2C1_Status.callbackPayload[idx] = ptr;
  3113   000D8E  501A               	movf	I2C1_SetCallback@idx^0,w,c
  3114   000D90  0F33               	addlw	low (_I2C1_Status+12)
  3115   000D92  6ED9               	movwf	fsr2l,c
  3116   000D94  6ADA               	clrf	fsr2h,c
  3117   000D96  C019  FFDF         	movff	I2C1_SetCallback@ptr,indf2
  3118                           
  3119                           ;mcc_generated_files/i2c1_master.c: 310:     }
  3120   000D9A  EFDE  F006         	goto	l342
  3121   000D9E                     l3332:
  3122                           
  3123                           ;mcc_generated_files/i2c1_master.c: 312:     {;mcc_generated_files/i2c1_master.c: 313:  
      +                                 I2C1_Status.callbackTable[idx] = I2C1_CallbackReturnStop;
  3124   000D9E  501A               	movf	I2C1_SetCallback@idx^0,w,c
  3125   000DA0  0D02               	mullw	2
  3126   000DA2  50F3               	movf	243,w,c
  3127   000DA4  0F27               	addlw	low _I2C1_Status
  3128   000DA6  6ED9               	movwf	fsr2l,c
  3129   000DA8  6ADA               	clrf	fsr2h,c
  3130   000DAA  0EE0               	movlw	low _I2C1_CallbackReturnStop
  3131   000DAC  6EDE               	movwf	postinc2,c
  3132   000DAE  0E12               	movlw	high _I2C1_CallbackReturnStop
  3133   000DB0  6EDD               	movwf	postdec2,c
  3134   000DB2                     
  3135                           ;mcc_generated_files/i2c1_master.c: 314:         I2C1_Status.callbackPayload[idx] = ((vo
      +                          id*)0);
  3136   000DB2  501A               	movf	I2C1_SetCallback@idx^0,w,c
  3137   000DB4  0F33               	addlw	low (_I2C1_Status+12)
  3138   000DB6  6ED9               	movwf	fsr2l,c
  3139   000DB8  6ADA               	clrf	fsr2h,c
  3140   000DBA  6ADF               	clrf	indf2,c
  3141   000DBC                     l342:
  3142   000DBC  0012               	return		;funcret
  3143   000DBE                     __end_of_I2C1_SetCallback:
  3144                           	callstack 0
  3145                           
  3146 ;; *************** function _I2C1_Open *****************
  3147 ;; Defined at:
  3148 ;;		line 176 in file "mcc_generated_files/i2c1_master.c"
  3149 ;; Parameters:    Size  Location     Type
  3150 ;;  address         1    wreg     unsigned char 
  3151 ;; Auto vars:     Size  Location     Type
  3152 ;;  address         1   24[COMRAM] unsigned char 
  3153 ;;  returnValue     1   25[COMRAM] enum E358
  3154 ;; Return value:  Size  Location     Type
  3155 ;;                  1    wreg      enum E358
  3156 ;; Registers used:
  3157 ;;		wreg, status,2, status,0, cstack
  3158 ;; Tracked objects:
  3159 ;;		On entry : 0/0
  3160 ;;		On exit  : 0/0
  3161 ;;		Unchanged: 0/0
  3162 ;; Data sizes:     COMRAM   BANK0   BANK1   BANK2   BANK3   BANK4   BANK5   BANK6   BANK7
  3163 ;;      Params:         0       0       0       0       0       0       0       0       0
  3164 ;;      Locals:         2       0       0       0       0       0       0       0       0
  3165 ;;      Temps:          0       0       0       0       0       0       0       0       0
  3166 ;;      Totals:         2       0       0       0       0       0       0       0       0
  3167 ;;Total ram usage:        2 bytes
  3168 ;; Hardware stack levels used: 1
  3169 ;; Hardware stack levels required when called: 8
  3170 ;; This function calls:
  3171 ;;		_I2C1_MasterClearIrq
  3172 ;;		_I2C1_MasterEnableIrq
  3173 ;;		_I2C1_MasterOpen
  3174 ;;		_I2C1_SetInterruptHandler
  3175 ;; This function is called by:
  3176 ;;		_i2c_writeNBytes
  3177 ;;		_i2c_write1ByteRegister
  3178 ;;		_i2c_read1ByteRegister
  3179 ;;		_i2c_read2ByteRegister
  3180 ;;		_i2c_write2ByteRegister
  3181 ;;		_i2c_readDataBlock
  3182 ;;		_i2c_readNBytes
  3183 ;;		_I2C1_Read1ByteRegister
  3184 ;;		_I2C1_Read2ByteRegister
  3185 ;;		_I2C1_Write1ByteRegister
  3186 ;;		_I2C1_Write2ByteRegister
  3187 ;;		_I2C1_WriteNBytes
  3188 ;;		_I2C1_ReadNBytes
  3189 ;;		_I2C1_ReadDataBlock
  3190 ;; This function uses a non-reentrant model
  3191 ;;
  3192                           
  3193                           	psect	text14
  3194   000A2A                     __ptext14:
  3195                           	callstack 0
  3196   000A2A                     _I2C1_Open:
  3197                           	callstack 18
  3198                           
  3199                           ;incstack = 0
  3200                           ;I2C1_Open@address stored from wreg
  3201   000A2A  6E19               	movwf	I2C1_Open@address^0,c
  3202   000A2C                     
  3203                           ;mcc_generated_files/i2c1_master.c: 176: i2c1_error_t I2C1_Open(i2c1_address_t address);
      +                          mcc_generated_files/i2c1_master.c: 177: {;mcc_generated_files/i2c1_master.c: 178:     i2
      +                          c1_error_t returnValue = I2C1_BUSY;
  3204   000A2C  0E01               	movlw	1
  3205   000A2E  6E1A               	movwf	I2C1_Open@returnValue^0,c
  3206   000A30                     
  3207                           ;mcc_generated_files/i2c1_master.c: 180:     if(!I2C1_Status.inUse)
  3208   000A30  B444               	btfsc	(_I2C1_Status+29)^0,2,c
  3209   000A32  EF1D  F005         	goto	u1241
  3210   000A36  EF1F  F005         	goto	u1240
  3211   000A3A                     u1241:
  3212   000A3A  EF51  F005         	goto	l3392
  3213   000A3E                     u1240:
  3214   000A3E                     
  3215                           ;mcc_generated_files/i2c1_master.c: 181:     {;mcc_generated_files/i2c1_master.c: 182:  
      +                                 I2C1_Status.address = address;
  3216   000A3E  C019  F03D         	movff	I2C1_Open@address,_I2C1_Status+22
  3217   000A42                     
  3218                           ;mcc_generated_files/i2c1_master.c: 183:         I2C1_Status.busy = 0;
  3219   000A42  9244               	bcf	(_I2C1_Status+29)^0,1,c
  3220   000A44                     
  3221                           ;mcc_generated_files/i2c1_master.c: 184:         I2C1_Status.inUse = 1;
  3222   000A44  8444               	bsf	(_I2C1_Status+29)^0,2,c
  3223   000A46                     
  3224                           ;mcc_generated_files/i2c1_master.c: 185:         I2C1_Status.addressNackCheck = 0;
  3225   000A46  9044               	bcf	(_I2C1_Status+29)^0,0,c
  3226   000A48                     
  3227                           ;mcc_generated_files/i2c1_master.c: 186:         I2C1_Status.state = I2C1_RESET;
  3228   000A48  0E0E               	movlw	14
  3229   000A4A  6E42               	movwf	(_I2C1_Status+27)^0,c
  3230   000A4C                     
  3231                           ;mcc_generated_files/i2c1_master.c: 187:         I2C1_Status.time_out_value = 500;
  3232   000A4C  0E01               	movlw	1
  3233   000A4E  6E3C               	movwf	(_I2C1_Status+21)^0,c
  3234   000A50  0EF4               	movlw	244
  3235   000A52  6E3B               	movwf	(_I2C1_Status+20)^0,c
  3236   000A54                     
  3237                           ;mcc_generated_files/i2c1_master.c: 188:         I2C1_Status.bufferFree = 1;
  3238   000A54  8644               	bsf	(_I2C1_Status+29)^0,3,c
  3239   000A56                     
  3240                           ;mcc_generated_files/i2c1_master.c: 191:         I2C1_Status.callbackTable[I2C1_DATA_COM
      +                          PLETE]=I2C1_CallbackReturnStop;
  3241   000A56  0EE0               	movlw	low _I2C1_CallbackReturnStop
  3242   000A58  6E27               	movwf	_I2C1_Status^0,c
  3243   000A5A  0E12               	movlw	high _I2C1_CallbackReturnStop
  3244   000A5C  6E28               	movwf	(_I2C1_Status+1)^0,c
  3245   000A5E                     
  3246                           ;mcc_generated_files/i2c1_master.c: 192:         I2C1_Status.callbackPayload[I2C1_DATA_C
      +                          OMPLETE] = ((void*)0);
  3247   000A5E  6A33               	clrf	(_I2C1_Status+12)^0,c
  3248   000A60                     
  3249                           ;mcc_generated_files/i2c1_master.c: 193:         I2C1_Status.callbackTable[I2C1_WRITE_CO
      +                          LLISION]=I2C1_CallbackReturnStop;
  3250   000A60  0EE0               	movlw	low _I2C1_CallbackReturnStop
  3251   000A62  6E29               	movwf	(_I2C1_Status+2)^0,c
  3252   000A64  0E12               	movlw	high _I2C1_CallbackReturnStop
  3253   000A66  6E2A               	movwf	(_I2C1_Status+3)^0,c
  3254   000A68                     
  3255                           ;mcc_generated_files/i2c1_master.c: 194:         I2C1_Status.callbackPayload[I2C1_WRITE_
      +                          COLLISION] = ((void*)0);
  3256   000A68  6A34               	clrf	(_I2C1_Status+13)^0,c
  3257   000A6A                     
  3258                           ;mcc_generated_files/i2c1_master.c: 195:         I2C1_Status.callbackTable[I2C1_ADDR_NAC
      +                          K]=I2C1_CallbackReturnStop;
  3259   000A6A  0EE0               	movlw	low _I2C1_CallbackReturnStop
  3260   000A6C  6E2B               	movwf	(_I2C1_Status+4)^0,c
  3261   000A6E  0E12               	movlw	high _I2C1_CallbackReturnStop
  3262   000A70  6E2C               	movwf	(_I2C1_Status+5)^0,c
  3263   000A72                     
  3264                           ;mcc_generated_files/i2c1_master.c: 196:         I2C1_Status.callbackPayload[I2C1_ADDR_N
      +                          ACK] = ((void*)0);
  3265   000A72  6A35               	clrf	(_I2C1_Status+14)^0,c
  3266   000A74                     
  3267                           ;mcc_generated_files/i2c1_master.c: 197:         I2C1_Status.callbackTable[I2C1_DATA_NAC
      +                          K]=I2C1_CallbackReturnStop;
  3268   000A74  0EE0               	movlw	low _I2C1_CallbackReturnStop
  3269   000A76  6E2D               	movwf	(_I2C1_Status+6)^0,c
  3270   000A78  0E12               	movlw	high _I2C1_CallbackReturnStop
  3271   000A7A  6E2E               	movwf	(_I2C1_Status+7)^0,c
  3272   000A7C                     
  3273                           ;mcc_generated_files/i2c1_master.c: 198:         I2C1_Status.callbackPayload[I2C1_DATA_N
      +                          ACK] = ((void*)0);
  3274   000A7C  6A36               	clrf	(_I2C1_Status+15)^0,c
  3275   000A7E                     
  3276                           ;mcc_generated_files/i2c1_master.c: 199:         I2C1_Status.callbackTable[I2C1_TIMEOUT]
      +                          =I2C1_CallbackReturnReset;
  3277   000A7E  0EDC               	movlw	low _I2C1_CallbackReturnReset
  3278   000A80  6E2F               	movwf	(_I2C1_Status+8)^0,c
  3279   000A82  0E12               	movlw	high _I2C1_CallbackReturnReset
  3280   000A84  6E30               	movwf	(_I2C1_Status+9)^0,c
  3281   000A86                     
  3282                           ;mcc_generated_files/i2c1_master.c: 200:         I2C1_Status.callbackPayload[I2C1_TIMEOU
      +                          T] = ((void*)0);
  3283   000A86  6A37               	clrf	(_I2C1_Status+16)^0,c
  3284   000A88                     
  3285                           ;mcc_generated_files/i2c1_master.c: 202:         I2C1_SetInterruptHandler(I2C1_MasterIsr
      +                          );
  3286   000A88  0EA2               	movlw	low _I2C1_MasterIsr
  3287   000A8A  6E17               	movwf	I2C1_SetInterruptHandler@InterruptHandler^0,c
  3288   000A8C  0E12               	movlw	high _I2C1_MasterIsr
  3289   000A8E  6E18               	movwf	(I2C1_SetInterruptHandler@InterruptHandler+1)^0,c
  3290   000A90  EC12  F009         	call	_I2C1_SetInterruptHandler	;wreg free
  3291   000A94                     
  3292                           ;mcc_generated_files/i2c1_master.c: 203:         I2C1_MasterClearIrq();
  3293   000A94  EC62  F009         	call	_I2C1_MasterClearIrq	;wreg free
  3294   000A98                     
  3295                           ;mcc_generated_files/i2c1_master.c: 204:         I2C1_MasterOpen();
  3296   000A98  ECAD  F008         	call	_I2C1_MasterOpen	;wreg free
  3297   000A9C                     
  3298                           ;mcc_generated_files/i2c1_master.c: 205:         I2C1_MasterEnableIrq();
  3299   000A9C  EC5A  F009         	call	_I2C1_MasterEnableIrq	;wreg free
  3300   000AA0                     
  3301                           ;mcc_generated_files/i2c1_master.c: 206:         returnValue = I2C1_NOERR;
  3302   000AA0  6A1A               	clrf	I2C1_Open@returnValue^0,c
  3303   000AA2                     l3392:
  3304                           
  3305                           ;mcc_generated_files/i2c1_master.c: 208:     return returnValue;
  3306   000AA2  501A               	movf	I2C1_Open@returnValue^0,w,c
  3307   000AA4  0012               	return		;funcret
  3308   000AA6                     __end_of_I2C1_Open:
  3309                           	callstack 0
  3310                           
  3311 ;; *************** function _I2C1_SetInterruptHandler *****************
  3312 ;; Defined at:
  3313 ;;		line 299 in file "mcc_generated_files/i2c1_master.c"
  3314 ;; Parameters:    Size  Location     Type
  3315 ;;  InterruptHan    2   22[COMRAM] PTR FTN()void 
  3316 ;;		 -> I2C1_MasterIsr(1), 
  3317 ;; Auto vars:     Size  Location     Type
  3318 ;;		None
  3319 ;; Return value:  Size  Location     Type
  3320 ;;                  1    wreg      void 
  3321 ;; Registers used:
  3322 ;;		wreg, status,2, status,0
  3323 ;; Tracked objects:
  3324 ;;		On entry : 0/0
  3325 ;;		On exit  : 0/0
  3326 ;;		Unchanged: 0/0
  3327 ;; Data sizes:     COMRAM   BANK0   BANK1   BANK2   BANK3   BANK4   BANK5   BANK6   BANK7
  3328 ;;      Params:         2       0       0       0       0       0       0       0       0
  3329 ;;      Locals:         0       0       0       0       0       0       0       0       0
  3330 ;;      Temps:          0       0       0       0       0       0       0       0       0
  3331 ;;      Totals:         2       0       0       0       0       0       0       0       0
  3332 ;;Total ram usage:        2 bytes
  3333 ;; Hardware stack levels used: 1
  3334 ;; Hardware stack levels required when called: 7
  3335 ;; This function calls:
  3336 ;;		Nothing
  3337 ;; This function is called by:
  3338 ;;		_I2C1_Open
  3339 ;; This function uses a non-reentrant model
  3340 ;;
  3341                           
  3342                           	psect	text15
  3343   001224                     __ptext15:
  3344                           	callstack 0
  3345   001224                     _I2C1_SetInterruptHandler:
  3346                           	callstack 18
  3347   001224                     
  3348                           ;mcc_generated_files/i2c1_master.c: 299: void I2C1_SetInterruptHandler(void (* Interrupt
      +                          Handler)(void));mcc_generated_files/i2c1_master.c: 300: {;mcc_generated_files/i2c1_maste
      +                          r.c: 301:     MSSP1_InterruptHandler = InterruptHandler;
  3349   001224  C017  F045         	movff	I2C1_SetInterruptHandler@InterruptHandler,_MSSP1_InterruptHandler
  3350   001228  C018  F046         	movff	I2C1_SetInterruptHandler@InterruptHandler+1,_MSSP1_InterruptHandler+1
  3351   00122C  0012               	return		;funcret
  3352   00122E                     __end_of_I2C1_SetInterruptHandler:
  3353                           	callstack 0
  3354                           
  3355 ;; *************** function _I2C1_MasterOpen *****************
  3356 ;; Defined at:
  3357 ;;		line 544 in file "mcc_generated_files/i2c1_master.c"
  3358 ;; Parameters:    Size  Location     Type
  3359 ;;		None
  3360 ;; Auto vars:     Size  Location     Type
  3361 ;;		None
  3362 ;; Return value:  Size  Location     Type
  3363 ;;                  1    wreg      _Bool 
  3364 ;; Registers used:
  3365 ;;		wreg, status,2
  3366 ;; Tracked objects:
  3367 ;;		On entry : 0/0
  3368 ;;		On exit  : 0/0
  3369 ;;		Unchanged: 0/0
  3370 ;; Data sizes:     COMRAM   BANK0   BANK1   BANK2   BANK3   BANK4   BANK5   BANK6   BANK7
  3371 ;;      Params:         0       0       0       0       0       0       0       0       0
  3372 ;;      Locals:         0       0       0       0       0       0       0       0       0
  3373 ;;      Temps:          0       0       0       0       0       0       0       0       0
  3374 ;;      Totals:         0       0       0       0       0       0       0       0       0
  3375 ;;Total ram usage:        0 bytes
  3376 ;; Hardware stack levels used: 1
  3377 ;; Hardware stack levels required when called: 7
  3378 ;; This function calls:
  3379 ;;		Nothing
  3380 ;; This function is called by:
  3381 ;;		_I2C1_Open
  3382 ;; This function uses a non-reentrant model
  3383 ;;
  3384                           
  3385                           	psect	text16
  3386   00115A                     __ptext16:
  3387                           	callstack 0
  3388   00115A                     _I2C1_MasterOpen:
  3389                           	callstack 18
  3390   00115A                     
  3391                           ;mcc_generated_files/i2c1_master.c: 546:     if(!SSP1CON1bits.SSPEN)
  3392   00115A  BAC6               	btfsc	198,5,c	;volatile
  3393   00115C  EFB2  F008         	goto	u1191
  3394   001160  EFB4  F008         	goto	u1190
  3395   001164                     u1191:
  3396   001164  EFBB  F008         	goto	l461
  3397   001168                     u1190:
  3398   001168                     
  3399                           ;mcc_generated_files/i2c1_master.c: 547:     {;mcc_generated_files/i2c1_master.c: 548:  
      +                                 SSP1STAT = 0x00;
  3400   001168  6AC7               	clrf	199,c	;volatile
  3401   00116A                     
  3402                           ;mcc_generated_files/i2c1_master.c: 549:         SSP1CON1 = 0x08;
  3403   00116A  0E08               	movlw	8
  3404   00116C  6EC6               	movwf	198,c	;volatile
  3405   00116E                     
  3406                           ;mcc_generated_files/i2c1_master.c: 550:         SSP1CON2 = 0x00;
  3407   00116E  6AC5               	clrf	197,c	;volatile
  3408                           
  3409                           ;mcc_generated_files/i2c1_master.c: 551:         SSP1ADD = 0x27;
  3410   001170  0E27               	movlw	39
  3411   001172  6EC8               	movwf	200,c	;volatile
  3412   001174                     
  3413                           ;mcc_generated_files/i2c1_master.c: 552:         SSP1CON1bits.SSPEN = 1;
  3414   001174  8AC6               	bsf	198,5,c	;volatile
  3415   001176                     l461:
  3416   001176  0012               	return		;funcret
  3417   001178                     __end_of_I2C1_MasterOpen:
  3418                           	callstack 0
  3419                           
  3420 ;; *************** function _I2C1_MasterEnableIrq *****************
  3421 ;; Defined at:
  3422 ;;		line 627 in file "mcc_generated_files/i2c1_master.c"
  3423 ;; Parameters:    Size  Location     Type
  3424 ;;		None
  3425 ;; Auto vars:     Size  Location     Type
  3426 ;;		None
  3427 ;; Return value:  Size  Location     Type
  3428 ;;                  1    wreg      void 
  3429 ;; Registers used:
  3430 ;;		None
  3431 ;; Tracked objects:
  3432 ;;		On entry : 0/0
  3433 ;;		On exit  : 0/0
  3434 ;;		Unchanged: 0/0
  3435 ;; Data sizes:     COMRAM   BANK0   BANK1   BANK2   BANK3   BANK4   BANK5   BANK6   BANK7
  3436 ;;      Params:         0       0       0       0       0       0       0       0       0
  3437 ;;      Locals:         0       0       0       0       0       0       0       0       0
  3438 ;;      Temps:          0       0       0       0       0       0       0       0       0
  3439 ;;      Totals:         0       0       0       0       0       0       0       0       0
  3440 ;;Total ram usage:        0 bytes
  3441 ;; Hardware stack levels used: 1
  3442 ;; Hardware stack levels required when called: 7
  3443 ;; This function calls:
  3444 ;;		Nothing
  3445 ;; This function is called by:
  3446 ;;		_I2C1_Open
  3447 ;;		_I2C1_SetTimeOut
  3448 ;; This function uses a non-reentrant model
  3449 ;;
  3450                           
  3451                           	psect	text17
  3452   0012B4                     __ptext17:
  3453                           	callstack 0
  3454   0012B4                     _I2C1_MasterEnableIrq:
  3455                           	callstack 18
  3456   0012B4                     
  3457                           ;mcc_generated_files/i2c1_master.c: 629:     PIE1bits.SSP1IE = 1;
  3458   0012B4  869D               	bsf	157,3,c	;volatile
  3459   0012B6  0012               	return		;funcret
  3460   0012B8                     __end_of_I2C1_MasterEnableIrq:
  3461                           	callstack 0
  3462                           
  3463 ;; *************** function _I2C1_MasterWrite *****************
  3464 ;; Defined at:
  3465 ;;		line 252 in file "mcc_generated_files/i2c1_master.c"
  3466 ;; Parameters:    Size  Location     Type
  3467 ;;		None
  3468 ;; Auto vars:     Size  Location     Type
  3469 ;;		None
  3470 ;; Return value:  Size  Location     Type
  3471 ;;                  1    wreg      enum E358
  3472 ;; Registers used:
  3473 ;;		wreg, status,2, cstack
  3474 ;; Tracked objects:
  3475 ;;		On entry : 0/0
  3476 ;;		On exit  : 0/0
  3477 ;;		Unchanged: 0/0
  3478 ;; Data sizes:     COMRAM   BANK0   BANK1   BANK2   BANK3   BANK4   BANK5   BANK6   BANK7
  3479 ;;      Params:         0       0       0       0       0       0       0       0       0
  3480 ;;      Locals:         0       0       0       0       0       0       0       0       0
  3481 ;;      Temps:          0       0       0       0       0       0       0       0       0
  3482 ;;      Totals:         0       0       0       0       0       0       0       0       0
  3483 ;;Total ram usage:        0 bytes
  3484 ;; Hardware stack levels used: 1
  3485 ;; Hardware stack levels required when called: 9
  3486 ;; This function calls:
  3487 ;;		_I2C1_MasterOperation
  3488 ;; This function is called by:
  3489 ;;		_i2c_writeNBytes
  3490 ;;		_i2c_write1ByteRegister
  3491 ;;		_i2c_read1ByteRegister
  3492 ;;		_i2c_read2ByteRegister
  3493 ;;		_i2c_write2ByteRegister
  3494 ;;		_i2c_readDataBlock
  3495 ;;		_I2C1_Read1ByteRegister
  3496 ;;		_I2C1_Read2ByteRegister
  3497 ;;		_I2C1_Write1ByteRegister
  3498 ;;		_I2C1_Write2ByteRegister
  3499 ;;		_I2C1_WriteNBytes
  3500 ;;		_I2C1_ReadDataBlock
  3501 ;; This function uses a non-reentrant model
  3502 ;;
  3503                           
  3504                           	psect	text18
  3505   00124A                     __ptext18:
  3506                           	callstack 0
  3507   00124A                     _I2C1_MasterWrite:
  3508                           	callstack 17
  3509   00124A                     
  3510                           ;mcc_generated_files/i2c1_master.c: 254:     return I2C1_MasterOperation(0);;	Return val
      +                          ue of _I2C1_MasterWrite is never used
  3511   00124A  0E00               	movlw	0
  3512   00124C  EC51  F007         	call	_I2C1_MasterOperation
  3513   001250  0012               	return		;funcret
  3514   001252                     __end_of_I2C1_MasterWrite:
  3515                           	callstack 0
  3516                           
  3517 ;; *************** function _I2C1_MasterOperation *****************
  3518 ;; Defined at:
  3519 ;;		line 226 in file "mcc_generated_files/i2c1_master.c"
  3520 ;; Parameters:    Size  Location     Type
  3521 ;;  read            1    wreg     _Bool 
  3522 ;; Auto vars:     Size  Location     Type
  3523 ;;  read            1   22[COMRAM] _Bool 
  3524 ;;  returnValue     1   23[COMRAM] enum E358
  3525 ;; Return value:  Size  Location     Type
  3526 ;;                  1    wreg      enum E358
  3527 ;; Registers used:
  3528 ;;		wreg, status,2, cstack
  3529 ;; Tracked objects:
  3530 ;;		On entry : 0/0
  3531 ;;		On exit  : 0/0
  3532 ;;		Unchanged: 0/0
  3533 ;; Data sizes:     COMRAM   BANK0   BANK1   BANK2   BANK3   BANK4   BANK5   BANK6   BANK7
  3534 ;;      Params:         0       0       0       0       0       0       0       0       0
  3535 ;;      Locals:         2       0       0       0       0       0       0       0       0
  3536 ;;      Temps:          0       0       0       0       0       0       0       0       0
  3537 ;;      Totals:         2       0       0       0       0       0       0       0       0
  3538 ;;Total ram usage:        2 bytes
  3539 ;; Hardware stack levels used: 1
  3540 ;; Hardware stack levels required when called: 8
  3541 ;; This function calls:
  3542 ;;		_I2C1_MasterStart
  3543 ;; This function is called by:
  3544 ;;		_I2C1_MasterWrite
  3545 ;;		_I2C1_MasterRead
  3546 ;; This function uses a non-reentrant model
  3547 ;;
  3548                           
  3549                           	psect	text19
  3550   000EA2                     __ptext19:
  3551                           	callstack 0
  3552   000EA2                     _I2C1_MasterOperation:
  3553                           	callstack 17
  3554                           
  3555                           ;incstack = 0
  3556                           ;I2C1_MasterOperation@read stored from wreg
  3557   000EA2  6E17               	movwf	I2C1_MasterOperation@read^0,c
  3558   000EA4                     
  3559                           ;mcc_generated_files/i2c1_master.c: 226: i2c1_error_t I2C1_MasterOperation(_Bool read);m
      +                          cc_generated_files/i2c1_master.c: 227: {;mcc_generated_files/i2c1_master.c: 228:     i2c
      +                          1_error_t returnValue = I2C1_BUSY;
  3560   000EA4  0E01               	movlw	1
  3561   000EA6  6E18               	movwf	I2C1_MasterOperation@returnValue^0,c
  3562   000EA8                     
  3563                           ;mcc_generated_files/i2c1_master.c: 229:     if(!I2C1_Status.busy)
  3564   000EA8  B244               	btfsc	(_I2C1_Status+29)^0,1,c
  3565   000EAA  EF59  F007         	goto	u1201
  3566   000EAE  EF5B  F007         	goto	u1200
  3567   000EB2                     u1201:
  3568   000EB2  EF6D  F007         	goto	l3322
  3569   000EB6                     u1200:
  3570   000EB6                     
  3571                           ;mcc_generated_files/i2c1_master.c: 230:     {;mcc_generated_files/i2c1_master.c: 231:  
      +                                 I2C1_Status.busy = 1;
  3572   000EB6  8244               	bsf	(_I2C1_Status+29)^0,1,c
  3573                           
  3574                           ;mcc_generated_files/i2c1_master.c: 232:         returnValue = I2C1_NOERR;
  3575   000EB8  6A18               	clrf	I2C1_MasterOperation@returnValue^0,c
  3576   000EBA                     
  3577                           ;mcc_generated_files/i2c1_master.c: 234:         if(read)
  3578   000EBA  5017               	movf	I2C1_MasterOperation@read^0,w,c
  3579   000EBC  B4D8               	btfsc	status,2,c
  3580   000EBE  EF63  F007         	goto	u1211
  3581   000EC2  EF65  F007         	goto	u1210
  3582   000EC6                     u1211:
  3583   000EC6  EF69  F007         	goto	l3318
  3584   000ECA                     u1210:
  3585   000ECA                     
  3586                           ;mcc_generated_files/i2c1_master.c: 235:         {;mcc_generated_files/i2c1_master.c: 23
      +                          6:             I2C1_Status.state = I2C1_SEND_ADR_READ;
  3587   000ECA  0E01               	movlw	1
  3588   000ECC  6E42               	movwf	(_I2C1_Status+27)^0,c
  3589                           
  3590                           ;mcc_generated_files/i2c1_master.c: 237:         }
  3591   000ECE  EF6B  F007         	goto	l3320
  3592   000ED2                     l3318:
  3593                           
  3594                           ;mcc_generated_files/i2c1_master.c: 239:         {;mcc_generated_files/i2c1_master.c: 24
      +                          0:             I2C1_Status.state = I2C1_SEND_ADR_WRITE;
  3595   000ED2  0E02               	movlw	2
  3596   000ED4  6E42               	movwf	(_I2C1_Status+27)^0,c
  3597   000ED6                     l3320:
  3598                           
  3599                           ;mcc_generated_files/i2c1_master.c: 242:         I2C1_MasterStart();
  3600   000ED6  EC5C  F009         	call	_I2C1_MasterStart	;wreg free
  3601   000EDA                     l3322:
  3602                           
  3603                           ;mcc_generated_files/i2c1_master.c: 244:     return returnValue;
  3604   000EDA  5018               	movf	I2C1_MasterOperation@returnValue^0,w,c
  3605   000EDC  0012               	return		;funcret
  3606   000EDE                     __end_of_I2C1_MasterOperation:
  3607                           	callstack 0
  3608                           
  3609 ;; *************** function _I2C1_MasterStart *****************
  3610 ;; Defined at:
  3611 ;;		line 589 in file "mcc_generated_files/i2c1_master.c"
  3612 ;; Parameters:    Size  Location     Type
  3613 ;;		None
  3614 ;; Auto vars:     Size  Location     Type
  3615 ;;		None
  3616 ;; Return value:  Size  Location     Type
  3617 ;;                  1    wreg      void 
  3618 ;; Registers used:
  3619 ;;		None
  3620 ;; Tracked objects:
  3621 ;;		On entry : 0/0
  3622 ;;		On exit  : 0/0
  3623 ;;		Unchanged: 0/0
  3624 ;; Data sizes:     COMRAM   BANK0   BANK1   BANK2   BANK3   BANK4   BANK5   BANK6   BANK7
  3625 ;;      Params:         0       0       0       0       0       0       0       0       0
  3626 ;;      Locals:         0       0       0       0       0       0       0       0       0
  3627 ;;      Temps:          0       0       0       0       0       0       0       0       0
  3628 ;;      Totals:         0       0       0       0       0       0       0       0       0
  3629 ;;Total ram usage:        0 bytes
  3630 ;; Hardware stack levels used: 1
  3631 ;; Hardware stack levels required when called: 7
  3632 ;; This function calls:
  3633 ;;		Nothing
  3634 ;; This function is called by:
  3635 ;;		_I2C1_MasterOperation
  3636 ;; This function uses a non-reentrant model
  3637 ;;
  3638                           
  3639                           	psect	text20
  3640   0012B8                     __ptext20:
  3641                           	callstack 0
  3642   0012B8                     _I2C1_MasterStart:
  3643                           	callstack 17
  3644   0012B8                     
  3645                           ;mcc_generated_files/i2c1_master.c: 591:     SSP1CON2bits.SEN = 1;
  3646   0012B8  80C5               	bsf	197,0,c	;volatile
  3647   0012BA  0012               	return		;funcret
  3648   0012BC                     __end_of_I2C1_MasterStart:
  3649                           	callstack 0
  3650                           
  3651 ;; *************** function _I2C1_Close *****************
  3652 ;; Defined at:
  3653 ;;		line 211 in file "mcc_generated_files/i2c1_master.c"
  3654 ;; Parameters:    Size  Location     Type
  3655 ;;		None
  3656 ;; Auto vars:     Size  Location     Type
  3657 ;;  returnValue     1   22[COMRAM] enum E358
  3658 ;; Return value:  Size  Location     Type
  3659 ;;                  1    wreg      enum E358
  3660 ;; Registers used:
  3661 ;;		wreg, status,2, cstack
  3662 ;; Tracked objects:
  3663 ;;		On entry : 0/0
  3664 ;;		On exit  : 0/0
  3665 ;;		Unchanged: 0/0
  3666 ;; Data sizes:     COMRAM   BANK0   BANK1   BANK2   BANK3   BANK4   BANK5   BANK6   BANK7
  3667 ;;      Params:         0       0       0       0       0       0       0       0       0
  3668 ;;      Locals:         1       0       0       0       0       0       0       0       0
  3669 ;;      Temps:          0       0       0       0       0       0       0       0       0
  3670 ;;      Totals:         1       0       0       0       0       0       0       0       0
  3671 ;;Total ram usage:        1 bytes
  3672 ;; Hardware stack levels used: 1
  3673 ;; Hardware stack levels required when called: 8
  3674 ;; This function calls:
  3675 ;;		_I2C1_MasterClearIrq
  3676 ;;		_I2C1_MasterClose
  3677 ;;		_I2C1_MasterDisableIrq
  3678 ;; This function is called by:
  3679 ;;		_i2c_writeNBytes
  3680 ;;		_i2c_write1ByteRegister
  3681 ;;		_i2c_read1ByteRegister
  3682 ;;		_i2c_read2ByteRegister
  3683 ;;		_i2c_write2ByteRegister
  3684 ;;		_i2c_readDataBlock
  3685 ;;		_i2c_readNBytes
  3686 ;;		_I2C1_Read1ByteRegister
  3687 ;;		_I2C1_Read2ByteRegister
  3688 ;;		_I2C1_Write1ByteRegister
  3689 ;;		_I2C1_Write2ByteRegister
  3690 ;;		_I2C1_WriteNBytes
  3691 ;;		_I2C1_ReadNBytes
  3692 ;;		_I2C1_ReadDataBlock
  3693 ;; This function uses a non-reentrant model
  3694 ;;
  3695                           
  3696                           	psect	text21
  3697   000F52                     __ptext21:
  3698                           	callstack 0
  3699   000F52                     _I2C1_Close:
  3700                           	callstack 18
  3701   000F52                     
  3702                           ;mcc_generated_files/i2c1_master.c: 213:     i2c1_error_t returnValue = I2C1_BUSY;
  3703   000F52  0E01               	movlw	1
  3704   000F54  6E17               	movwf	I2C1_Close@returnValue^0,c
  3705   000F56                     
  3706                           ;mcc_generated_files/i2c1_master.c: 214:     if(!I2C1_Status.busy)
  3707   000F56  B244               	btfsc	(_I2C1_Status+29)^0,1,c
  3708   000F58  EFB0  F007         	goto	u1251
  3709   000F5C  EFB2  F007         	goto	u1250
  3710   000F60                     u1251:
  3711   000F60  EFBC  F007         	goto	l3412
  3712   000F64                     u1250:
  3713   000F64                     
  3714                           ;mcc_generated_files/i2c1_master.c: 215:     {;mcc_generated_files/i2c1_master.c: 216:  
      +                                 I2C1_Status.inUse = 0;
  3715   000F64  9444               	bcf	(_I2C1_Status+29)^0,2,c
  3716                           
  3717                           ;mcc_generated_files/i2c1_master.c: 217:         I2C1_Status.address = 0xff;
  3718   000F66  683D               	setf	(_I2C1_Status+22)^0,c
  3719   000F68                     
  3720                           ;mcc_generated_files/i2c1_master.c: 218:         I2C1_MasterClearIrq();
  3721   000F68  EC62  F009         	call	_I2C1_MasterClearIrq	;wreg free
  3722                           
  3723                           ;mcc_generated_files/i2c1_master.c: 219:         I2C1_MasterDisableIrq();
  3724   000F6C  EC5E  F009         	call	_I2C1_MasterDisableIrq	;wreg free
  3725                           
  3726                           ;mcc_generated_files/i2c1_master.c: 220:         I2C1_MasterClose();
  3727   000F70  EC60  F009         	call	_I2C1_MasterClose	;wreg free
  3728   000F74                     
  3729                           ;mcc_generated_files/i2c1_master.c: 221:         returnValue = I2C1_Status.error;
  3730   000F74  C043  F017         	movff	_I2C1_Status+28,I2C1_Close@returnValue
  3731   000F78                     l3412:
  3732                           
  3733                           ;mcc_generated_files/i2c1_master.c: 223:     return returnValue;
  3734   000F78  5017               	movf	I2C1_Close@returnValue^0,w,c
  3735   000F7A  0012               	return		;funcret
  3736   000F7C                     __end_of_I2C1_Close:
  3737                           	callstack 0
  3738                           
  3739 ;; *************** function _I2C1_MasterDisableIrq *****************
  3740 ;; Defined at:
  3741 ;;		line 637 in file "mcc_generated_files/i2c1_master.c"
  3742 ;; Parameters:    Size  Location     Type
  3743 ;;		None
  3744 ;; Auto vars:     Size  Location     Type
  3745 ;;		None
  3746 ;; Return value:  Size  Location     Type
  3747 ;;                  1    wreg      void 
  3748 ;; Registers used:
  3749 ;;		None
  3750 ;; Tracked objects:
  3751 ;;		On entry : 0/0
  3752 ;;		On exit  : 0/0
  3753 ;;		Unchanged: 0/0
  3754 ;; Data sizes:     COMRAM   BANK0   BANK1   BANK2   BANK3   BANK4   BANK5   BANK6   BANK7
  3755 ;;      Params:         0       0       0       0       0       0       0       0       0
  3756 ;;      Locals:         0       0       0       0       0       0       0       0       0
  3757 ;;      Temps:          0       0       0       0       0       0       0       0       0
  3758 ;;      Totals:         0       0       0       0       0       0       0       0       0
  3759 ;;Total ram usage:        0 bytes
  3760 ;; Hardware stack levels used: 1
  3761 ;; Hardware stack levels required when called: 7
  3762 ;; This function calls:
  3763 ;;		Nothing
  3764 ;; This function is called by:
  3765 ;;		_I2C1_Close
  3766 ;;		_I2C1_SetTimeOut
  3767 ;; This function uses a non-reentrant model
  3768 ;;
  3769                           
  3770                           	psect	text22
  3771   0012BC                     __ptext22:
  3772                           	callstack 0
  3773   0012BC                     _I2C1_MasterDisableIrq:
  3774                           	callstack 18
  3775   0012BC                     
  3776                           ;mcc_generated_files/i2c1_master.c: 639:     PIE1bits.SSP1IE = 0;
  3777   0012BC  969D               	bcf	157,3,c	;volatile
  3778   0012BE  0012               	return		;funcret
  3779   0012C0                     __end_of_I2C1_MasterDisableIrq:
  3780                           	callstack 0
  3781                           
  3782 ;; *************** function _I2C1_MasterClose *****************
  3783 ;; Defined at:
  3784 ;;		line 558 in file "mcc_generated_files/i2c1_master.c"
  3785 ;; Parameters:    Size  Location     Type
  3786 ;;		None
  3787 ;; Auto vars:     Size  Location     Type
  3788 ;;		None
  3789 ;; Return value:  Size  Location     Type
  3790 ;;                  1    wreg      void 
  3791 ;; Registers used:
  3792 ;;		None
  3793 ;; Tracked objects:
  3794 ;;		On entry : 0/0
  3795 ;;		On exit  : 0/0
  3796 ;;		Unchanged: 0/0
  3797 ;; Data sizes:     COMRAM   BANK0   BANK1   BANK2   BANK3   BANK4   BANK5   BANK6   BANK7
  3798 ;;      Params:         0       0       0       0       0       0       0       0       0
  3799 ;;      Locals:         0       0       0       0       0       0       0       0       0
  3800 ;;      Temps:          0       0       0       0       0       0       0       0       0
  3801 ;;      Totals:         0       0       0       0       0       0       0       0       0
  3802 ;;Total ram usage:        0 bytes
  3803 ;; Hardware stack levels used: 1
  3804 ;; Hardware stack levels required when called: 7
  3805 ;; This function calls:
  3806 ;;		Nothing
  3807 ;; This function is called by:
  3808 ;;		_I2C1_Close
  3809 ;; This function uses a non-reentrant model
  3810 ;;
  3811                           
  3812                           	psect	text23
  3813   0012C0                     __ptext23:
  3814                           	callstack 0
  3815   0012C0                     _I2C1_MasterClose:
  3816                           	callstack 18
  3817   0012C0                     
  3818                           ;mcc_generated_files/i2c1_master.c: 561:     SSP1CON1bits.SSPEN = 0;
  3819   0012C0  9AC6               	bcf	198,5,c	;volatile
  3820   0012C2  0012               	return		;funcret
  3821   0012C4                     __end_of_I2C1_MasterClose:
  3822                           	callstack 0
  3823                           
  3824 ;; *************** function _I2C1_MasterClearIrq *****************
  3825 ;; Defined at:
  3826 ;;		line 642 in file "mcc_generated_files/i2c1_master.c"
  3827 ;; Parameters:    Size  Location     Type
  3828 ;;		None
  3829 ;; Auto vars:     Size  Location     Type
  3830 ;;		None
  3831 ;; Return value:  Size  Location     Type
  3832 ;;                  1    wreg      void 
  3833 ;; Registers used:
  3834 ;;		None
  3835 ;; Tracked objects:
  3836 ;;		On entry : 0/0
  3837 ;;		On exit  : 0/0
  3838 ;;		Unchanged: 0/0
  3839 ;; Data sizes:     COMRAM   BANK0   BANK1   BANK2   BANK3   BANK4   BANK5   BANK6   BANK7
  3840 ;;      Params:         0       0       0       0       0       0       0       0       0
  3841 ;;      Locals:         0       0       0       0       0       0       0       0       0
  3842 ;;      Temps:          0       0       0       0       0       0       0       0       0
  3843 ;;      Totals:         0       0       0       0       0       0       0       0       0
  3844 ;;Total ram usage:        0 bytes
  3845 ;; Hardware stack levels used: 1
  3846 ;; Hardware stack levels required when called: 7
  3847 ;; This function calls:
  3848 ;;		Nothing
  3849 ;; This function is called by:
  3850 ;;		_I2C1_Open
  3851 ;;		_I2C1_Close
  3852 ;; This function uses a non-reentrant model
  3853 ;;
  3854                           
  3855                           	psect	text24
  3856   0012C4                     __ptext24:
  3857                           	callstack 0
  3858   0012C4                     _I2C1_MasterClearIrq:
  3859                           	callstack 18
  3860   0012C4                     
  3861                           ;mcc_generated_files/i2c1_master.c: 644:     PIR1bits.SSP1IF = 0;
  3862   0012C4  969E               	bcf	158,3,c	;volatile
  3863   0012C6  0012               	return		;funcret
  3864   0012C8                     __end_of_I2C1_MasterClearIrq:
  3865                           	callstack 0
  3866                           
  3867 ;; *************** function _lcd_busy *****************
  3868 ;; Defined at:
  3869 ;;		line 167 in file "seri_lcd.c"
  3870 ;; Parameters:    Size  Location     Type
  3871 ;;		None
  3872 ;; Auto vars:     Size  Location     Type
  3873 ;;		None
  3874 ;; Return value:  Size  Location     Type
  3875 ;;                  1    wreg      void 
  3876 ;; Registers used:
  3877 ;;		wreg
  3878 ;; Tracked objects:
  3879 ;;		On entry : 0/0
  3880 ;;		On exit  : 0/0
  3881 ;;		Unchanged: 0/0
  3882 ;; Data sizes:     COMRAM   BANK0   BANK1   BANK2   BANK3   BANK4   BANK5   BANK6   BANK7
  3883 ;;      Params:         0       0       0       0       0       0       0       0       0
  3884 ;;      Locals:         0       0       0       0       0       0       0       0       0
  3885 ;;      Temps:          0       0       0       0       0       0       0       0       0
  3886 ;;      Totals:         0       0       0       0       0       0       0       0       0
  3887 ;;Total ram usage:        0 bytes
  3888 ;; Hardware stack levels used: 1
  3889 ;; Hardware stack levels required when called: 7
  3890 ;; This function calls:
  3891 ;;		Nothing
  3892 ;; This function is called by:
  3893 ;;		_lcd_writeletter
  3894 ;;		_lcd_command
  3895 ;; This function uses a non-reentrant model
  3896 ;;
  3897                           
  3898                           	psect	text25
  3899   00122E                     __ptext25:
  3900                           	callstack 0
  3901   00122E                     _lcd_busy:
  3902                           	callstack 21
  3903   00122E                     
  3904                           ;seri_lcd.c: 168:     _delay((unsigned long)((100)*(16000000/4000000.0)));
  3905   00122E  0E85               	movlw	133
  3906   001230                     u1717:
  3907   001230  2EE8               	decfsz	wreg,f,c
  3908   001232  D7FE               	bra	u1717
  3909   001234  0000               	nop	
  3910   001236  0012               	return		;funcret
  3911   001238                     __end_of_lcd_busy:
  3912                           	callstack 0
  3913                           
  3914 ;; *************** function _SYSTEM_Initialize *****************
  3915 ;; Defined at:
  3916 ;;		line 50 in file "mcc_generated_files/mcc.c"
  3917 ;; Parameters:    Size  Location     Type
  3918 ;;		None
  3919 ;; Auto vars:     Size  Location     Type
  3920 ;;		None
  3921 ;; Return value:  Size  Location     Type
  3922 ;;                  1    wreg      void 
  3923 ;; Registers used:
  3924 ;;		wreg, status,2, cstack
  3925 ;; Tracked objects:
  3926 ;;		On entry : 0/0
  3927 ;;		On exit  : 0/0
  3928 ;;		Unchanged: 0/0
  3929 ;; Data sizes:     COMRAM   BANK0   BANK1   BANK2   BANK3   BANK4   BANK5   BANK6   BANK7
  3930 ;;      Params:         0       0       0       0       0       0       0       0       0
  3931 ;;      Locals:         0       0       0       0       0       0       0       0       0
  3932 ;;      Temps:          0       0       0       0       0       0       0       0       0
  3933 ;;      Totals:         0       0       0       0       0       0       0       0       0
  3934 ;;Total ram usage:        0 bytes
  3935 ;; Hardware stack levels used: 1
  3936 ;; Hardware stack levels required when called: 8
  3937 ;; This function calls:
  3938 ;;		_I2C1_Initialize
  3939 ;;		_INTERRUPT_Initialize
  3940 ;;		_OSCILLATOR_Initialize
  3941 ;;		_PIN_MANAGER_Initialize
  3942 ;; This function is called by:
  3943 ;;		_main
  3944 ;; This function uses a non-reentrant model
  3945 ;;
  3946                           
  3947                           	psect	text26
  3948   0011CE                     __ptext26:
  3949                           	callstack 0
  3950   0011CE                     _SYSTEM_Initialize:
  3951                           	callstack 22
  3952   0011CE                     
  3953                           ;mcc_generated_files/mcc.c: 53:     INTERRUPT_Initialize();
  3954   0011CE  EC64  F009         	call	_INTERRUPT_Initialize	;wreg free
  3955   0011D2                     
  3956                           ;mcc_generated_files/mcc.c: 54:     I2C1_Initialize();
  3957   0011D2  ECF0  F008         	call	_I2C1_Initialize	;wreg free
  3958   0011D6                     
  3959                           ;mcc_generated_files/mcc.c: 55:     PIN_MANAGER_Initialize();
  3960   0011D6  EC69  F008         	call	_PIN_MANAGER_Initialize	;wreg free
  3961   0011DA                     
  3962                           ;mcc_generated_files/mcc.c: 56:     OSCILLATOR_Initialize();
  3963   0011DA  ECF8  F008         	call	_OSCILLATOR_Initialize	;wreg free
  3964   0011DE  0012               	return		;funcret
  3965   0011E0                     __end_of_SYSTEM_Initialize:
  3966                           	callstack 0
  3967                           
  3968 ;; *************** function _PIN_MANAGER_Initialize *****************
  3969 ;; Defined at:
  3970 ;;		line 55 in file "mcc_generated_files/pin_manager.c"
  3971 ;; Parameters:    Size  Location     Type
  3972 ;;		None
  3973 ;; Auto vars:     Size  Location     Type
  3974 ;;		None
  3975 ;; Return value:  Size  Location     Type
  3976 ;;                  1    wreg      void 
  3977 ;; Registers used:
  3978 ;;		wreg, status,2
  3979 ;; Tracked objects:
  3980 ;;		On entry : 0/0
  3981 ;;		On exit  : 0/0
  3982 ;;		Unchanged: 0/0
  3983 ;; Data sizes:     COMRAM   BANK0   BANK1   BANK2   BANK3   BANK4   BANK5   BANK6   BANK7
  3984 ;;      Params:         0       0       0       0       0       0       0       0       0
  3985 ;;      Locals:         0       0       0       0       0       0       0       0       0
  3986 ;;      Temps:          0       0       0       0       0       0       0       0       0
  3987 ;;      Totals:         0       0       0       0       0       0       0       0       0
  3988 ;;Total ram usage:        0 bytes
  3989 ;; Hardware stack levels used: 1
  3990 ;; Hardware stack levels required when called: 7
  3991 ;; This function calls:
  3992 ;;		Nothing
  3993 ;; This function is called by:
  3994 ;;		_SYSTEM_Initialize
  3995 ;; This function uses a non-reentrant model
  3996 ;;
  3997                           
  3998                           	psect	text27
  3999   0010D2                     __ptext27:
  4000                           	callstack 0
  4001   0010D2                     _PIN_MANAGER_Initialize:
  4002                           	callstack 22
  4003   0010D2                     
  4004                           ;mcc_generated_files/pin_manager.c: 60:     LATA = 0x00;
  4005   0010D2  6A89               	clrf	137,c	;volatile
  4006                           
  4007                           ;mcc_generated_files/pin_manager.c: 61:     LATB = 0x00;
  4008   0010D4  6A8A               	clrf	138,c	;volatile
  4009                           
  4010                           ;mcc_generated_files/pin_manager.c: 62:     LATC = 0x00;
  4011   0010D6  6A8B               	clrf	139,c	;volatile
  4012                           
  4013                           ;mcc_generated_files/pin_manager.c: 67:     TRISA = 0xFF;
  4014   0010D8  6892               	setf	146,c	;volatile
  4015                           
  4016                           ;mcc_generated_files/pin_manager.c: 68:     TRISB = 0xFF;
  4017   0010DA  6893               	setf	147,c	;volatile
  4018   0010DC                     
  4019                           ;mcc_generated_files/pin_manager.c: 69:     TRISC = 0xC7;
  4020   0010DC  0EC7               	movlw	199
  4021   0010DE  6E94               	movwf	148,c	;volatile
  4022                           
  4023                           ;mcc_generated_files/pin_manager.c: 74:     ANSELC = 0xC4;
  4024   0010E0  0EC4               	movlw	196
  4025   0010E2  010F               	movlb	15	; () banked
  4026   0010E4  6F5D               	movwf	93,b	;volatile
  4027                           
  4028                           ;mcc_generated_files/pin_manager.c: 75:     ANSELB = 0x3C;
  4029   0010E6  0E3C               	movlw	60
  4030   0010E8  6F5C               	movwf	92,b	;volatile
  4031                           
  4032                           ;mcc_generated_files/pin_manager.c: 76:     ANSELA = 0x2F;
  4033   0010EA  0E2F               	movlw	47
  4034   0010EC  6F5B               	movwf	91,b	;volatile
  4035                           
  4036                           ;mcc_generated_files/pin_manager.c: 81:     WPUB = 0x03;
  4037   0010EE  0E03               	movlw	3
  4038   0010F0  6E85               	movwf	133,c	;volatile
  4039   0010F2                     
  4040                           ; BSR set to: 15
  4041                           ;mcc_generated_files/pin_manager.c: 82:     INTCON2bits.nRBPU = 0;
  4042   0010F2  9EF1               	bcf	241,7,c	;volatile
  4043   0010F4                     
  4044                           ; BSR set to: 15
  4045   0010F4  0012               	return		;funcret
  4046   0010F6                     __end_of_PIN_MANAGER_Initialize:
  4047                           	callstack 0
  4048                           
  4049 ;; *************** function _OSCILLATOR_Initialize *****************
  4050 ;; Defined at:
  4051 ;;		line 59 in file "mcc_generated_files/mcc.c"
  4052 ;; Parameters:    Size  Location     Type
  4053 ;;		None
  4054 ;; Auto vars:     Size  Location     Type
  4055 ;;		None
  4056 ;; Return value:  Size  Location     Type
  4057 ;;                  1    wreg      void 
  4058 ;; Registers used:
  4059 ;;		wreg, status,2
  4060 ;; Tracked objects:
  4061 ;;		On entry : 0/0
  4062 ;;		On exit  : 0/0
  4063 ;;		Unchanged: 0/0
  4064 ;; Data sizes:     COMRAM   BANK0   BANK1   BANK2   BANK3   BANK4   BANK5   BANK6   BANK7
  4065 ;;      Params:         0       0       0       0       0       0       0       0       0
  4066 ;;      Locals:         0       0       0       0       0       0       0       0       0
  4067 ;;      Temps:          0       0       0       0       0       0       0       0       0
  4068 ;;      Totals:         0       0       0       0       0       0       0       0       0
  4069 ;;Total ram usage:        0 bytes
  4070 ;; Hardware stack levels used: 1
  4071 ;; Hardware stack levels required when called: 7
  4072 ;; This function calls:
  4073 ;;		Nothing
  4074 ;; This function is called by:
  4075 ;;		_SYSTEM_Initialize
  4076 ;; This function uses a non-reentrant model
  4077 ;;
  4078                           
  4079                           	psect	text28
  4080   0011F0                     __ptext28:
  4081                           	callstack 0
  4082   0011F0                     _OSCILLATOR_Initialize:
  4083                           	callstack 22
  4084   0011F0                     
  4085                           ;mcc_generated_files/mcc.c: 62:     OSCCON = 0x72;
  4086   0011F0  0E72               	movlw	114
  4087   0011F2  6ED3               	movwf	211,c	;volatile
  4088   0011F4                     
  4089                           ;mcc_generated_files/mcc.c: 64:     OSCCON2 = 0x00;
  4090   0011F4  6AD2               	clrf	210,c	;volatile
  4091                           
  4092                           ;mcc_generated_files/mcc.c: 66:     OSCTUNE = 0x80;
  4093   0011F6  0E80               	movlw	128
  4094   0011F8  6E9B               	movwf	155,c	;volatile
  4095   0011FA                     
  4096                           ;mcc_generated_files/mcc.c: 68:     ACTCON = 0x00;
  4097   0011FA  6AB5               	clrf	181,c	;volatile
  4098   0011FC  0012               	return		;funcret
  4099   0011FE                     __end_of_OSCILLATOR_Initialize:
  4100                           	callstack 0
  4101                           
  4102 ;; *************** function _INTERRUPT_Initialize *****************
  4103 ;; Defined at:
  4104 ;;		line 52 in file "mcc_generated_files/interrupt_manager.c"
  4105 ;; Parameters:    Size  Location     Type
  4106 ;;		None
  4107 ;; Auto vars:     Size  Location     Type
  4108 ;;		None
  4109 ;; Return value:  Size  Location     Type
  4110 ;;                  1    wreg      void 
  4111 ;; Registers used:
  4112 ;;		None
  4113 ;; Tracked objects:
  4114 ;;		On entry : 0/0
  4115 ;;		On exit  : 0/0
  4116 ;;		Unchanged: 0/0
  4117 ;; Data sizes:     COMRAM   BANK0   BANK1   BANK2   BANK3   BANK4   BANK5   BANK6   BANK7
  4118 ;;      Params:         0       0       0       0       0       0       0       0       0
  4119 ;;      Locals:         0       0       0       0       0       0       0       0       0
  4120 ;;      Temps:          0       0       0       0       0       0       0       0       0
  4121 ;;      Totals:         0       0       0       0       0       0       0       0       0
  4122 ;;Total ram usage:        0 bytes
  4123 ;; Hardware stack levels used: 1
  4124 ;; Hardware stack levels required when called: 7
  4125 ;; This function calls:
  4126 ;;		Nothing
  4127 ;; This function is called by:
  4128 ;;		_SYSTEM_Initialize
  4129 ;; This function uses a non-reentrant model
  4130 ;;
  4131                           
  4132                           	psect	text29
  4133   0012C8                     __ptext29:
  4134                           	callstack 0
  4135   0012C8                     _INTERRUPT_Initialize:
  4136                           	callstack 22
  4137   0012C8                     
  4138                           ;mcc_generated_files/interrupt_manager.c: 55:     RCONbits.IPEN = 0;
  4139   0012C8  9ED0               	bcf	208,7,c	;volatile
  4140   0012CA  0012               	return		;funcret
  4141   0012CC                     __end_of_INTERRUPT_Initialize:
  4142                           	callstack 0
  4143                           
  4144 ;; *************** function _I2C1_Initialize *****************
  4145 ;; Defined at:
  4146 ;;		line 167 in file "mcc_generated_files/i2c1_master.c"
  4147 ;; Parameters:    Size  Location     Type
  4148 ;;		None
  4149 ;; Auto vars:     Size  Location     Type
  4150 ;;		None
  4151 ;; Return value:  Size  Location     Type
  4152 ;;                  1    wreg      void 
  4153 ;; Registers used:
  4154 ;;		wreg, status,2
  4155 ;; Tracked objects:
  4156 ;;		On entry : 0/0
  4157 ;;		On exit  : 0/0
  4158 ;;		Unchanged: 0/0
  4159 ;; Data sizes:     COMRAM   BANK0   BANK1   BANK2   BANK3   BANK4   BANK5   BANK6   BANK7
  4160 ;;      Params:         0       0       0       0       0       0       0       0       0
  4161 ;;      Locals:         0       0       0       0       0       0       0       0       0
  4162 ;;      Temps:          0       0       0       0       0       0       0       0       0
  4163 ;;      Totals:         0       0       0       0       0       0       0       0       0
  4164 ;;Total ram usage:        0 bytes
  4165 ;; Hardware stack levels used: 1
  4166 ;; Hardware stack levels required when called: 7
  4167 ;; This function calls:
  4168 ;;		Nothing
  4169 ;; This function is called by:
  4170 ;;		_SYSTEM_Initialize
  4171 ;; This function uses a non-reentrant model
  4172 ;;
  4173                           
  4174                           	psect	text30
  4175   0011E0                     __ptext30:
  4176                           	callstack 0
  4177   0011E0                     _I2C1_Initialize:
  4178                           	callstack 22
  4179   0011E0                     
  4180                           ;mcc_generated_files/i2c1_master.c: 169:     SSP1STAT = 0x00;
  4181   0011E0  6AC7               	clrf	199,c	;volatile
  4182   0011E2                     
  4183                           ;mcc_generated_files/i2c1_master.c: 170:     SSP1CON1 = 0x08;
  4184   0011E2  0E08               	movlw	8
  4185   0011E4  6EC6               	movwf	198,c	;volatile
  4186   0011E6                     
  4187                           ;mcc_generated_files/i2c1_master.c: 171:     SSP1CON2 = 0x00;
  4188   0011E6  6AC5               	clrf	197,c	;volatile
  4189                           
  4190                           ;mcc_generated_files/i2c1_master.c: 172:     SSP1ADD = 0x27;
  4191   0011E8  0E27               	movlw	39
  4192   0011EA  6EC8               	movwf	200,c	;volatile
  4193   0011EC                     
  4194                           ;mcc_generated_files/i2c1_master.c: 173:     SSP1CON1bits.SSPEN = 0;
  4195   0011EC  9AC6               	bcf	198,5,c	;volatile
  4196   0011EE  0012               	return		;funcret
  4197   0011F0                     __end_of_I2C1_Initialize:
  4198                           	callstack 0
  4199                           
  4200 ;; *************** function _INTERRUPT_InterruptManager *****************
  4201 ;; Defined at:
  4202 ;;		line 58 in file "mcc_generated_files/interrupt_manager.c"
  4203 ;; Parameters:    Size  Location     Type
  4204 ;;		None
  4205 ;; Auto vars:     Size  Location     Type
  4206 ;;		None
  4207 ;; Return value:  Size  Location     Type
  4208 ;;                  1    wreg      void 
  4209 ;; Registers used:
  4210 ;;		wreg, fsr2l, fsr2h, status,2, status,0, pcl, pclath, pclatu, tosl, tblptrl, tblptrh, tblptru, prodl, prodh, cstack
  4211 ;; Tracked objects:
  4212 ;;		On entry : 0/0
  4213 ;;		On exit  : 0/0
  4214 ;;		Unchanged: 0/0
  4215 ;; Data sizes:     COMRAM   BANK0   BANK1   BANK2   BANK3   BANK4   BANK5   BANK6   BANK7
  4216 ;;      Params:         0       0       0       0       0       0       0       0       0
  4217 ;;      Locals:         0       0       0       0       0       0       0       0       0
  4218 ;;      Temps:         10       0       0       0       0       0       0       0       0
  4219 ;;      Totals:        10       0       0       0       0       0       0       0       0
  4220 ;;Total ram usage:       10 bytes
  4221 ;; Hardware stack levels used: 1
  4222 ;; Hardware stack levels required when called: 6
  4223 ;; This function calls:
  4224 ;;		NULL
  4225 ;;		_I2C1_MasterIsr
  4226 ;; This function is called by:
  4227 ;;		Interrupt level 2
  4228 ;; This function uses a non-reentrant model
  4229 ;;
  4230                           
  4231                           	psect	intcode
  4232   000008                     __pintcode:
  4233                           	callstack 0
  4234   000008                     _INTERRUPT_InterruptManager:
  4235                           	callstack 16
  4236                           
  4237                           ;incstack = 0
  4238   000008  8249               	bsf	int$flags,1,c	;set compiler interrupt flag (level 2)
  4239   00000A  CFFA F00D          	movff	pclath,??_INTERRUPT_InterruptManager
  4240   00000E  CFFB F00E          	movff	pclatu,??_INTERRUPT_InterruptManager+1
  4241   000012  CFD9 F00F          	movff	fsr2l,??_INTERRUPT_InterruptManager+2
  4242   000016  CFDA F010          	movff	fsr2h,??_INTERRUPT_InterruptManager+3
  4243   00001A  CFF3 F011          	movff	prodl,??_INTERRUPT_InterruptManager+4
  4244   00001E  CFF4 F012          	movff	prodh,??_INTERRUPT_InterruptManager+5
  4245   000022  CFF6 F013          	movff	tblptrl,??_INTERRUPT_InterruptManager+6
  4246   000026  CFF7 F014          	movff	tblptrh,??_INTERRUPT_InterruptManager+7
  4247   00002A  CFF8 F015          	movff	tblptru,??_INTERRUPT_InterruptManager+8
  4248   00002E  CFF5 F016          	movff	tablat,??_INTERRUPT_InterruptManager+9
  4249   000032                     
  4250                           ;mcc_generated_files/interrupt_manager.c: 61:     if(INTCONbits.PEIE == 1)
  4251   000032  ACF2               	btfss	242,6,c	;volatile
  4252   000034  EF1E  F000         	goto	i2u81_41
  4253   000038  EF20  F000         	goto	i2u81_40
  4254   00003C                     i2u81_41:
  4255   00003C  EF4D  F000         	goto	i2l58
  4256   000040                     i2u81_40:
  4257   000040                     
  4258                           ;mcc_generated_files/interrupt_manager.c: 62:     {;mcc_generated_files/interrupt_manage
      +                          r.c: 63:         if(PIE2bits.BCL1IE == 1 && PIR2bits.BCL1IF == 1)
  4259   000040  A6A0               	btfss	160,3,c	;volatile
  4260   000042  EF25  F000         	goto	i2u82_41
  4261   000046  EF27  F000         	goto	i2u82_40
  4262   00004A                     i2u82_41:
  4263   00004A  EF3D  F000         	goto	i2l53
  4264   00004E                     i2u82_40:
  4265   00004E  A6A1               	btfss	161,3,c	;volatile
  4266   000050  EF2C  F000         	goto	i2u83_41
  4267   000054  EF2E  F000         	goto	i2u83_40
  4268   000058                     i2u83_41:
  4269   000058  EF3D  F000         	goto	i2l53
  4270   00005C                     i2u83_40:
  4271   00005C                     i2l2888:
  4272                           
  4273                           ;mcc_generated_files/interrupt_manager.c: 64:         {;mcc_generated_files/interrupt_ma
      +                          nager.c: 65:             MSSP1_InterruptHandler();
  4274   00005C  D802               	call	i2u84_48
  4275   00005E  EF3B  F000         	goto	i2u84_49
  4276   000062                     i2u84_48:
  4277   000062  0005               	push	
  4278   000064  6EFA               	movwf	pclath,c
  4279   000066  5045               	movf	_MSSP1_InterruptHandler^0,w,c
  4280   000068  6EFD               	movwf	tosl,c
  4281   00006A  5046               	movf	(_MSSP1_InterruptHandler+1)^0,w,c
  4282   00006C  6EFE               	movwf	tosh,c
  4283   00006E  50F8               	movf	tblptru,w,c
  4284   000070  6EFF               	movwf	tosu,c
  4285   000072  50FA               	movf	pclath,w,c
  4286   000074  0012               	return		;indir
  4287   000076                     i2u84_49:
  4288                           
  4289                           ;mcc_generated_files/interrupt_manager.c: 66:         }
  4290   000076  EF4D  F000         	goto	i2l58
  4291   00007A                     i2l53:
  4292   00007A  A69D               	btfss	157,3,c	;volatile
  4293   00007C  EF42  F000         	goto	i2u85_41
  4294   000080  EF44  F000         	goto	i2u85_40
  4295   000084                     i2u85_41:
  4296   000084  EF4D  F000         	goto	i2l54
  4297   000088                     i2u85_40:
  4298   000088  A69E               	btfss	158,3,c	;volatile
  4299   00008A  EF49  F000         	goto	i2u86_41
  4300   00008E  EF4B  F000         	goto	i2u86_40
  4301   000092                     i2u86_41:
  4302   000092  EF4D  F000         	goto	i2l54
  4303   000096                     i2u86_40:
  4304   000096  EF2E  F000         	goto	i2l2888
  4305   00009A                     i2l54:
  4306   00009A                     i2l58:
  4307   00009A  C016  FFF5         	movff	??_INTERRUPT_InterruptManager+9,tablat
  4308   00009E  C015  FFF8         	movff	??_INTERRUPT_InterruptManager+8,tblptru
  4309   0000A2  C014  FFF7         	movff	??_INTERRUPT_InterruptManager+7,tblptrh
  4310   0000A6  C013  FFF6         	movff	??_INTERRUPT_InterruptManager+6,tblptrl
  4311   0000AA  C012  FFF4         	movff	??_INTERRUPT_InterruptManager+5,prodh
  4312   0000AE  C011  FFF3         	movff	??_INTERRUPT_InterruptManager+4,prodl
  4313   0000B2  C010  FFDA         	movff	??_INTERRUPT_InterruptManager+3,fsr2h
  4314   0000B6  C00F  FFD9         	movff	??_INTERRUPT_InterruptManager+2,fsr2l
  4315   0000BA  C00E  FFFB         	movff	??_INTERRUPT_InterruptManager+1,pclatu
  4316   0000BE  C00D  FFFA         	movff	??_INTERRUPT_InterruptManager,pclath
  4317   0000C2  9249               	bcf	int$flags,1,c	;clear compiler interrupt flag (level 2)
  4318   0000C4  0011               	retfie		f
  4319   0000C6                     __end_of_INTERRUPT_InterruptManager:
  4320                           	callstack 0
  4321                           
  4322 ;; *************** function _I2C1_MasterIsr *****************
  4323 ;; Defined at:
  4324 ;;		line 318 in file "mcc_generated_files/i2c1_master.c"
  4325 ;; Parameters:    Size  Location     Type
  4326 ;;		None
  4327 ;; Auto vars:     Size  Location     Type
  4328 ;;		None
  4329 ;; Return value:  Size  Location     Type
  4330 ;;                  1    wreg      void 
  4331 ;; Registers used:
  4332 ;;		wreg, fsr2l, fsr2h, status,2, status,0, pcl, pclath, pclatu, tosl, tblptrl, tblptrh, tblptru, prodl, prodh, cstack
  4333 ;; Tracked objects:
  4334 ;;		On entry : 0/0
  4335 ;;		On exit  : 0/0
  4336 ;;		Unchanged: 0/0
  4337 ;; Data sizes:     COMRAM   BANK0   BANK1   BANK2   BANK3   BANK4   BANK5   BANK6   BANK7
  4338 ;;      Params:         0       0       0       0       0       0       0       0       0
  4339 ;;      Locals:         0       0       0       0       0       0       0       0       0
  4340 ;;      Temps:          0       0       0       0       0       0       0       0       0
  4341 ;;      Totals:         0       0       0       0       0       0       0       0       0
  4342 ;;Total ram usage:        0 bytes
  4343 ;; Hardware stack levels used: 1
  4344 ;; Hardware stack levels required when called: 5
  4345 ;; This function calls:
  4346 ;;		_I2C1_MasterFsm
  4347 ;; This function is called by:
  4348 ;;		_I2C1_Open
  4349 ;;		_INTERRUPT_InterruptManager
  4350 ;; This function uses a non-reentrant model
  4351 ;;
  4352                           
  4353                           	psect	text32
  4354   0012A2                     __ptext32:
  4355                           	callstack 0
  4356   0012A2                     _I2C1_MasterIsr:
  4357                           	callstack 16
  4358   0012A2                     
  4359                           ;mcc_generated_files/i2c1_master.c: 320:     I2C1_MasterFsm();
  4360   0012A2  EC57  F006         	call	_I2C1_MasterFsm	;wreg free
  4361   0012A6  0012               	return		;funcret
  4362   0012A8                     __end_of_I2C1_MasterIsr:
  4363                           	callstack 0
  4364                           
  4365 ;; *************** function _I2C1_MasterFsm *****************
  4366 ;; Defined at:
  4367 ;;		line 323 in file "mcc_generated_files/i2c1_master.c"
  4368 ;; Parameters:    Size  Location     Type
  4369 ;;		None
  4370 ;; Auto vars:     Size  Location     Type
  4371 ;;		None
  4372 ;; Return value:  Size  Location     Type
  4373 ;;                  1    wreg      void 
  4374 ;; Registers used:
  4375 ;;		wreg, fsr2l, fsr2h, status,2, status,0, pcl, pclath, pclatu, tosl, tblptrl, tblptrh, tblptru, prodl, prodh, cstack
  4376 ;; Tracked objects:
  4377 ;;		On entry : 0/0
  4378 ;;		On exit  : 0/0
  4379 ;;		Unchanged: 0/0
  4380 ;; Data sizes:     COMRAM   BANK0   BANK1   BANK2   BANK3   BANK4   BANK5   BANK6   BANK7
  4381 ;;      Params:         0       0       0       0       0       0       0       0       0
  4382 ;;      Locals:         0       0       0       0       0       0       0       0       0
  4383 ;;      Temps:          1       0       0       0       0       0       0       0       0
  4384 ;;      Totals:         1       0       0       0       0       0       0       0       0
  4385 ;;Total ram usage:        1 bytes
  4386 ;; Hardware stack levels used: 1
  4387 ;; Hardware stack levels required when called: 4
  4388 ;; This function calls:
  4389 ;;		_I2C1_DO_ADDRESS_NACK
  4390 ;;		_I2C1_DO_IDLE
  4391 ;;		_I2C1_DO_RCEN
  4392 ;;		_I2C1_DO_RESET
  4393 ;;		_I2C1_DO_RX
  4394 ;;		_I2C1_DO_RX_ACK
  4395 ;;		_I2C1_DO_RX_NACK_RESTART
  4396 ;;		_I2C1_DO_RX_NACK_STOP
  4397 ;;		_I2C1_DO_SEND_ADR_READ
  4398 ;;		_I2C1_DO_SEND_ADR_WRITE
  4399 ;;		_I2C1_DO_SEND_RESTART
  4400 ;;		_I2C1_DO_SEND_RESTART_READ
  4401 ;;		_I2C1_DO_SEND_RESTART_WRITE
  4402 ;;		_I2C1_DO_SEND_STOP
  4403 ;;		_I2C1_DO_TX
  4404 ;;		_I2C1_DO_TX_EMPTY
  4405 ;;		_I2C1_MasterIsNack
  4406 ;;		i2_I2C1_MasterClearIrq
  4407 ;; This function is called by:
  4408 ;;		_I2C1_MasterIsr
  4409 ;; This function uses a non-reentrant model
  4410 ;;
  4411                           
  4412                           	psect	text33
  4413   000CAE                     __ptext33:
  4414                           	callstack 0
  4415   000CAE                     _I2C1_MasterFsm:
  4416                           	callstack 16
  4417   000CAE                     
  4418                           ;mcc_generated_files/i2c1_master.c: 325:     I2C1_MasterClearIrq();
  4419   000CAE  EC66  F009         	call	i2_I2C1_MasterClearIrq	;wreg free
  4420   000CB2                     
  4421                           ;mcc_generated_files/i2c1_master.c: 327:     if(I2C1_Status.addressNackCheck && I2C1_Mas
      +                          terIsNack())
  4422   000CB2  A044               	btfss	(_I2C1_Status+29)^0,0,c
  4423   000CB4  EF5E  F006         	goto	i2u77_41
  4424   000CB8  EF60  F006         	goto	i2u77_40
  4425   000CBC                     i2u77_41:
  4426   000CBC  EF6C  F006         	goto	i2l2806
  4427   000CC0                     i2u77_40:
  4428   000CC0  ECD3  F008         	call	_I2C1_MasterIsNack	;wreg free
  4429   000CC4  0900               	iorlw	0
  4430   000CC6  B4D8               	btfsc	status,2,c
  4431   000CC8  EF68  F006         	goto	i2u78_41
  4432   000CCC  EF6A  F006         	goto	i2u78_40
  4433   000CD0                     i2u78_41:
  4434   000CD0  EF6C  F006         	goto	i2l2806
  4435   000CD4                     i2u78_40:
  4436   000CD4                     
  4437                           ;mcc_generated_files/i2c1_master.c: 328:     {;mcc_generated_files/i2c1_master.c: 329:  
      +                                 I2C1_Status.state = I2C1_ADDRESS_NACK;
  4438   000CD4  0E0F               	movlw	15
  4439   000CD6  6E42               	movwf	(_I2C1_Status+27)^0,c
  4440   000CD8                     i2l2806:
  4441                           
  4442                           ;mcc_generated_files/i2c1_master.c: 331:     I2C1_Status.state = i2c1_fsmStateTable[I2C1
      +                          _Status.state]();
  4443   000CD8  5042               	movf	(_I2C1_Status+27)^0,w,c
  4444   000CDA  0D02               	mullw	2
  4445   000CDC  50F3               	movf	243,w,c
  4446   000CDE  0F01               	addlw	low _i2c1_fsmStateTable
  4447   000CE0  6E0C               	movwf	??_I2C1_MasterFsm^0,c
  4448   000CE2  C00C  FFF6         	movff	??_I2C1_MasterFsm,tblptrl
  4449   000CE6                     	if	1	;There is more than 1 active tblptr byte
  4450   000CE6  0E08               	movlw	high __smallconst
  4451   000CE8  6EF7               	movwf	tblptrh,c
  4452   000CEA                     	endif
  4453   000CEA                     	if	0	;tblptru may be non-zero
  4454   000CEA                     	endif
  4455   000CEA                     	if	0	;tblptru may be non-zero
  4456   000CEA                     	endif
  4457   000CEA  D802               	call	i2u79_48
  4458   000CEC  EF84  F006         	goto	i2u79_49
  4459   000CF0                     i2u79_48:
  4460   000CF0  0005               	push	
  4461   000CF2  6EFA               	movwf	pclath,c
  4462   000CF4  0009               	tblrd		*+
  4463   000CF6  50F5               	movf	tablat,w,c
  4464   000CF8  6EFD               	movwf	tosl,c
  4465   000CFA  0009               	tblrd		*+
  4466   000CFC  50F5               	movf	tablat,w,c
  4467   000CFE  6EFE               	movwf	tosh,c
  4468   000D00  50F8               	movf	tblptru,w,c
  4469   000D02  6EFF               	movwf	tosu,c
  4470   000D04  50FA               	movf	pclath,w,c
  4471   000D06  0012               	return		;indir
  4472   000D08                     i2u79_49:
  4473   000D08  6E42               	movwf	(_I2C1_Status+27)^0,c
  4474   000D0A  0012               	return		;funcret
  4475   000D0C                     __end_of_I2C1_MasterFsm:
  4476                           	callstack 0
  4477                           
  4478 ;; *************** function i2_I2C1_MasterClearIrq *****************
  4479 ;; Defined at:
  4480 ;;		line 642 in file "mcc_generated_files/i2c1_master.c"
  4481 ;; Parameters:    Size  Location     Type
  4482 ;;		None
  4483 ;; Auto vars:     Size  Location     Type
  4484 ;;		None
  4485 ;; Return value:  Size  Location     Type
  4486 ;;                  1    wreg      void 
  4487 ;; Registers used:
  4488 ;;		None
  4489 ;; Tracked objects:
  4490 ;;		On entry : 0/0
  4491 ;;		On exit  : 0/0
  4492 ;;		Unchanged: 0/0
  4493 ;; Data sizes:     COMRAM   BANK0   BANK1   BANK2   BANK3   BANK4   BANK5   BANK6   BANK7
  4494 ;;      Params:         0       0       0       0       0       0       0       0       0
  4495 ;;      Locals:         0       0       0       0       0       0       0       0       0
  4496 ;;      Temps:          0       0       0       0       0       0       0       0       0
  4497 ;;      Totals:         0       0       0       0       0       0       0       0       0
  4498 ;;Total ram usage:        0 bytes
  4499 ;; Hardware stack levels used: 1
  4500 ;; This function calls:
  4501 ;;		Nothing
  4502 ;; This function is called by:
  4503 ;;		_I2C1_MasterFsm
  4504 ;; This function uses a non-reentrant model
  4505 ;;
  4506                           
  4507                           	psect	text34
  4508   0012CC                     __ptext34:
  4509                           	callstack 0
  4510   0012CC                     i2_I2C1_MasterClearIrq:
  4511                           	callstack 19
  4512   0012CC                     
  4513                           ;mcc_generated_files/i2c1_master.c: 644:     PIR1bits.SSP1IF = 0;
  4514   0012CC  969E               	bcf	158,3,c	;volatile
  4515   0012CE  0012               	return		;funcret
  4516   0012D0                     __end_ofi2_I2C1_MasterClearIrq:
  4517                           	callstack 0
  4518                           
  4519 ;; *************** function _I2C1_DO_ADDRESS_NACK *****************
  4520 ;; Defined at:
  4521 ;;		line 501 in file "mcc_generated_files/i2c1_master.c"
  4522 ;; Parameters:    Size  Location     Type
  4523 ;;		None
  4524 ;; Auto vars:     Size  Location     Type
  4525 ;;		None
  4526 ;; Return value:  Size  Location     Type
  4527 ;;                  1    wreg      enum E5014
  4528 ;; Registers used:
  4529 ;;		wreg, fsr2l, fsr2h, status,2, status,0, pcl, pclath, pclatu, tosl, prodl, prodh, cstack
  4530 ;; Tracked objects:
  4531 ;;		On entry : 0/0
  4532 ;;		On exit  : 0/0
  4533 ;;		Unchanged: 0/0
  4534 ;; Data sizes:     COMRAM   BANK0   BANK1   BANK2   BANK3   BANK4   BANK5   BANK6   BANK7
  4535 ;;      Params:         0       0       0       0       0       0       0       0       0
  4536 ;;      Locals:         0       0       0       0       0       0       0       0       0
  4537 ;;      Temps:          2       0       0       0       0       0       0       0       0
  4538 ;;      Totals:         2       0       0       0       0       0       0       0       0
  4539 ;;Total ram usage:        2 bytes
  4540 ;; Hardware stack levels used: 1
  4541 ;; Hardware stack levels required when called: 3
  4542 ;; This function calls:
  4543 ;;		NULL
  4544 ;;		_I2C1_CallbackReturnReset
  4545 ;;		_I2C1_CallbackReturnStop
  4546 ;;		_I2C1_DO_SEND_RESTART
  4547 ;;		_I2C1_DO_SEND_STOP
  4548 ;;		_rd1RegCompleteHandler
  4549 ;;		_rd1RegCompleteHandler@i2c1_master_example$F1566
  4550 ;;		_rd2RegCompleteHandler
  4551 ;;		_rd2RegCompleteHandler@i2c1_master_example$F1577
  4552 ;;		_rdBlkRegCompleteHandler
  4553 ;;		_rdBlkRegCompleteHandler@i2c1_master_example$F1600
  4554 ;;		_wr1RegCompleteHandler
  4555 ;;		_wr1RegCompleteHandler@i2c1_master_example$F1583
  4556 ;;		_wr2RegCompleteHandler
  4557 ;;		_wr2RegCompleteHandler@i2c1_master_example$F1589
  4558 ;; This function is called by:
  4559 ;;		_I2C1_MasterFsm
  4560 ;; This function uses a non-reentrant model
  4561 ;;
  4562                           
  4563                           	psect	text35
  4564   000B86                     __ptext35:
  4565                           	callstack 0
  4566   000B86                     _I2C1_DO_ADDRESS_NACK:
  4567                           	callstack 16
  4568   000B86                     
  4569                           ;mcc_generated_files/i2c1_master.c: 503:     I2C1_Status.addressNackCheck = 0;
  4570   000B86  9044               	bcf	(_I2C1_Status+29)^0,0,c
  4571   000B88                     
  4572                           ;mcc_generated_files/i2c1_master.c: 504:     I2C1_Status.error = I2C1_FAIL;
  4573   000B88  0E02               	movlw	2
  4574   000B8A  6E43               	movwf	(_I2C1_Status+28)^0,c
  4575                           
  4576                           ;mcc_generated_files/i2c1_master.c: 505:     switch(I2C1_Status.callbackTable[I2C1_ADDR_
      +                          NACK](I2C1_Status.callbackPayload[I2C1_ADDR_NACK]))
  4577   000B8C  EFD0  F005         	goto	i2l2772
  4578   000B90                     i2l2762:
  4579                           
  4580                           ;mcc_generated_files/i2c1_master.c: 509:             return I2C1_DO_SEND_RESTART();
  4581   000B90  EC3D  F009         	call	_I2C1_DO_SEND_RESTART	;wreg free
  4582   000B94  EFF5  F005         	goto	i2l440
  4583   000B98                     i2l2766:
  4584                           
  4585                           ;mcc_generated_files/i2c1_master.c: 511:             return I2C1_DO_SEND_STOP();
  4586   000B98  EC39  F009         	call	_I2C1_DO_SEND_STOP	;wreg free
  4587   000B9C  EFF5  F005         	goto	i2l440
  4588   000BA0                     i2l2772:
  4589   000BA0  C035  F008         	movff	_I2C1_Status+14,rdBlkRegCompleteHandler@i2c1_master_example$F1600@ptr
  4590   000BA4  EE20  F02B         	lfsr	2,_I2C1_Status+4
  4591   000BA8  D802               	call	i2u76_48
  4592   000BAA  EFE1  F005         	goto	i2u76_49
  4593   000BAE                     i2u76_48:
  4594   000BAE  0005               	push	
  4595   000BB0  6EFA               	movwf	pclath,c
  4596   000BB2  50DE               	movf	postinc2,w,c
  4597   000BB4  6EFD               	movwf	tosl,c
  4598   000BB6  50DE               	movf	postinc2,w,c
  4599   000BB8  6EFE               	movwf	tosh,c
  4600   000BBA  50F8               	movf	tblptru,w,c
  4601   000BBC  6EFF               	movwf	tosu,c
  4602   000BBE  50FA               	movf	pclath,w,c
  4603   000BC0  0012               	return		;indir
  4604   000BC2                     i2u76_49:
  4605   000BC2  6E0A               	movwf	??_I2C1_DO_ADDRESS_NACK^0,c
  4606   000BC4  6A0B               	clrf	(??_I2C1_DO_ADDRESS_NACK+1)^0,c
  4607                           
  4608                           ; Switch on 2 bytes has been partitioned into a top level switch of size 1, and 1 sub-sw
      +                          itches
  4609                           ; Switch size 1, requested type "simple"
  4610                           ; Number of cases is 1, Range of values is 0 to 0
  4611                           ; switch strategies available:
  4612                           ; Name         Instructions Cycles
  4613                           ; simple_byte            4     3 (average)
  4614                           ;	Chosen strategy is simple_byte
  4615   000BC6  500B               	movf	(??_I2C1_DO_ADDRESS_NACK+1)^0,w,c
  4616   000BC8  0A00               	xorlw	0	; case 0
  4617   000BCA  B4D8               	btfsc	status,2,c
  4618   000BCC  EFEA  F005         	goto	i2l3902
  4619   000BD0  EFCC  F005         	goto	i2l2766
  4620   000BD4                     i2l3902:
  4621                           
  4622                           ; Switch size 1, requested type "simple"
  4623                           ; Number of cases is 2, Range of values is 2 to 3
  4624                           ; switch strategies available:
  4625                           ; Name         Instructions Cycles
  4626                           ; simple_byte            7     4 (average)
  4627                           ;	Chosen strategy is simple_byte
  4628   000BD4  500A               	movf	??_I2C1_DO_ADDRESS_NACK^0,w,c
  4629   000BD6  0A02               	xorlw	2	; case 2
  4630   000BD8  B4D8               	btfsc	status,2,c
  4631   000BDA  EFC8  F005         	goto	i2l2762
  4632   000BDE  0A01               	xorlw	1	; case 3
  4633   000BE0  B4D8               	btfsc	status,2,c
  4634   000BE2  EFC8  F005         	goto	i2l2762
  4635   000BE6  EFCC  F005         	goto	i2l2766
  4636   000BEA                     i2l440:
  4637   000BEA  0012               	return		;funcret
  4638   000BEC                     __end_of_I2C1_DO_ADDRESS_NACK:
  4639                           	callstack 0
  4640                           
  4641 ;; *************** function _I2C1_DO_RESET *****************
  4642 ;; Defined at:
  4643 ;;		line 495 in file "mcc_generated_files/i2c1_master.c"
  4644 ;; Parameters:    Size  Location     Type
  4645 ;;		None
  4646 ;; Auto vars:     Size  Location     Type
  4647 ;;		None
  4648 ;; Return value:  Size  Location     Type
  4649 ;;                  1    wreg      enum E5014
  4650 ;; Registers used:
  4651 ;;		wreg
  4652 ;; Tracked objects:
  4653 ;;		On entry : 0/0
  4654 ;;		On exit  : 0/0
  4655 ;;		Unchanged: 0/0
  4656 ;; Data sizes:     COMRAM   BANK0   BANK1   BANK2   BANK3   BANK4   BANK5   BANK6   BANK7
  4657 ;;      Params:         0       0       0       0       0       0       0       0       0
  4658 ;;      Locals:         0       0       0       0       0       0       0       0       0
  4659 ;;      Temps:          0       0       0       0       0       0       0       0       0
  4660 ;;      Totals:         0       0       0       0       0       0       0       0       0
  4661 ;;Total ram usage:        0 bytes
  4662 ;; Hardware stack levels used: 1
  4663 ;; This function calls:
  4664 ;;		Nothing
  4665 ;; This function is called by:
  4666 ;;		_I2C1_MasterFsm
  4667 ;; This function uses a non-reentrant model
  4668 ;;
  4669                           
  4670                           	psect	text36
  4671   001252                     __ptext36:
  4672                           	callstack 0
  4673   001252                     _I2C1_DO_RESET:
  4674                           	callstack 19
  4675   001252                     
  4676                           ;mcc_generated_files/i2c1_master.c: 497:     I2C1_Status.busy = 0;
  4677   001252  9244               	bcf	(_I2C1_Status+29)^0,1,c
  4678                           
  4679                           ;mcc_generated_files/i2c1_master.c: 498:     I2C1_Status.error = I2C1_NOERR;
  4680   001254  6A43               	clrf	(_I2C1_Status+28)^0,c
  4681   001256                     
  4682                           ;mcc_generated_files/i2c1_master.c: 499:     return I2C1_RESET;
  4683   001256  0E0E               	movlw	14
  4684   001258  0012               	return		;funcret
  4685   00125A                     __end_of_I2C1_DO_RESET:
  4686                           	callstack 0
  4687                           
  4688 ;; *************** function _I2C1_DO_RX_NACK_RESTART *****************
  4689 ;; Defined at:
  4690 ;;		line 489 in file "mcc_generated_files/i2c1_master.c"
  4691 ;; Parameters:    Size  Location     Type
  4692 ;;		None
  4693 ;; Auto vars:     Size  Location     Type
  4694 ;;		None
  4695 ;; Return value:  Size  Location     Type
  4696 ;;                  1    wreg      enum E5014
  4697 ;; Registers used:
  4698 ;;		wreg, cstack
  4699 ;; Tracked objects:
  4700 ;;		On entry : 0/0
  4701 ;;		On exit  : 0/0
  4702 ;;		Unchanged: 0/0
  4703 ;; Data sizes:     COMRAM   BANK0   BANK1   BANK2   BANK3   BANK4   BANK5   BANK6   BANK7
  4704 ;;      Params:         0       0       0       0       0       0       0       0       0
  4705 ;;      Locals:         0       0       0       0       0       0       0       0       0
  4706 ;;      Temps:          0       0       0       0       0       0       0       0       0
  4707 ;;      Totals:         0       0       0       0       0       0       0       0       0
  4708 ;;Total ram usage:        0 bytes
  4709 ;; Hardware stack levels used: 1
  4710 ;; Hardware stack levels required when called: 1
  4711 ;; This function calls:
  4712 ;;		_I2C1_MasterSendNack
  4713 ;; This function is called by:
  4714 ;;		_I2C1_DO_RX
  4715 ;;		_I2C1_MasterFsm
  4716 ;; This function uses a non-reentrant model
  4717 ;;
  4718                           
  4719                           	psect	text37
  4720   00125A                     __ptext37:
  4721                           	callstack 0
  4722   00125A                     _I2C1_DO_RX_NACK_RESTART:
  4723                           	callstack 18
  4724   00125A                     
  4725                           ;mcc_generated_files/i2c1_master.c: 491:     I2C1_MasterSendNack();
  4726   00125A  EC57  F009         	call	_I2C1_MasterSendNack	;wreg free
  4727   00125E                     
  4728                           ;mcc_generated_files/i2c1_master.c: 492:     return I2C1_SEND_RESTART;
  4729   00125E  0E09               	movlw	9
  4730   001260  0012               	return		;funcret
  4731   001262                     __end_of_I2C1_DO_RX_NACK_RESTART:
  4732                           	callstack 0
  4733                           
  4734 ;; *************** function _I2C1_DO_RX_NACK_STOP *****************
  4735 ;; Defined at:
  4736 ;;		line 483 in file "mcc_generated_files/i2c1_master.c"
  4737 ;; Parameters:    Size  Location     Type
  4738 ;;		None
  4739 ;; Auto vars:     Size  Location     Type
  4740 ;;		None
  4741 ;; Return value:  Size  Location     Type
  4742 ;;                  1    wreg      enum E5014
  4743 ;; Registers used:
  4744 ;;		wreg, cstack
  4745 ;; Tracked objects:
  4746 ;;		On entry : 0/0
  4747 ;;		On exit  : 0/0
  4748 ;;		Unchanged: 0/0
  4749 ;; Data sizes:     COMRAM   BANK0   BANK1   BANK2   BANK3   BANK4   BANK5   BANK6   BANK7
  4750 ;;      Params:         0       0       0       0       0       0       0       0       0
  4751 ;;      Locals:         0       0       0       0       0       0       0       0       0
  4752 ;;      Temps:          0       0       0       0       0       0       0       0       0
  4753 ;;      Totals:         0       0       0       0       0       0       0       0       0
  4754 ;;Total ram usage:        0 bytes
  4755 ;; Hardware stack levels used: 1
  4756 ;; Hardware stack levels required when called: 1
  4757 ;; This function calls:
  4758 ;;		_I2C1_MasterSendNack
  4759 ;; This function is called by:
  4760 ;;		_I2C1_DO_RX
  4761 ;;		_I2C1_MasterFsm
  4762 ;; This function uses a non-reentrant model
  4763 ;;
  4764                           
  4765                           	psect	text38
  4766   001262                     __ptext38:
  4767                           	callstack 0
  4768   001262                     _I2C1_DO_RX_NACK_STOP:
  4769                           	callstack 18
  4770   001262                     
  4771                           ;mcc_generated_files/i2c1_master.c: 485:     I2C1_MasterSendNack();
  4772   001262  EC57  F009         	call	_I2C1_MasterSendNack	;wreg free
  4773   001266                     
  4774                           ;mcc_generated_files/i2c1_master.c: 486:     return I2C1_SEND_STOP;
  4775   001266  0E0A               	movlw	10
  4776   001268  0012               	return		;funcret
  4777   00126A                     __end_of_I2C1_DO_RX_NACK_STOP:
  4778                           	callstack 0
  4779                           
  4780 ;; *************** function _I2C1_DO_RX_ACK *****************
  4781 ;; Defined at:
  4782 ;;		line 476 in file "mcc_generated_files/i2c1_master.c"
  4783 ;; Parameters:    Size  Location     Type
  4784 ;;		None
  4785 ;; Auto vars:     Size  Location     Type
  4786 ;;		None
  4787 ;; Return value:  Size  Location     Type
  4788 ;;                  1    wreg      enum E5014
  4789 ;; Registers used:
  4790 ;;		wreg, cstack
  4791 ;; Tracked objects:
  4792 ;;		On entry : 0/0
  4793 ;;		On exit  : 0/0
  4794 ;;		Unchanged: 0/0
  4795 ;; Data sizes:     COMRAM   BANK0   BANK1   BANK2   BANK3   BANK4   BANK5   BANK6   BANK7
  4796 ;;      Params:         0       0       0       0       0       0       0       0       0
  4797 ;;      Locals:         0       0       0       0       0       0       0       0       0
  4798 ;;      Temps:          0       0       0       0       0       0       0       0       0
  4799 ;;      Totals:         0       0       0       0       0       0       0       0       0
  4800 ;;Total ram usage:        0 bytes
  4801 ;; Hardware stack levels used: 1
  4802 ;; Hardware stack levels required when called: 1
  4803 ;; This function calls:
  4804 ;;		_I2C1_MasterSendAck
  4805 ;; This function is called by:
  4806 ;;		_I2C1_MasterFsm
  4807 ;; This function uses a non-reentrant model
  4808 ;;
  4809                           
  4810                           	psect	text39
  4811   00126A                     __ptext39:
  4812                           	callstack 0
  4813   00126A                     _I2C1_DO_RX_ACK:
  4814                           	callstack 18
  4815   00126A                     
  4816                           ;mcc_generated_files/i2c1_master.c: 478:     I2C1_MasterSendAck();
  4817   00126A  EC54  F009         	call	_I2C1_MasterSendAck	;wreg free
  4818   00126E                     
  4819                           ;mcc_generated_files/i2c1_master.c: 479:     return I2C1_RCEN;
  4820   00126E  0E05               	movlw	5
  4821   001270  0012               	return		;funcret
  4822   001272                     __end_of_I2C1_DO_RX_ACK:
  4823                           	callstack 0
  4824                           
  4825 ;; *************** function _I2C1_DO_SEND_STOP *****************
  4826 ;; Defined at:
  4827 ;;		line 470 in file "mcc_generated_files/i2c1_master.c"
  4828 ;; Parameters:    Size  Location     Type
  4829 ;;		None
  4830 ;; Auto vars:     Size  Location     Type
  4831 ;;		None
  4832 ;; Return value:  Size  Location     Type
  4833 ;;                  1    wreg      enum E5014
  4834 ;; Registers used:
  4835 ;;		wreg, cstack
  4836 ;; Tracked objects:
  4837 ;;		On entry : 0/0
  4838 ;;		On exit  : 0/0
  4839 ;;		Unchanged: 0/0
  4840 ;; Data sizes:     COMRAM   BANK0   BANK1   BANK2   BANK3   BANK4   BANK5   BANK6   BANK7
  4841 ;;      Params:         0       0       0       0       0       0       0       0       0
  4842 ;;      Locals:         0       0       0       0       0       0       0       0       0
  4843 ;;      Temps:          0       0       0       0       0       0       0       0       0
  4844 ;;      Totals:         0       0       0       0       0       0       0       0       0
  4845 ;;Total ram usage:        0 bytes
  4846 ;; Hardware stack levels used: 1
  4847 ;; Hardware stack levels required when called: 1
  4848 ;; This function calls:
  4849 ;;		_I2C1_MasterStop
  4850 ;; This function is called by:
  4851 ;;		_I2C1_DO_TX
  4852 ;;		_I2C1_DO_TX_EMPTY
  4853 ;;		_I2C1_DO_ADDRESS_NACK
  4854 ;;		_I2C1_MasterFsm
  4855 ;; This function uses a non-reentrant model
  4856 ;;
  4857                           
  4858                           	psect	text40
  4859   001272                     __ptext40:
  4860                           	callstack 0
  4861   001272                     _I2C1_DO_SEND_STOP:
  4862                           	callstack 17
  4863   001272                     
  4864                           ;mcc_generated_files/i2c1_master.c: 472:     I2C1_MasterStop();
  4865   001272  EC72  F009         	call	_I2C1_MasterStop	;wreg free
  4866   001276                     
  4867                           ;mcc_generated_files/i2c1_master.c: 473:     return I2C1_IDLE;
  4868   001276  0E00               	movlw	0
  4869   001278  0012               	return		;funcret
  4870   00127A                     __end_of_I2C1_DO_SEND_STOP:
  4871                           	callstack 0
  4872                           
  4873 ;; *************** function _I2C1_DO_SEND_RESTART *****************
  4874 ;; Defined at:
  4875 ;;		line 464 in file "mcc_generated_files/i2c1_master.c"
  4876 ;; Parameters:    Size  Location     Type
  4877 ;;		None
  4878 ;; Auto vars:     Size  Location     Type
  4879 ;;		None
  4880 ;; Return value:  Size  Location     Type
  4881 ;;                  1    wreg      enum E5014
  4882 ;; Registers used:
  4883 ;;		wreg, cstack
  4884 ;; Tracked objects:
  4885 ;;		On entry : 0/0
  4886 ;;		On exit  : 0/0
  4887 ;;		Unchanged: 0/0
  4888 ;; Data sizes:     COMRAM   BANK0   BANK1   BANK2   BANK3   BANK4   BANK5   BANK6   BANK7
  4889 ;;      Params:         0       0       0       0       0       0       0       0       0
  4890 ;;      Locals:         0       0       0       0       0       0       0       0       0
  4891 ;;      Temps:          0       0       0       0       0       0       0       0       0
  4892 ;;      Totals:         0       0       0       0       0       0       0       0       0
  4893 ;;Total ram usage:        0 bytes
  4894 ;; Hardware stack levels used: 1
  4895 ;; Hardware stack levels required when called: 1
  4896 ;; This function calls:
  4897 ;;		_I2C1_MasterEnableRestart
  4898 ;; This function is called by:
  4899 ;;		_I2C1_DO_TX_EMPTY
  4900 ;;		_I2C1_DO_ADDRESS_NACK
  4901 ;;		_I2C1_MasterFsm
  4902 ;; This function uses a non-reentrant model
  4903 ;;
  4904                           
  4905                           	psect	text41
  4906   00127A                     __ptext41:
  4907                           	callstack 0
  4908   00127A                     _I2C1_DO_SEND_RESTART:
  4909                           	callstack 17
  4910   00127A                     
  4911                           ;mcc_generated_files/i2c1_master.c: 466:     I2C1_MasterEnableRestart();
  4912   00127A  EC74  F009         	call	_I2C1_MasterEnableRestart	;wreg free
  4913   00127E                     
  4914                           ;mcc_generated_files/i2c1_master.c: 467:     return I2C1_SEND_ADR_READ;
  4915   00127E  0E01               	movlw	1
  4916   001280  0012               	return		;funcret
  4917   001282                     __end_of_I2C1_DO_SEND_RESTART:
  4918                           	callstack 0
  4919                           
  4920 ;; *************** function _I2C1_DO_SEND_RESTART_WRITE *****************
  4921 ;; Defined at:
  4922 ;;		line 457 in file "mcc_generated_files/i2c1_master.c"
  4923 ;; Parameters:    Size  Location     Type
  4924 ;;		None
  4925 ;; Auto vars:     Size  Location     Type
  4926 ;;		None
  4927 ;; Return value:  Size  Location     Type
  4928 ;;                  1    wreg      enum E5014
  4929 ;; Registers used:
  4930 ;;		wreg, cstack
  4931 ;; Tracked objects:
  4932 ;;		On entry : 0/0
  4933 ;;		On exit  : 0/0
  4934 ;;		Unchanged: 0/0
  4935 ;; Data sizes:     COMRAM   BANK0   BANK1   BANK2   BANK3   BANK4   BANK5   BANK6   BANK7
  4936 ;;      Params:         0       0       0       0       0       0       0       0       0
  4937 ;;      Locals:         0       0       0       0       0       0       0       0       0
  4938 ;;      Temps:          0       0       0       0       0       0       0       0       0
  4939 ;;      Totals:         0       0       0       0       0       0       0       0       0
  4940 ;;Total ram usage:        0 bytes
  4941 ;; Hardware stack levels used: 1
  4942 ;; Hardware stack levels required when called: 1
  4943 ;; This function calls:
  4944 ;;		_I2C1_MasterEnableRestart
  4945 ;; This function is called by:
  4946 ;;		_I2C1_DO_TX
  4947 ;;		_I2C1_MasterFsm
  4948 ;; This function uses a non-reentrant model
  4949 ;;
  4950                           
  4951                           	psect	text42
  4952   001282                     __ptext42:
  4953                           	callstack 0
  4954   001282                     _I2C1_DO_SEND_RESTART_WRITE:
  4955                           	callstack 17
  4956   001282                     
  4957                           ;mcc_generated_files/i2c1_master.c: 459:     I2C1_MasterEnableRestart();
  4958   001282  EC74  F009         	call	_I2C1_MasterEnableRestart	;wreg free
  4959   001286                     
  4960                           ;mcc_generated_files/i2c1_master.c: 460:     return I2C1_SEND_ADR_WRITE;
  4961   001286  0E02               	movlw	2
  4962   001288  0012               	return		;funcret
  4963   00128A                     __end_of_I2C1_DO_SEND_RESTART_WRITE:
  4964                           	callstack 0
  4965                           
  4966 ;; *************** function _I2C1_DO_SEND_RESTART_READ *****************
  4967 ;; Defined at:
  4968 ;;		line 451 in file "mcc_generated_files/i2c1_master.c"
  4969 ;; Parameters:    Size  Location     Type
  4970 ;;		None
  4971 ;; Auto vars:     Size  Location     Type
  4972 ;;		None
  4973 ;; Return value:  Size  Location     Type
  4974 ;;                  1    wreg      enum E5014
  4975 ;; Registers used:
  4976 ;;		wreg, cstack
  4977 ;; Tracked objects:
  4978 ;;		On entry : 0/0
  4979 ;;		On exit  : 0/0
  4980 ;;		Unchanged: 0/0
  4981 ;; Data sizes:     COMRAM   BANK0   BANK1   BANK2   BANK3   BANK4   BANK5   BANK6   BANK7
  4982 ;;      Params:         0       0       0       0       0       0       0       0       0
  4983 ;;      Locals:         0       0       0       0       0       0       0       0       0
  4984 ;;      Temps:          0       0       0       0       0       0       0       0       0
  4985 ;;      Totals:         0       0       0       0       0       0       0       0       0
  4986 ;;Total ram usage:        0 bytes
  4987 ;; Hardware stack levels used: 1
  4988 ;; Hardware stack levels required when called: 1
  4989 ;; This function calls:
  4990 ;;		_I2C1_MasterEnableRestart
  4991 ;; This function is called by:
  4992 ;;		_I2C1_DO_TX
  4993 ;;		_I2C1_MasterFsm
  4994 ;; This function uses a non-reentrant model
  4995 ;;
  4996                           
  4997                           	psect	text43
  4998   00128A                     __ptext43:
  4999                           	callstack 0
  5000   00128A                     _I2C1_DO_SEND_RESTART_READ:
  5001                           	callstack 17
  5002   00128A                     
  5003                           ;mcc_generated_files/i2c1_master.c: 453:     I2C1_MasterEnableRestart();
  5004   00128A  EC74  F009         	call	_I2C1_MasterEnableRestart	;wreg free
  5005   00128E                     
  5006                           ;mcc_generated_files/i2c1_master.c: 454:     return I2C1_SEND_ADR_READ;
  5007   00128E  0E01               	movlw	1
  5008   001290  0012               	return		;funcret
  5009   001292                     __end_of_I2C1_DO_SEND_RESTART_READ:
  5010                           	callstack 0
  5011                           
  5012 ;; *************** function _I2C1_DO_RCEN *****************
  5013 ;; Defined at:
  5014 ;;		line 404 in file "mcc_generated_files/i2c1_master.c"
  5015 ;; Parameters:    Size  Location     Type
  5016 ;;		None
  5017 ;; Auto vars:     Size  Location     Type
  5018 ;;		None
  5019 ;; Return value:  Size  Location     Type
  5020 ;;                  1    wreg      enum E5014
  5021 ;; Registers used:
  5022 ;;		wreg, cstack
  5023 ;; Tracked objects:
  5024 ;;		On entry : 0/0
  5025 ;;		On exit  : 0/0
  5026 ;;		Unchanged: 0/0
  5027 ;; Data sizes:     COMRAM   BANK0   BANK1   BANK2   BANK3   BANK4   BANK5   BANK6   BANK7
  5028 ;;      Params:         0       0       0       0       0       0       0       0       0
  5029 ;;      Locals:         0       0       0       0       0       0       0       0       0
  5030 ;;      Temps:          0       0       0       0       0       0       0       0       0
  5031 ;;      Totals:         0       0       0       0       0       0       0       0       0
  5032 ;;Total ram usage:        0 bytes
  5033 ;; Hardware stack levels used: 1
  5034 ;; Hardware stack levels required when called: 1
  5035 ;; This function calls:
  5036 ;;		_I2C1_MasterStartRx
  5037 ;; This function is called by:
  5038 ;;		_I2C1_MasterFsm
  5039 ;; This function uses a non-reentrant model
  5040 ;;
  5041                           
  5042                           	psect	text44
  5043   001238                     __ptext44:
  5044                           	callstack 0
  5045   001238                     _I2C1_DO_RCEN:
  5046                           	callstack 18
  5047   001238                     
  5048                           ;mcc_generated_files/i2c1_master.c: 406:     I2C1_Status.addressNackCheck = 0;
  5049   001238  9044               	bcf	(_I2C1_Status+29)^0,0,c
  5050   00123A                     
  5051                           ;mcc_generated_files/i2c1_master.c: 407:     I2C1_MasterStartRx();
  5052   00123A  EC6C  F009         	call	_I2C1_MasterStartRx	;wreg free
  5053   00123E                     
  5054                           ;mcc_generated_files/i2c1_master.c: 408:     return I2C1_RX;
  5055   00123E  0E04               	movlw	4
  5056   001240  0012               	return		;funcret
  5057   001242                     __end_of_I2C1_DO_RCEN:
  5058                           	callstack 0
  5059                           
  5060 ;; *************** function _I2C1_DO_RX *****************
  5061 ;; Defined at:
  5062 ;;		line 380 in file "mcc_generated_files/i2c1_master.c"
  5063 ;; Parameters:    Size  Location     Type
  5064 ;;		None
  5065 ;; Auto vars:     Size  Location     Type
  5066 ;;		None
  5067 ;; Return value:  Size  Location     Type
  5068 ;;                  1    wreg      enum E5014
  5069 ;; Registers used:
  5070 ;;		wreg, fsr2l, fsr2h, status,2, status,0, pcl, pclath, pclatu, tosl, prodl, prodh, cstack
  5071 ;; Tracked objects:
  5072 ;;		On entry : 0/0
  5073 ;;		On exit  : 0/0
  5074 ;;		Unchanged: 0/0
  5075 ;; Data sizes:     COMRAM   BANK0   BANK1   BANK2   BANK3   BANK4   BANK5   BANK6   BANK7
  5076 ;;      Params:         0       0       0       0       0       0       0       0       0
  5077 ;;      Locals:         0       0       0       0       0       0       0       0       0
  5078 ;;      Temps:          2       0       0       0       0       0       0       0       0
  5079 ;;      Totals:         2       0       0       0       0       0       0       0       0
  5080 ;;Total ram usage:        2 bytes
  5081 ;; Hardware stack levels used: 1
  5082 ;; Hardware stack levels required when called: 3
  5083 ;; This function calls:
  5084 ;;		NULL
  5085 ;;		_I2C1_CallbackReturnReset
  5086 ;;		_I2C1_CallbackReturnStop
  5087 ;;		_I2C1_DO_RX_NACK_RESTART
  5088 ;;		_I2C1_DO_RX_NACK_STOP
  5089 ;;		_I2C1_MasterGetRxData
  5090 ;;		_I2C1_MasterSendAck
  5091 ;;		_rd1RegCompleteHandler
  5092 ;;		_rd1RegCompleteHandler@i2c1_master_example$F1566
  5093 ;;		_rd2RegCompleteHandler
  5094 ;;		_rd2RegCompleteHandler@i2c1_master_example$F1577
  5095 ;;		_rdBlkRegCompleteHandler
  5096 ;;		_rdBlkRegCompleteHandler@i2c1_master_example$F1600
  5097 ;;		_wr1RegCompleteHandler
  5098 ;;		_wr1RegCompleteHandler@i2c1_master_example$F1583
  5099 ;;		_wr2RegCompleteHandler
  5100 ;;		_wr2RegCompleteHandler@i2c1_master_example$F1589
  5101 ;; This function is called by:
  5102 ;;		_I2C1_MasterFsm
  5103 ;; This function uses a non-reentrant model
  5104 ;;
  5105                           
  5106                           	psect	text45
  5107   0008F6                     __ptext45:
  5108                           	callstack 0
  5109   0008F6                     _I2C1_DO_RX:
  5110                           	callstack 16
  5111   0008F6                     
  5112                           ;mcc_generated_files/i2c1_master.c: 382:     *I2C1_Status.data_ptr++ = I2C1_MasterGetRxD
      +                          ata();
  5113   0008F6  EC6A  F009         	call	_I2C1_MasterGetRxData	;wreg free
  5114   0008FA  C03E  FFD9         	movff	_I2C1_Status+23,fsr2l
  5115   0008FE  C03F  FFDA         	movff	_I2C1_Status+24,fsr2h
  5116   000902  6EDF               	movwf	indf2,c
  5117   000904  4A3E               	infsnz	(_I2C1_Status+23)^0,f,c
  5118   000906  2A3F               	incf	(_I2C1_Status+24)^0,f,c
  5119   000908                     
  5120                           ;mcc_generated_files/i2c1_master.c: 383:     if(--I2C1_Status.data_length)
  5121   000908  0640               	decf	(_I2C1_Status+25)^0,f,c
  5122   00090A  A0D8               	btfss	status,0,c
  5123   00090C  0641               	decf	(_I2C1_Status+26)^0,f,c
  5124   00090E  5040               	movf	(_I2C1_Status+25)^0,w,c
  5125   000910  1041               	iorwf	(_I2C1_Status+26)^0,w,c
  5126   000912  B4D8               	btfsc	status,2,c
  5127   000914  EF8E  F004         	goto	i2u73_41
  5128   000918  EF90  F004         	goto	i2u73_40
  5129   00091C                     i2u73_41:
  5130   00091C  EF95  F004         	goto	i2l377
  5131   000920                     i2u73_40:
  5132   000920                     
  5133                           ;mcc_generated_files/i2c1_master.c: 384:     {;mcc_generated_files/i2c1_master.c: 385:  
      +                                 I2C1_MasterSendAck();
  5134   000920  EC54  F009         	call	_I2C1_MasterSendAck	;wreg free
  5135   000924                     
  5136                           ;mcc_generated_files/i2c1_master.c: 386:         return I2C1_RCEN;
  5137   000924  0E05               	movlw	5
  5138   000926  EFCB  F004         	goto	i2l378
  5139   00092A                     i2l377:
  5140                           
  5141                           ;mcc_generated_files/i2c1_master.c: 389:     {;mcc_generated_files/i2c1_master.c: 390:  
      +                                 I2C1_Status.bufferFree = 1;
  5142   00092A  8644               	bsf	(_I2C1_Status+29)^0,3,c
  5143                           
  5144                           ;mcc_generated_files/i2c1_master.c: 391:         switch(I2C1_Status.callbackTable[I2C1_D
      +                          ATA_COMPLETE](I2C1_Status.callbackPayload[I2C1_DATA_COMPLETE]))
  5145   00092C  EFA0  F004         	goto	i2l2728
  5146   000930                     i2l2718:
  5147                           
  5148                           ;mcc_generated_files/i2c1_master.c: 395:                 return I2C1_DO_RX_NACK_RESTART(
      +                          );
  5149   000930  EC2D  F009         	call	_I2C1_DO_RX_NACK_RESTART	;wreg free
  5150   000934  EFCB  F004         	goto	i2l378
  5151   000938                     i2l2722:
  5152                           
  5153                           ;mcc_generated_files/i2c1_master.c: 399:                 return I2C1_DO_RX_NACK_STOP();
  5154   000938  EC31  F009         	call	_I2C1_DO_RX_NACK_STOP	;wreg free
  5155   00093C  EFCB  F004         	goto	i2l378
  5156   000940                     i2l2728:
  5157   000940  C033  F008         	movff	_I2C1_Status+12,rdBlkRegCompleteHandler@i2c1_master_example$F1600@ptr
  5158   000944  D802               	call	i2u74_48
  5159   000946  EFAF  F004         	goto	i2u74_49
  5160   00094A                     i2u74_48:
  5161   00094A  0005               	push	
  5162   00094C  6EFA               	movwf	pclath,c
  5163   00094E  5027               	movf	_I2C1_Status^0,w,c
  5164   000950  6EFD               	movwf	tosl,c
  5165   000952  5028               	movf	(_I2C1_Status+1)^0,w,c
  5166   000954  6EFE               	movwf	tosh,c
  5167   000956  50F8               	movf	tblptru,w,c
  5168   000958  6EFF               	movwf	tosu,c
  5169   00095A  50FA               	movf	pclath,w,c
  5170   00095C  0012               	return		;indir
  5171   00095E                     i2u74_49:
  5172   00095E  6E0A               	movwf	??_I2C1_DO_RX^0,c
  5173   000960  6A0B               	clrf	(??_I2C1_DO_RX+1)^0,c
  5174                           
  5175                           ; Switch on 2 bytes has been partitioned into a top level switch of size 1, and 1 sub-sw
      +                          itches
  5176                           ; Switch size 1, requested type "simple"
  5177                           ; Number of cases is 1, Range of values is 0 to 0
  5178                           ; switch strategies available:
  5179                           ; Name         Instructions Cycles
  5180                           ; simple_byte            4     3 (average)
  5181                           ;	Chosen strategy is simple_byte
  5182   000962  500B               	movf	(??_I2C1_DO_RX+1)^0,w,c
  5183   000964  0A00               	xorlw	0	; case 0
  5184   000966  B4D8               	btfsc	status,2,c
  5185   000968  EFB8  F004         	goto	i2l3904
  5186   00096C  EF9C  F004         	goto	i2l2722
  5187   000970                     i2l3904:
  5188                           
  5189                           ; Switch size 1, requested type "simple"
  5190                           ; Number of cases is 4, Range of values is 1 to 4
  5191                           ; switch strategies available:
  5192                           ; Name         Instructions Cycles
  5193                           ; simple_byte           13     7 (average)
  5194                           ;	Chosen strategy is simple_byte
  5195   000970  500A               	movf	??_I2C1_DO_RX^0,w,c
  5196   000972  0A01               	xorlw	1	; case 1
  5197   000974  B4D8               	btfsc	status,2,c
  5198   000976  EF9C  F004         	goto	i2l2722
  5199   00097A  0A03               	xorlw	3	; case 2
  5200   00097C  B4D8               	btfsc	status,2,c
  5201   00097E  EF98  F004         	goto	i2l2718
  5202   000982  0A01               	xorlw	1	; case 3
  5203   000984  B4D8               	btfsc	status,2,c
  5204   000986  EF98  F004         	goto	i2l2718
  5205   00098A  0A07               	xorlw	7	; case 4
  5206   00098C  B4D8               	btfsc	status,2,c
  5207   00098E  EF9C  F004         	goto	i2l2722
  5208   000992  EF9C  F004         	goto	i2l2722
  5209   000996                     i2l378:
  5210   000996  0012               	return		;funcret
  5211   000998                     __end_of_I2C1_DO_RX:
  5212                           	callstack 0
  5213                           
  5214 ;; *************** function _I2C1_DO_TX *****************
  5215 ;; Defined at:
  5216 ;;		line 356 in file "mcc_generated_files/i2c1_master.c"
  5217 ;; Parameters:    Size  Location     Type
  5218 ;;		None
  5219 ;; Auto vars:     Size  Location     Type
  5220 ;;		None
  5221 ;; Return value:  Size  Location     Type
  5222 ;;                  1    wreg      enum E5014
  5223 ;; Registers used:
  5224 ;;		wreg, fsr2l, fsr2h, status,2, status,0, pcl, pclath, pclatu, tosl, prodl, prodh, cstack
  5225 ;; Tracked objects:
  5226 ;;		On entry : 0/0
  5227 ;;		On exit  : 0/0
  5228 ;;		Unchanged: 0/0
  5229 ;; Data sizes:     COMRAM   BANK0   BANK1   BANK2   BANK3   BANK4   BANK5   BANK6   BANK7
  5230 ;;      Params:         0       0       0       0       0       0       0       0       0
  5231 ;;      Locals:         0       0       0       0       0       0       0       0       0
  5232 ;;      Temps:          2       0       0       0       0       0       0       0       0
  5233 ;;      Totals:         2       0       0       0       0       0       0       0       0
  5234 ;;Total ram usage:        2 bytes
  5235 ;; Hardware stack levels used: 1
  5236 ;; Hardware stack levels required when called: 3
  5237 ;; This function calls:
  5238 ;;		NULL
  5239 ;;		_I2C1_CallbackReturnReset
  5240 ;;		_I2C1_CallbackReturnStop
  5241 ;;		_I2C1_DO_SEND_RESTART_READ
  5242 ;;		_I2C1_DO_SEND_RESTART_WRITE
  5243 ;;		_I2C1_DO_SEND_STOP
  5244 ;;		_I2C1_MasterIsNack
  5245 ;;		_I2C1_MasterSendTxData
  5246 ;;		_rd1RegCompleteHandler
  5247 ;;		_rd1RegCompleteHandler@i2c1_master_example$F1566
  5248 ;;		_rd2RegCompleteHandler
  5249 ;;		_rd2RegCompleteHandler@i2c1_master_example$F1577
  5250 ;;		_rdBlkRegCompleteHandler
  5251 ;;		_rdBlkRegCompleteHandler@i2c1_master_example$F1600
  5252 ;;		_wr1RegCompleteHandler
  5253 ;;		_wr1RegCompleteHandler@i2c1_master_example$F1583
  5254 ;;		_wr2RegCompleteHandler
  5255 ;;		_wr2RegCompleteHandler@i2c1_master_example$F1589
  5256 ;; This function is called by:
  5257 ;;		_I2C1_MasterFsm
  5258 ;; This function uses a non-reentrant model
  5259 ;;
  5260                           
  5261                           	psect	text46
  5262   000836                     __ptext46:
  5263                           	callstack 0
  5264   000836                     _I2C1_DO_TX:
  5265                           	callstack 16
  5266   000836                     
  5267                           ;mcc_generated_files/i2c1_master.c: 358:     if(I2C1_MasterIsNack())
  5268   000836  ECD3  F008         	call	_I2C1_MasterIsNack	;wreg free
  5269   00083A  0900               	iorlw	0
  5270   00083C  B4D8               	btfsc	status,2,c
  5271   00083E  EF23  F004         	goto	i2u70_41
  5272   000842  EF25  F004         	goto	i2u70_40
  5273   000846                     i2u70_41:
  5274   000846  EF60  F004         	goto	i2l361
  5275   00084A                     i2u70_40:
  5276   00084A  EF33  F004         	goto	i2l2688
  5277   00084E                     i2l2674:
  5278                           
  5279                           ;mcc_generated_files/i2c1_master.c: 363:                 return I2C1_DO_SEND_RESTART_REA
      +                          D();
  5280   00084E  EC45  F009         	call	_I2C1_DO_SEND_RESTART_READ	;wreg free
  5281   000852  EF7A  F004         	goto	i2l364
  5282   000856                     i2l2678:
  5283                           
  5284                           ;mcc_generated_files/i2c1_master.c: 365:                   return I2C1_DO_SEND_RESTART_W
      +                          RITE();
  5285   000856  EC41  F009         	call	_I2C1_DO_SEND_RESTART_WRITE	;wreg free
  5286   00085A  EF7A  F004         	goto	i2l364
  5287   00085E                     i2l2682:
  5288                           
  5289                           ;mcc_generated_files/i2c1_master.c: 369:                 return I2C1_DO_SEND_STOP();
  5290   00085E  EC39  F009         	call	_I2C1_DO_SEND_STOP	;wreg free
  5291   000862  EF7A  F004         	goto	i2l364
  5292   000866                     i2l2688:
  5293   000866  C036  F008         	movff	_I2C1_Status+15,rdBlkRegCompleteHandler@i2c1_master_example$F1600@ptr
  5294   00086A  EE20  F02D         	lfsr	2,_I2C1_Status+6
  5295   00086E  D802               	call	i2u71_48
  5296   000870  EF44  F004         	goto	i2u71_49
  5297   000874                     i2u71_48:
  5298   000874  0005               	push	
  5299   000876  6EFA               	movwf	pclath,c
  5300   000878  50DE               	movf	postinc2,w,c
  5301   00087A  6EFD               	movwf	tosl,c
  5302   00087C  50DE               	movf	postinc2,w,c
  5303   00087E  6EFE               	movwf	tosh,c
  5304   000880  50F8               	movf	tblptru,w,c
  5305   000882  6EFF               	movwf	tosu,c
  5306   000884  50FA               	movf	pclath,w,c
  5307   000886  0012               	return		;indir
  5308   000888                     i2u71_49:
  5309   000888  6E0A               	movwf	??_I2C1_DO_TX^0,c
  5310   00088A  6A0B               	clrf	(??_I2C1_DO_TX+1)^0,c
  5311                           
  5312                           ; Switch on 2 bytes has been partitioned into a top level switch of size 1, and 1 sub-sw
      +                          itches
  5313                           ; Switch size 1, requested type "simple"
  5314                           ; Number of cases is 1, Range of values is 0 to 0
  5315                           ; switch strategies available:
  5316                           ; Name         Instructions Cycles
  5317                           ; simple_byte            4     3 (average)
  5318                           ;	Chosen strategy is simple_byte
  5319   00088C  500B               	movf	(??_I2C1_DO_TX+1)^0,w,c
  5320   00088E  0A00               	xorlw	0	; case 0
  5321   000890  B4D8               	btfsc	status,2,c
  5322   000892  EF4D  F004         	goto	i2l3906
  5323   000896  EF2F  F004         	goto	i2l2682
  5324   00089A                     i2l3906:
  5325                           
  5326                           ; Switch size 1, requested type "simple"
  5327                           ; Number of cases is 4, Range of values is 1 to 4
  5328                           ; switch strategies available:
  5329                           ; Name         Instructions Cycles
  5330                           ; simple_byte           13     7 (average)
  5331                           ;	Chosen strategy is simple_byte
  5332   00089A  500A               	movf	??_I2C1_DO_TX^0,w,c
  5333   00089C  0A01               	xorlw	1	; case 1
  5334   00089E  B4D8               	btfsc	status,2,c
  5335   0008A0  EF2F  F004         	goto	i2l2682
  5336   0008A4  0A03               	xorlw	3	; case 2
  5337   0008A6  B4D8               	btfsc	status,2,c
  5338   0008A8  EF27  F004         	goto	i2l2674
  5339   0008AC  0A01               	xorlw	1	; case 3
  5340   0008AE  B4D8               	btfsc	status,2,c
  5341   0008B0  EF2B  F004         	goto	i2l2678
  5342   0008B4  0A07               	xorlw	7	; case 4
  5343   0008B6  B4D8               	btfsc	status,2,c
  5344   0008B8  EF2F  F004         	goto	i2l2682
  5345   0008BC  EF2F  F004         	goto	i2l2682
  5346   0008C0                     i2l361:
  5347                           
  5348                           ;mcc_generated_files/i2c1_master.c: 373:     {;mcc_generated_files/i2c1_master.c: 374:  
      +                                 I2C1_Status.addressNackCheck = 0;
  5349   0008C0  9044               	bcf	(_I2C1_Status+29)^0,0,c
  5350   0008C2                     
  5351                           ;mcc_generated_files/i2c1_master.c: 375:         I2C1_MasterSendTxData(*I2C1_Status.data
      +                          _ptr++);
  5352   0008C2  C03E  FFD9         	movff	_I2C1_Status+23,fsr2l
  5353   0008C6  C03F  FFDA         	movff	_I2C1_Status+24,fsr2h
  5354   0008CA  4A3E               	infsnz	(_I2C1_Status+23)^0,f,c
  5355   0008CC  2A3F               	incf	(_I2C1_Status+24)^0,f,c
  5356   0008CE  50DF               	movf	indf2,w,c
  5357   0008D0  EC4D  F009         	call	_I2C1_MasterSendTxData
  5358   0008D4                     
  5359                           ;mcc_generated_files/i2c1_master.c: 376:         return (--I2C1_Status.data_length)?I2C1
      +                          _TX:I2C1_TX_EMPTY;
  5360   0008D4  0640               	decf	(_I2C1_Status+25)^0,f,c
  5361   0008D6  A0D8               	btfss	status,0,c
  5362   0008D8  0641               	decf	(_I2C1_Status+26)^0,f,c
  5363   0008DA  5040               	movf	(_I2C1_Status+25)^0,w,c
  5364   0008DC  1041               	iorwf	(_I2C1_Status+26)^0,w,c
  5365   0008DE  A4D8               	btfss	status,2,c
  5366   0008E0  EF74  F004         	goto	i2u72_41
  5367   0008E4  EF76  F004         	goto	i2u72_40
  5368   0008E8                     i2u72_41:
  5369   0008E8  EF79  F004         	goto	i2l2696
  5370   0008EC                     i2u72_40:
  5371   0008EC  0E06               	movlw	6
  5372   0008EE  EF7A  F004         	goto	i2l364
  5373   0008F2                     i2l2696:
  5374   0008F2  0E03               	movlw	3
  5375   0008F4                     i2l364:
  5376   0008F4  0012               	return		;funcret
  5377   0008F6                     __end_of_I2C1_DO_TX:
  5378                           	callstack 0
  5379                           
  5380 ;; *************** function _I2C1_DO_SEND_ADR_WRITE *****************
  5381 ;; Defined at:
  5382 ;;		line 349 in file "mcc_generated_files/i2c1_master.c"
  5383 ;; Parameters:    Size  Location     Type
  5384 ;;		None
  5385 ;; Auto vars:     Size  Location     Type
  5386 ;;		None
  5387 ;; Return value:  Size  Location     Type
  5388 ;;                  1    wreg      enum E5014
  5389 ;; Registers used:
  5390 ;;		wreg, status,2, status,0, cstack
  5391 ;; Tracked objects:
  5392 ;;		On entry : 0/0
  5393 ;;		On exit  : 0/0
  5394 ;;		Unchanged: 0/0
  5395 ;; Data sizes:     COMRAM   BANK0   BANK1   BANK2   BANK3   BANK4   BANK5   BANK6   BANK7
  5396 ;;      Params:         0       0       0       0       0       0       0       0       0
  5397 ;;      Locals:         0       0       0       0       0       0       0       0       0
  5398 ;;      Temps:          0       0       0       0       0       0       0       0       0
  5399 ;;      Totals:         0       0       0       0       0       0       0       0       0
  5400 ;;Total ram usage:        0 bytes
  5401 ;; Hardware stack levels used: 1
  5402 ;; Hardware stack levels required when called: 1
  5403 ;; This function calls:
  5404 ;;		_I2C1_MasterSendTxData
  5405 ;; This function is called by:
  5406 ;;		_I2C1_MasterFsm
  5407 ;; This function uses a non-reentrant model
  5408 ;;
  5409                           
  5410                           	psect	text47
  5411   0011FE                     __ptext47:
  5412                           	callstack 0
  5413   0011FE                     _I2C1_DO_SEND_ADR_WRITE:
  5414                           	callstack 18
  5415   0011FE                     
  5416                           ;mcc_generated_files/i2c1_master.c: 351:     I2C1_Status.addressNackCheck = 1;
  5417   0011FE  8044               	bsf	(_I2C1_Status+29)^0,0,c
  5418   001200                     
  5419                           ;mcc_generated_files/i2c1_master.c: 352:     I2C1_MasterSendTxData((uint8_t) (I2C1_Statu
      +                          s.address << 1));
  5420   001200  503D               	movf	(_I2C1_Status+22)^0,w,c
  5421   001202  243D               	addwf	(_I2C1_Status+22)^0,w,c
  5422   001204  EC4D  F009         	call	_I2C1_MasterSendTxData
  5423   001208                     
  5424                           ;mcc_generated_files/i2c1_master.c: 353:     return I2C1_TX;
  5425   001208  0E03               	movlw	3
  5426   00120A  0012               	return		;funcret
  5427   00120C                     __end_of_I2C1_DO_SEND_ADR_WRITE:
  5428                           	callstack 0
  5429                           
  5430 ;; *************** function _I2C1_DO_SEND_ADR_READ *****************
  5431 ;; Defined at:
  5432 ;;		line 342 in file "mcc_generated_files/i2c1_master.c"
  5433 ;; Parameters:    Size  Location     Type
  5434 ;;		None
  5435 ;; Auto vars:     Size  Location     Type
  5436 ;;		None
  5437 ;; Return value:  Size  Location     Type
  5438 ;;                  1    wreg      enum E5014
  5439 ;; Registers used:
  5440 ;;		wreg, status,0, cstack
  5441 ;; Tracked objects:
  5442 ;;		On entry : 0/0
  5443 ;;		On exit  : 0/0
  5444 ;;		Unchanged: 0/0
  5445 ;; Data sizes:     COMRAM   BANK0   BANK1   BANK2   BANK3   BANK4   BANK5   BANK6   BANK7
  5446 ;;      Params:         0       0       0       0       0       0       0       0       0
  5447 ;;      Locals:         0       0       0       0       0       0       0       0       0
  5448 ;;      Temps:          0       0       0       0       0       0       0       0       0
  5449 ;;      Totals:         0       0       0       0       0       0       0       0       0
  5450 ;;Total ram usage:        0 bytes
  5451 ;; Hardware stack levels used: 1
  5452 ;; Hardware stack levels required when called: 1
  5453 ;; This function calls:
  5454 ;;		_I2C1_MasterSendTxData
  5455 ;; This function is called by:
  5456 ;;		_I2C1_MasterFsm
  5457 ;; This function uses a non-reentrant model
  5458 ;;
  5459                           
  5460                           	psect	text48
  5461   00120C                     __ptext48:
  5462                           	callstack 0
  5463   00120C                     _I2C1_DO_SEND_ADR_READ:
  5464                           	callstack 18
  5465   00120C                     
  5466                           ;mcc_generated_files/i2c1_master.c: 344:     I2C1_Status.addressNackCheck = 1;
  5467   00120C  8044               	bsf	(_I2C1_Status+29)^0,0,c
  5468   00120E                     
  5469                           ;mcc_generated_files/i2c1_master.c: 345:     I2C1_MasterSendTxData((uint8_t) (I2C1_Statu
      +                          s.address << 1 | 1));
  5470   00120E  80D8               	bsf	status,0,c
  5471   001210  343D               	rlcf	(_I2C1_Status+22)^0,w,c
  5472   001212  EC4D  F009         	call	_I2C1_MasterSendTxData
  5473   001216                     
  5474                           ;mcc_generated_files/i2c1_master.c: 346:     return I2C1_RCEN;
  5475   001216  0E05               	movlw	5
  5476   001218  0012               	return		;funcret
  5477   00121A                     __end_of_I2C1_DO_SEND_ADR_READ:
  5478                           	callstack 0
  5479                           
  5480 ;; *************** function _I2C1_DO_IDLE *****************
  5481 ;; Defined at:
  5482 ;;		line 335 in file "mcc_generated_files/i2c1_master.c"
  5483 ;; Parameters:    Size  Location     Type
  5484 ;;		None
  5485 ;; Auto vars:     Size  Location     Type
  5486 ;;		None
  5487 ;; Return value:  Size  Location     Type
  5488 ;;                  1    wreg      enum E5014
  5489 ;; Registers used:
  5490 ;;		wreg
  5491 ;; Tracked objects:
  5492 ;;		On entry : 0/0
  5493 ;;		On exit  : 0/0
  5494 ;;		Unchanged: 0/0
  5495 ;; Data sizes:     COMRAM   BANK0   BANK1   BANK2   BANK3   BANK4   BANK5   BANK6   BANK7
  5496 ;;      Params:         0       0       0       0       0       0       0       0       0
  5497 ;;      Locals:         0       0       0       0       0       0       0       0       0
  5498 ;;      Temps:          0       0       0       0       0       0       0       0       0
  5499 ;;      Totals:         0       0       0       0       0       0       0       0       0
  5500 ;;Total ram usage:        0 bytes
  5501 ;; Hardware stack levels used: 1
  5502 ;; This function calls:
  5503 ;;		Nothing
  5504 ;; This function is called by:
  5505 ;;		_I2C1_MasterFsm
  5506 ;; This function uses a non-reentrant model
  5507 ;;
  5508                           
  5509                           	psect	text49
  5510   001292                     __ptext49:
  5511                           	callstack 0
  5512   001292                     _I2C1_DO_IDLE:
  5513                           	callstack 19
  5514   001292                     
  5515                           ;mcc_generated_files/i2c1_master.c: 337:     I2C1_Status.busy = 0;
  5516   001292  9244               	bcf	(_I2C1_Status+29)^0,1,c
  5517                           
  5518                           ;mcc_generated_files/i2c1_master.c: 338:     I2C1_Status.error = I2C1_NOERR;
  5519   001294  6A43               	clrf	(_I2C1_Status+28)^0,c
  5520   001296                     
  5521                           ;mcc_generated_files/i2c1_master.c: 339:     return I2C1_RESET;
  5522   001296  0E0E               	movlw	14
  5523   001298  0012               	return		;funcret
  5524   00129A                     __end_of_I2C1_DO_IDLE:
  5525                           	callstack 0
  5526                           
  5527 ;; *************** function _I2C1_DO_TX_EMPTY *****************
  5528 ;; Defined at:
  5529 ;;		line 411 in file "mcc_generated_files/i2c1_master.c"
  5530 ;; Parameters:    Size  Location     Type
  5531 ;;		None
  5532 ;; Auto vars:     Size  Location     Type
  5533 ;;		None
  5534 ;; Return value:  Size  Location     Type
  5535 ;;                  1    wreg      enum E5014
  5536 ;; Registers used:
  5537 ;;		wreg, fsr2l, fsr2h, status,2, status,0, pcl, pclath, pclatu, tosl, prodl, prodh, cstack
  5538 ;; Tracked objects:
  5539 ;;		On entry : 0/0
  5540 ;;		On exit  : 0/0
  5541 ;;		Unchanged: 0/0
  5542 ;; Data sizes:     COMRAM   BANK0   BANK1   BANK2   BANK3   BANK4   BANK5   BANK6   BANK7
  5543 ;;      Params:         0       0       0       0       0       0       0       0       0
  5544 ;;      Locals:         0       0       0       0       0       0       0       0       0
  5545 ;;      Temps:          2       0       0       0       0       0       0       0       0
  5546 ;;      Totals:         2       0       0       0       0       0       0       0       0
  5547 ;;Total ram usage:        2 bytes
  5548 ;; Hardware stack levels used: 1
  5549 ;; Hardware stack levels required when called: 3
  5550 ;; This function calls:
  5551 ;;		NULL
  5552 ;;		_I2C1_CallbackReturnReset
  5553 ;;		_I2C1_CallbackReturnStop
  5554 ;;		_I2C1_DO_SEND_RESTART
  5555 ;;		_I2C1_DO_SEND_STOP
  5556 ;;		_I2C1_MasterSetIrq
  5557 ;;		_rd1RegCompleteHandler
  5558 ;;		_rd1RegCompleteHandler@i2c1_master_example$F1566
  5559 ;;		_rd2RegCompleteHandler
  5560 ;;		_rd2RegCompleteHandler@i2c1_master_example$F1577
  5561 ;;		_rdBlkRegCompleteHandler
  5562 ;;		_rdBlkRegCompleteHandler@i2c1_master_example$F1600
  5563 ;;		_wr1RegCompleteHandler
  5564 ;;		_wr1RegCompleteHandler@i2c1_master_example$F1583
  5565 ;;		_wr2RegCompleteHandler
  5566 ;;		_wr2RegCompleteHandler@i2c1_master_example$F1589
  5567 ;; This function is called by:
  5568 ;;		_I2C1_MasterFsm
  5569 ;; This function uses a non-reentrant model
  5570 ;;
  5571                           
  5572                           	psect	text50
  5573   000AA6                     __ptext50:
  5574                           	callstack 0
  5575   000AA6                     _I2C1_DO_TX_EMPTY:
  5576                           	callstack 16
  5577   000AA6                     
  5578                           ;mcc_generated_files/i2c1_master.c: 413:     I2C1_Status.bufferFree = 1;
  5579   000AA6  8644               	bsf	(_I2C1_Status+29)^0,3,c
  5580                           
  5581                           ;mcc_generated_files/i2c1_master.c: 414:     switch(I2C1_Status.callbackTable[I2C1_DATA_
      +                          COMPLETE](I2C1_Status.callbackPayload[I2C1_DATA_COMPLETE]))
  5582   000AA8  EF63  F005         	goto	i2l2752
  5583   000AAC                     i2l2736:
  5584                           
  5585                           ;mcc_generated_files/i2c1_master.c: 418:             return I2C1_DO_SEND_RESTART();
  5586   000AAC  EC3D  F009         	call	_I2C1_DO_SEND_RESTART	;wreg free
  5587   000AB0  EF8E  F005         	goto	i2l395
  5588   000AB4                     i2l2740:
  5589                           
  5590                           ;mcc_generated_files/i2c1_master.c: 420:             I2C1_MasterSetIrq();
  5591   000AB4  EC68  F009         	call	_I2C1_MasterSetIrq	;wreg free
  5592   000AB8                     
  5593                           ;mcc_generated_files/i2c1_master.c: 421:             return I2C1_TX;
  5594   000AB8  0E03               	movlw	3
  5595   000ABA  EF8E  F005         	goto	i2l395
  5596   000ABE                     i2l2746:
  5597                           
  5598                           ;mcc_generated_files/i2c1_master.c: 424:             return I2C1_DO_SEND_STOP();
  5599   000ABE  EC39  F009         	call	_I2C1_DO_SEND_STOP	;wreg free
  5600   000AC2  EF8E  F005         	goto	i2l395
  5601   000AC6                     i2l2752:
  5602   000AC6  C033  F008         	movff	_I2C1_Status+12,rdBlkRegCompleteHandler@i2c1_master_example$F1600@ptr
  5603   000ACA  D802               	call	i2u75_48
  5604   000ACC  EF72  F005         	goto	i2u75_49
  5605   000AD0                     i2u75_48:
  5606   000AD0  0005               	push	
  5607   000AD2  6EFA               	movwf	pclath,c
  5608   000AD4  5027               	movf	_I2C1_Status^0,w,c
  5609   000AD6  6EFD               	movwf	tosl,c
  5610   000AD8  5028               	movf	(_I2C1_Status+1)^0,w,c
  5611   000ADA  6EFE               	movwf	tosh,c
  5612   000ADC  50F8               	movf	tblptru,w,c
  5613   000ADE  6EFF               	movwf	tosu,c
  5614   000AE0  50FA               	movf	pclath,w,c
  5615   000AE2  0012               	return		;indir
  5616   000AE4                     i2u75_49:
  5617   000AE4  6E0A               	movwf	??_I2C1_DO_TX_EMPTY^0,c
  5618   000AE6  6A0B               	clrf	(??_I2C1_DO_TX_EMPTY+1)^0,c
  5619                           
  5620                           ; Switch on 2 bytes has been partitioned into a top level switch of size 1, and 1 sub-sw
      +                          itches
  5621                           ; Switch size 1, requested type "simple"
  5622                           ; Number of cases is 1, Range of values is 0 to 0
  5623                           ; switch strategies available:
  5624                           ; Name         Instructions Cycles
  5625                           ; simple_byte            4     3 (average)
  5626                           ;	Chosen strategy is simple_byte
  5627   000AE8  500B               	movf	(??_I2C1_DO_TX_EMPTY+1)^0,w,c
  5628   000AEA  0A00               	xorlw	0	; case 0
  5629   000AEC  B4D8               	btfsc	status,2,c
  5630   000AEE  EF7B  F005         	goto	i2l3908
  5631   000AF2  EF5F  F005         	goto	i2l2746
  5632   000AF6                     i2l3908:
  5633                           
  5634                           ; Switch size 1, requested type "simple"
  5635                           ; Number of cases is 4, Range of values is 1 to 4
  5636                           ; switch strategies available:
  5637                           ; Name         Instructions Cycles
  5638                           ; simple_byte           13     7 (average)
  5639                           ;	Chosen strategy is simple_byte
  5640   000AF6  500A               	movf	??_I2C1_DO_TX_EMPTY^0,w,c
  5641   000AF8  0A01               	xorlw	1	; case 1
  5642   000AFA  B4D8               	btfsc	status,2,c
  5643   000AFC  EF5F  F005         	goto	i2l2746
  5644   000B00  0A03               	xorlw	3	; case 2
  5645   000B02  B4D8               	btfsc	status,2,c
  5646   000B04  EF56  F005         	goto	i2l2736
  5647   000B08  0A01               	xorlw	1	; case 3
  5648   000B0A  B4D8               	btfsc	status,2,c
  5649   000B0C  EF56  F005         	goto	i2l2736
  5650   000B10  0A07               	xorlw	7	; case 4
  5651   000B12  B4D8               	btfsc	status,2,c
  5652   000B14  EF5A  F005         	goto	i2l2740
  5653   000B18  EF5F  F005         	goto	i2l2746
  5654   000B1C                     i2l395:
  5655   000B1C  0012               	return		;funcret
  5656   000B1E                     __end_of_I2C1_DO_TX_EMPTY:
  5657                           	callstack 0
  5658                           
  5659 ;; *************** function _I2C1_MasterSetIrq *****************
  5660 ;; Defined at:
  5661 ;;		line 647 in file "mcc_generated_files/i2c1_master.c"
  5662 ;; Parameters:    Size  Location     Type
  5663 ;;		None
  5664 ;; Auto vars:     Size  Location     Type
  5665 ;;		None
  5666 ;; Return value:  Size  Location     Type
  5667 ;;                  1    wreg      void 
  5668 ;; Registers used:
  5669 ;;		None
  5670 ;; Tracked objects:
  5671 ;;		On entry : 0/0
  5672 ;;		On exit  : 0/0
  5673 ;;		Unchanged: 0/0
  5674 ;; Data sizes:     COMRAM   BANK0   BANK1   BANK2   BANK3   BANK4   BANK5   BANK6   BANK7
  5675 ;;      Params:         0       0       0       0       0       0       0       0       0
  5676 ;;      Locals:         0       0       0       0       0       0       0       0       0
  5677 ;;      Temps:          0       0       0       0       0       0       0       0       0
  5678 ;;      Totals:         0       0       0       0       0       0       0       0       0
  5679 ;;Total ram usage:        0 bytes
  5680 ;; Hardware stack levels used: 1
  5681 ;; This function calls:
  5682 ;;		Nothing
  5683 ;; This function is called by:
  5684 ;;		_I2C1_DO_TX_EMPTY
  5685 ;; This function uses a non-reentrant model
  5686 ;;
  5687                           
  5688                           	psect	text51
  5689   0012D0                     __ptext51:
  5690                           	callstack 0
  5691   0012D0                     _I2C1_MasterSetIrq:
  5692                           	callstack 18
  5693   0012D0                     
  5694                           ;mcc_generated_files/i2c1_master.c: 649:     PIR1bits.SSP1IF = 1;
  5695   0012D0  869E               	bsf	158,3,c	;volatile
  5696   0012D2  0012               	return		;funcret
  5697   0012D4                     __end_of_I2C1_MasterSetIrq:
  5698                           	callstack 0
  5699                           
  5700 ;; *************** function _I2C1_MasterIsNack *****************
  5701 ;; Defined at:
  5702 ;;		line 599 in file "mcc_generated_files/i2c1_master.c"
  5703 ;; Parameters:    Size  Location     Type
  5704 ;;		None
  5705 ;; Auto vars:     Size  Location     Type
  5706 ;;		None
  5707 ;; Return value:  Size  Location     Type
  5708 ;;                  1    wreg      _Bool 
  5709 ;; Registers used:
  5710 ;;		wreg
  5711 ;; Tracked objects:
  5712 ;;		On entry : 0/0
  5713 ;;		On exit  : 0/0
  5714 ;;		Unchanged: 0/0
  5715 ;; Data sizes:     COMRAM   BANK0   BANK1   BANK2   BANK3   BANK4   BANK5   BANK6   BANK7
  5716 ;;      Params:         0       0       0       0       0       0       0       0       0
  5717 ;;      Locals:         0       0       0       0       0       0       0       0       0
  5718 ;;      Temps:          0       0       0       0       0       0       0       0       0
  5719 ;;      Totals:         0       0       0       0       0       0       0       0       0
  5720 ;;Total ram usage:        0 bytes
  5721 ;; Hardware stack levels used: 1
  5722 ;; This function calls:
  5723 ;;		Nothing
  5724 ;; This function is called by:
  5725 ;;		_I2C1_MasterFsm
  5726 ;;		_I2C1_DO_TX
  5727 ;; This function uses a non-reentrant model
  5728 ;;
  5729                           
  5730                           	psect	text52
  5731   0011A6                     __ptext52:
  5732                           	callstack 0
  5733   0011A6                     _I2C1_MasterIsNack:
  5734                           	callstack 19
  5735   0011A6                     
  5736                           ;mcc_generated_files/i2c1_master.c: 601:     return SSP1CON2bits.ACKSTAT;
  5737   0011A6  BCC5               	btfsc	197,6,c	;volatile
  5738   0011A8  EFD8  F008         	goto	i2u12_41
  5739   0011AC  EFDB  F008         	goto	i2u12_40
  5740   0011B0                     i2u12_41:
  5741   0011B0  0E01               	movlw	1
  5742   0011B2  EFDC  F008         	goto	i2u12_46
  5743   0011B6                     i2u12_40:
  5744   0011B6  0E00               	movlw	0
  5745   0011B8                     i2u12_46:
  5746   0011B8  0012               	return		;funcret
  5747   0011BA                     __end_of_I2C1_MasterIsNack:
  5748                           	callstack 0
  5749                           
  5750 ;; *************** function _I2C1_MasterSendTxData *****************
  5751 ;; Defined at:
  5752 ;;		line 569 in file "mcc_generated_files/i2c1_master.c"
  5753 ;; Parameters:    Size  Location     Type
  5754 ;;  data            1    wreg     unsigned char 
  5755 ;; Auto vars:     Size  Location     Type
  5756 ;;  data            1    0[COMRAM] unsigned char 
  5757 ;; Return value:  Size  Location     Type
  5758 ;;                  1    wreg      void 
  5759 ;; Registers used:
  5760 ;;		wreg
  5761 ;; Tracked objects:
  5762 ;;		On entry : 0/0
  5763 ;;		On exit  : 0/0
  5764 ;;		Unchanged: 0/0
  5765 ;; Data sizes:     COMRAM   BANK0   BANK1   BANK2   BANK3   BANK4   BANK5   BANK6   BANK7
  5766 ;;      Params:         0       0       0       0       0       0       0       0       0
  5767 ;;      Locals:         1       0       0       0       0       0       0       0       0
  5768 ;;      Temps:          0       0       0       0       0       0       0       0       0
  5769 ;;      Totals:         1       0       0       0       0       0       0       0       0
  5770 ;;Total ram usage:        1 bytes
  5771 ;; Hardware stack levels used: 1
  5772 ;; This function calls:
  5773 ;;		Nothing
  5774 ;; This function is called by:
  5775 ;;		_I2C1_DO_SEND_ADR_READ
  5776 ;;		_I2C1_DO_SEND_ADR_WRITE
  5777 ;;		_I2C1_DO_TX
  5778 ;; This function uses a non-reentrant model
  5779 ;;
  5780                           
  5781                           	psect	text53
  5782   00129A                     __ptext53:
  5783                           	callstack 0
  5784   00129A                     _I2C1_MasterSendTxData:
  5785                           	callstack 18
  5786                           
  5787                           ;incstack = 0
  5788                           ;I2C1_MasterSendTxData@data stored from wreg
  5789   00129A  6E01               	movwf	I2C1_MasterSendTxData@data^0,c
  5790   00129C                     
  5791                           ;mcc_generated_files/i2c1_master.c: 569: static __attribute__((inline)) void I2C1_Master
      +                          SendTxData(uint8_t data);mcc_generated_files/i2c1_master.c: 570: {;mcc_generated_files/i
      +                          2c1_master.c: 571:     SSP1BUF = data;
  5792   00129C  C001  FFC9         	movff	I2C1_MasterSendTxData@data,4041	;volatile
  5793   0012A0  0012               	return		;funcret
  5794   0012A2                     __end_of_I2C1_MasterSendTxData:
  5795                           	callstack 0
  5796                           
  5797 ;; *************** function _I2C1_MasterSendAck *****************
  5798 ;; Defined at:
  5799 ;;		line 604 in file "mcc_generated_files/i2c1_master.c"
  5800 ;; Parameters:    Size  Location     Type
  5801 ;;		None
  5802 ;; Auto vars:     Size  Location     Type
  5803 ;;		None
  5804 ;; Return value:  Size  Location     Type
  5805 ;;                  1    wreg      void 
  5806 ;; Registers used:
  5807 ;;		None
  5808 ;; Tracked objects:
  5809 ;;		On entry : 0/0
  5810 ;;		On exit  : 0/0
  5811 ;;		Unchanged: 0/0
  5812 ;; Data sizes:     COMRAM   BANK0   BANK1   BANK2   BANK3   BANK4   BANK5   BANK6   BANK7
  5813 ;;      Params:         0       0       0       0       0       0       0       0       0
  5814 ;;      Locals:         0       0       0       0       0       0       0       0       0
  5815 ;;      Temps:          0       0       0       0       0       0       0       0       0
  5816 ;;      Totals:         0       0       0       0       0       0       0       0       0
  5817 ;;Total ram usage:        0 bytes
  5818 ;; Hardware stack levels used: 1
  5819 ;; This function calls:
  5820 ;;		Nothing
  5821 ;; This function is called by:
  5822 ;;		_I2C1_DO_RX
  5823 ;;		_I2C1_DO_RX_ACK
  5824 ;; This function uses a non-reentrant model
  5825 ;;
  5826                           
  5827                           	psect	text54
  5828   0012A8                     __ptext54:
  5829                           	callstack 0
  5830   0012A8                     _I2C1_MasterSendAck:
  5831                           	callstack 18
  5832   0012A8                     
  5833                           ;mcc_generated_files/i2c1_master.c: 606:     SSP1CON2bits.ACKDT = 0;
  5834   0012A8  9AC5               	bcf	197,5,c	;volatile
  5835                           
  5836                           ;mcc_generated_files/i2c1_master.c: 607:     SSP1CON2bits.ACKEN = 1;
  5837   0012AA  88C5               	bsf	197,4,c	;volatile
  5838   0012AC  0012               	return		;funcret
  5839   0012AE                     __end_of_I2C1_MasterSendAck:
  5840                           	callstack 0
  5841                           
  5842 ;; *************** function _I2C1_MasterGetRxData *****************
  5843 ;; Defined at:
  5844 ;;		line 564 in file "mcc_generated_files/i2c1_master.c"
  5845 ;; Parameters:    Size  Location     Type
  5846 ;;		None
  5847 ;; Auto vars:     Size  Location     Type
  5848 ;;		None
  5849 ;; Return value:  Size  Location     Type
  5850 ;;                  1    wreg      unsigned char 
  5851 ;; Registers used:
  5852 ;;		wreg, status,2
  5853 ;; Tracked objects:
  5854 ;;		On entry : 0/0
  5855 ;;		On exit  : 0/0
  5856 ;;		Unchanged: 0/0
  5857 ;; Data sizes:     COMRAM   BANK0   BANK1   BANK2   BANK3   BANK4   BANK5   BANK6   BANK7
  5858 ;;      Params:         0       0       0       0       0       0       0       0       0
  5859 ;;      Locals:         0       0       0       0       0       0       0       0       0
  5860 ;;      Temps:          0       0       0       0       0       0       0       0       0
  5861 ;;      Totals:         0       0       0       0       0       0       0       0       0
  5862 ;;Total ram usage:        0 bytes
  5863 ;; Hardware stack levels used: 1
  5864 ;; This function calls:
  5865 ;;		Nothing
  5866 ;; This function is called by:
  5867 ;;		_I2C1_DO_RX
  5868 ;; This function uses a non-reentrant model
  5869 ;;
  5870                           
  5871                           	psect	text55
  5872   0012D4                     __ptext55:
  5873                           	callstack 0
  5874   0012D4                     _I2C1_MasterGetRxData:
  5875                           	callstack 18
  5876   0012D4                     
  5877                           ;mcc_generated_files/i2c1_master.c: 566:     return SSP1BUF;
  5878   0012D4  50C9               	movf	201,w,c	;volatile
  5879   0012D6  0012               	return		;funcret
  5880   0012D8                     __end_of_I2C1_MasterGetRxData:
  5881                           	callstack 0
  5882                           
  5883 ;; *************** function _I2C1_MasterSendNack *****************
  5884 ;; Defined at:
  5885 ;;		line 610 in file "mcc_generated_files/i2c1_master.c"
  5886 ;; Parameters:    Size  Location     Type
  5887 ;;		None
  5888 ;; Auto vars:     Size  Location     Type
  5889 ;;		None
  5890 ;; Return value:  Size  Location     Type
  5891 ;;                  1    wreg      void 
  5892 ;; Registers used:
  5893 ;;		None
  5894 ;; Tracked objects:
  5895 ;;		On entry : 0/0
  5896 ;;		On exit  : 0/0
  5897 ;;		Unchanged: 0/0
  5898 ;; Data sizes:     COMRAM   BANK0   BANK1   BANK2   BANK3   BANK4   BANK5   BANK6   BANK7
  5899 ;;      Params:         0       0       0       0       0       0       0       0       0
  5900 ;;      Locals:         0       0       0       0       0       0       0       0       0
  5901 ;;      Temps:          0       0       0       0       0       0       0       0       0
  5902 ;;      Totals:         0       0       0       0       0       0       0       0       0
  5903 ;;Total ram usage:        0 bytes
  5904 ;; Hardware stack levels used: 1
  5905 ;; This function calls:
  5906 ;;		Nothing
  5907 ;; This function is called by:
  5908 ;;		_I2C1_DO_RX_NACK_STOP
  5909 ;;		_I2C1_DO_RX_NACK_RESTART
  5910 ;; This function uses a non-reentrant model
  5911 ;;
  5912                           
  5913                           	psect	text56
  5914   0012AE                     __ptext56:
  5915                           	callstack 0
  5916   0012AE                     _I2C1_MasterSendNack:
  5917                           	callstack 18
  5918   0012AE                     
  5919                           ;mcc_generated_files/i2c1_master.c: 612:     SSP1CON2bits.ACKDT = 1;
  5920   0012AE  8AC5               	bsf	197,5,c	;volatile
  5921                           
  5922                           ;mcc_generated_files/i2c1_master.c: 613:     SSP1CON2bits.ACKEN = 1;
  5923   0012B0  88C5               	bsf	197,4,c	;volatile
  5924   0012B2  0012               	return		;funcret
  5925   0012B4                     __end_of_I2C1_MasterSendNack:
  5926                           	callstack 0
  5927                           
  5928 ;; *************** function _I2C1_MasterStartRx *****************
  5929 ;; Defined at:
  5930 ;;		line 584 in file "mcc_generated_files/i2c1_master.c"
  5931 ;; Parameters:    Size  Location     Type
  5932 ;;		None
  5933 ;; Auto vars:     Size  Location     Type
  5934 ;;		None
  5935 ;; Return value:  Size  Location     Type
  5936 ;;                  1    wreg      void 
  5937 ;; Registers used:
  5938 ;;		None
  5939 ;; Tracked objects:
  5940 ;;		On entry : 0/0
  5941 ;;		On exit  : 0/0
  5942 ;;		Unchanged: 0/0
  5943 ;; Data sizes:     COMRAM   BANK0   BANK1   BANK2   BANK3   BANK4   BANK5   BANK6   BANK7
  5944 ;;      Params:         0       0       0       0       0       0       0       0       0
  5945 ;;      Locals:         0       0       0       0       0       0       0       0       0
  5946 ;;      Temps:          0       0       0       0       0       0       0       0       0
  5947 ;;      Totals:         0       0       0       0       0       0       0       0       0
  5948 ;;Total ram usage:        0 bytes
  5949 ;; Hardware stack levels used: 1
  5950 ;; This function calls:
  5951 ;;		Nothing
  5952 ;; This function is called by:
  5953 ;;		_I2C1_DO_RCEN
  5954 ;; This function uses a non-reentrant model
  5955 ;;
  5956                           
  5957                           	psect	text57
  5958   0012D8                     __ptext57:
  5959                           	callstack 0
  5960   0012D8                     _I2C1_MasterStartRx:
  5961                           	callstack 18
  5962   0012D8                     
  5963                           ;mcc_generated_files/i2c1_master.c: 586:     SSP1CON2bits.RCEN = 1;
  5964   0012D8  86C5               	bsf	197,3,c	;volatile
  5965   0012DA  0012               	return		;funcret
  5966   0012DC                     __end_of_I2C1_MasterStartRx:
  5967                           	callstack 0
  5968                           
  5969 ;; *************** function _rdBlkRegCompleteHandler@i2c1_master_example$F1600 *****************
  5970 ;; Defined at:
  5971 ;;		line 170 in file "mcc_generated_files/examples/i2c1_master_example.c"
  5972 ;; Parameters:    Size  Location     Type
  5973 ;;  ptr             1    7[COMRAM] PTR void 
  5974 ;;		 -> I2C1_ReadDataBlock@bufferBlock(4), I2C1_Write2ByteRegister@data(2), I2C1_Write1ByteRegister@data(1), I2C1_Read2B
      +yteRegister@returnValue(2), 
  5975 ;;		 -> I2C1_Read1ByteRegister@returnValue(1), i2c_readDataBlock@d(4), i2c_write2ByteRegister@data(2), i2c_read2ByteRegi
      +ster@result(2), 
  5976 ;;		 -> i2c_read1ByteRegister@d2(1), i2c_write1ByteRegister@data(1), NULL(0), 
  5977 ;; Auto vars:     Size  Location     Type
  5978 ;;		None
  5979 ;; Return value:  Size  Location     Type
  5980 ;;                  1    wreg      enum E363
  5981 ;; Registers used:
  5982 ;;		wreg, fsr2l, fsr2h, status,2, status,0, prodl, prodh, cstack
  5983 ;; Tracked objects:
  5984 ;;		On entry : 0/0
  5985 ;;		On exit  : 0/0
  5986 ;;		Unchanged: 0/0
  5987 ;; Data sizes:     COMRAM   BANK0   BANK1   BANK2   BANK3   BANK4   BANK5   BANK6   BANK7
  5988 ;;      Params:         1       0       0       0       0       0       0       0       0
  5989 ;;      Locals:         0       0       0       0       0       0       0       0       0
  5990 ;;      Temps:          1       0       0       0       0       0       0       0       0
  5991 ;;      Totals:         2       0       0       0       0       0       0       0       0
  5992 ;;Total ram usage:        2 bytes
  5993 ;; Hardware stack levels used: 1
  5994 ;; Hardware stack levels required when called: 2
  5995 ;; This function calls:
  5996 ;;		_I2C1_SetDataCompleteCallback
  5997 ;;		i2_I2C1_SetBuffer
  5998 ;; This function is called by:
  5999 ;;		_I2C1_ReadDataBlock
  6000 ;;		_I2C1_DO_TX
  6001 ;;		_I2C1_DO_RX
  6002 ;;		_I2C1_DO_TX_EMPTY
  6003 ;;		_I2C1_DO_ADDRESS_NACK
  6004 ;;		_I2C1_DO_RX_EMPTY
  6005 ;; This function uses a non-reentrant model
  6006 ;;
  6007                           
  6008                           	psect	text58
  6009   000EDE                     __ptext58:
  6010                           	callstack 0
  6011   000EDE                     _rdBlkRegCompleteHandler@i2c1_master_example$F1600:
  6012                           	callstack 16
  6013   000EDE                     
  6014                           ;mcc_generated_files/examples/i2c1_master_example.c: 170: static i2c1_operations_t rdBlk
      +                          RegCompleteHandler(void *ptr);mcc_generated_files/examples/i2c1_master_example.c: 171: {
      +                          ;mcc_generated_files/examples/i2c1_master_example.c: 172:     I2C1_SetBuffer(((i2c1_buff
      +                          er_t *)ptr)->data,((i2c1_buffer_t*)ptr)->len);
  6015   000EDE  5008               	movf	rdBlkRegCompleteHandler@i2c1_master_example$F1600@ptr^0,w,c
  6016   000EE0  6ED9               	movwf	fsr2l,c
  6017   000EE2  6ADA               	clrf	fsr2h,c
  6018   000EE4  0E02               	movlw	2
  6019   000EE6  26D9               	addwf	fsr2l,f,c
  6020   000EE8  50DF               	movf	indf2,w,c
  6021   000EEA  6E09               	movwf	??_rdBlkRegCompleteHandler^0,c
  6022   000EEC  C009  F001         	movff	??_rdBlkRegCompleteHandler,i2I2C1_SetBuffer@buffer
  6023   000EF0  6A02               	clrf	(i2I2C1_SetBuffer@buffer+1)^0,c
  6024   000EF2  5008               	movf	rdBlkRegCompleteHandler@i2c1_master_example$F1600@ptr^0,w,c
  6025   000EF4  6ED9               	movwf	fsr2l,c
  6026   000EF6  6ADA               	clrf	fsr2h,c
  6027   000EF8  CFDE F003          	movff	postinc2,i2I2C1_SetBuffer@bufferSize
  6028   000EFC  CFDD F004          	movff	postdec2,i2I2C1_SetBuffer@bufferSize+1
  6029   000F00  EC8C  F008         	call	i2_I2C1_SetBuffer	;wreg free
  6030   000F04                     
  6031                           ;mcc_generated_files/examples/i2c1_master_example.c: 173:     I2C1_SetDataCompleteCallba
      +                          ck(((void*)0),((void*)0));
  6032   000F04  0E00               	movlw	0
  6033   000F06  6E05               	movwf	I2C1_SetDataCompleteCallback@cb^0,c
  6034   000F08  0E00               	movlw	0
  6035   000F0A  6E06               	movwf	(I2C1_SetDataCompleteCallback@cb+1)^0,c
  6036   000F0C  0E00               	movlw	0
  6037   000F0E  6E07               	movwf	I2C1_SetDataCompleteCallback@ptr^0,c
  6038   000F10  ECDD  F008         	call	_I2C1_SetDataCompleteCallback	;wreg free
  6039   000F14                     
  6040                           ;mcc_generated_files/examples/i2c1_master_example.c: 174:     return I2C1_RESTART_READ;
  6041   000F14  0E02               	movlw	2
  6042   000F16  0012               	return		;funcret
  6043   000F18                     __end_of_rdBlkRegCompleteHandler@i2c1_master_example$F1600:
  6044                           	callstack 0
  6045                           
  6046 ;; *************** function _wr1RegCompleteHandler@i2c1_master_example$F1583 *****************
  6047 ;; Defined at:
  6048 ;;		line 156 in file "mcc_generated_files/examples/i2c1_master_example.c"
  6049 ;; Parameters:    Size  Location     Type
  6050 ;;  ptr             1    7[COMRAM] PTR void 
  6051 ;;		 -> I2C1_ReadDataBlock@bufferBlock(4), I2C1_Write2ByteRegister@data(2), I2C1_Write1ByteRegister@data(1), I2C1_Read2B
      +yteRegister@returnValue(2), 
  6052 ;;		 -> I2C1_Read1ByteRegister@returnValue(1), i2c_readDataBlock@d(4), i2c_write2ByteRegister@data(2), i2c_read2ByteRegi
      +ster@result(2), 
  6053 ;;		 -> i2c_read1ByteRegister@d2(1), i2c_write1ByteRegister@data(1), NULL(0), 
  6054 ;; Auto vars:     Size  Location     Type
  6055 ;;		None
  6056 ;; Return value:  Size  Location     Type
  6057 ;;                  1    wreg      enum E363
  6058 ;; Registers used:
  6059 ;;		wreg, fsr2l, fsr2h, status,2, status,0, prodl, prodh, cstack
  6060 ;; Tracked objects:
  6061 ;;		On entry : 0/0
  6062 ;;		On exit  : 0/0
  6063 ;;		Unchanged: 0/0
  6064 ;; Data sizes:     COMRAM   BANK0   BANK1   BANK2   BANK3   BANK4   BANK5   BANK6   BANK7
  6065 ;;      Params:         1       0       0       0       0       0       0       0       0
  6066 ;;      Locals:         0       0       0       0       0       0       0       0       0
  6067 ;;      Temps:          0       0       0       0       0       0       0       0       0
  6068 ;;      Totals:         1       0       0       0       0       0       0       0       0
  6069 ;;Total ram usage:        1 bytes
  6070 ;; Hardware stack levels used: 1
  6071 ;; Hardware stack levels required when called: 2
  6072 ;; This function calls:
  6073 ;;		_I2C1_SetDataCompleteCallback
  6074 ;;		i2_I2C1_SetBuffer
  6075 ;; This function is called by:
  6076 ;;		_I2C1_Write1ByteRegister
  6077 ;;		_I2C1_DO_TX
  6078 ;;		_I2C1_DO_RX
  6079 ;;		_I2C1_DO_TX_EMPTY
  6080 ;;		_I2C1_DO_ADDRESS_NACK
  6081 ;;		_I2C1_DO_RX_EMPTY
  6082 ;; This function uses a non-reentrant model
  6083 ;;
  6084                           
  6085                           	psect	text59
  6086   000FA2                     __ptext59:
  6087                           	callstack 0
  6088   000FA2                     _wr1RegCompleteHandler@i2c1_master_example$F1583:
  6089                           	callstack 16
  6090   000FA2                     
  6091                           ;mcc_generated_files/examples/i2c1_master_example.c: 156: static i2c1_operations_t wr1Re
      +                          gCompleteHandler(void *ptr);mcc_generated_files/examples/i2c1_master_example.c: 157: {;m
      +                          cc_generated_files/examples/i2c1_master_example.c: 158:     I2C1_SetBuffer(ptr,1);
  6092   000FA2  C008  F001         	movff	wr1RegCompleteHandler@i2c1_master_example$F1583@ptr,i2I2C1_SetBuffer@buffer
  6093   000FA6  6A02               	clrf	(i2I2C1_SetBuffer@buffer+1)^0,c
  6094   000FA8  0E00               	movlw	0
  6095   000FAA  6E04               	movwf	(i2I2C1_SetBuffer@bufferSize+1)^0,c
  6096   000FAC  0E01               	movlw	1
  6097   000FAE  6E03               	movwf	i2I2C1_SetBuffer@bufferSize^0,c
  6098   000FB0  EC8C  F008         	call	i2_I2C1_SetBuffer	;wreg free
  6099   000FB4                     
  6100                           ;mcc_generated_files/examples/i2c1_master_example.c: 159:     I2C1_SetDataCompleteCallba
      +                          ck(((void*)0),((void*)0));
  6101   000FB4  0E00               	movlw	0
  6102   000FB6  6E05               	movwf	I2C1_SetDataCompleteCallback@cb^0,c
  6103   000FB8  0E00               	movlw	0
  6104   000FBA  6E06               	movwf	(I2C1_SetDataCompleteCallback@cb+1)^0,c
  6105   000FBC  0E00               	movlw	0
  6106   000FBE  6E07               	movwf	I2C1_SetDataCompleteCallback@ptr^0,c
  6107   000FC0  ECDD  F008         	call	_I2C1_SetDataCompleteCallback	;wreg free
  6108   000FC4                     
  6109                           ;mcc_generated_files/examples/i2c1_master_example.c: 160:     return I2C1_CONTINUE;
  6110   000FC4  0E04               	movlw	4
  6111   000FC6  0012               	return		;funcret
  6112   000FC8                     __end_of_wr1RegCompleteHandler@i2c1_master_example$F1583:
  6113                           	callstack 0
  6114                           
  6115 ;; *************** function _rd2RegCompleteHandler@i2c1_master_example$F1577 *****************
  6116 ;; Defined at:
  6117 ;;		line 149 in file "mcc_generated_files/examples/i2c1_master_example.c"
  6118 ;; Parameters:    Size  Location     Type
  6119 ;;  ptr             1    7[COMRAM] PTR void 
  6120 ;;		 -> I2C1_ReadDataBlock@bufferBlock(4), I2C1_Write2ByteRegister@data(2), I2C1_Write1ByteRegister@data(1), I2C1_Read2B
      +yteRegister@returnValue(2), 
  6121 ;;		 -> I2C1_Read1ByteRegister@returnValue(1), i2c_readDataBlock@d(4), i2c_write2ByteRegister@data(2), i2c_read2ByteRegi
      +ster@result(2), 
  6122 ;;		 -> i2c_read1ByteRegister@d2(1), i2c_write1ByteRegister@data(1), NULL(0), 
  6123 ;; Auto vars:     Size  Location     Type
  6124 ;;		None
  6125 ;; Return value:  Size  Location     Type
  6126 ;;                  1    wreg      enum E363
  6127 ;; Registers used:
  6128 ;;		wreg, fsr2l, fsr2h, status,2, status,0, prodl, prodh, cstack
  6129 ;; Tracked objects:
  6130 ;;		On entry : 0/0
  6131 ;;		On exit  : 0/0
  6132 ;;		Unchanged: 0/0
  6133 ;; Data sizes:     COMRAM   BANK0   BANK1   BANK2   BANK3   BANK4   BANK5   BANK6   BANK7
  6134 ;;      Params:         1       0       0       0       0       0       0       0       0
  6135 ;;      Locals:         0       0       0       0       0       0       0       0       0
  6136 ;;      Temps:          0       0       0       0       0       0       0       0       0
  6137 ;;      Totals:         1       0       0       0       0       0       0       0       0
  6138 ;;Total ram usage:        1 bytes
  6139 ;; Hardware stack levels used: 1
  6140 ;; Hardware stack levels required when called: 2
  6141 ;; This function calls:
  6142 ;;		_I2C1_SetDataCompleteCallback
  6143 ;;		i2_I2C1_SetBuffer
  6144 ;; This function is called by:
  6145 ;;		_I2C1_Read2ByteRegister
  6146 ;;		_I2C1_DO_TX
  6147 ;;		_I2C1_DO_RX
  6148 ;;		_I2C1_DO_TX_EMPTY
  6149 ;;		_I2C1_DO_ADDRESS_NACK
  6150 ;;		_I2C1_DO_RX_EMPTY
  6151 ;; This function uses a non-reentrant model
  6152 ;;
  6153                           
  6154                           	psect	text60
  6155   000FC8                     __ptext60:
  6156                           	callstack 0
  6157   000FC8                     _rd2RegCompleteHandler@i2c1_master_example$F1577:
  6158                           	callstack 16
  6159   000FC8                     
  6160                           ;mcc_generated_files/examples/i2c1_master_example.c: 149: static i2c1_operations_t rd2Re
      +                          gCompleteHandler(void *ptr);mcc_generated_files/examples/i2c1_master_example.c: 150: {;m
      +                          cc_generated_files/examples/i2c1_master_example.c: 151:     I2C1_SetBuffer(ptr,2);
  6161   000FC8  C008  F001         	movff	rd2RegCompleteHandler@i2c1_master_example$F1577@ptr,i2I2C1_SetBuffer@buffer
  6162   000FCC  6A02               	clrf	(i2I2C1_SetBuffer@buffer+1)^0,c
  6163   000FCE  0E00               	movlw	0
  6164   000FD0  6E04               	movwf	(i2I2C1_SetBuffer@bufferSize+1)^0,c
  6165   000FD2  0E02               	movlw	2
  6166   000FD4  6E03               	movwf	i2I2C1_SetBuffer@bufferSize^0,c
  6167   000FD6  EC8C  F008         	call	i2_I2C1_SetBuffer	;wreg free
  6168   000FDA                     
  6169                           ;mcc_generated_files/examples/i2c1_master_example.c: 152:     I2C1_SetDataCompleteCallba
      +                          ck(((void*)0),((void*)0));
  6170   000FDA  0E00               	movlw	0
  6171   000FDC  6E05               	movwf	I2C1_SetDataCompleteCallback@cb^0,c
  6172   000FDE  0E00               	movlw	0
  6173   000FE0  6E06               	movwf	(I2C1_SetDataCompleteCallback@cb+1)^0,c
  6174   000FE2  0E00               	movlw	0
  6175   000FE4  6E07               	movwf	I2C1_SetDataCompleteCallback@ptr^0,c
  6176   000FE6  ECDD  F008         	call	_I2C1_SetDataCompleteCallback	;wreg free
  6177   000FEA                     
  6178                           ;mcc_generated_files/examples/i2c1_master_example.c: 153:     return I2C1_RESTART_READ;
  6179   000FEA  0E02               	movlw	2
  6180   000FEC  0012               	return		;funcret
  6181   000FEE                     __end_of_rd2RegCompleteHandler@i2c1_master_example$F1577:
  6182                           	callstack 0
  6183                           
  6184 ;; *************** function _rd1RegCompleteHandler@i2c1_master_example$F1566 *****************
  6185 ;; Defined at:
  6186 ;;		line 142 in file "mcc_generated_files/examples/i2c1_master_example.c"
  6187 ;; Parameters:    Size  Location     Type
  6188 ;;  ptr             1    7[COMRAM] PTR void 
  6189 ;;		 -> I2C1_ReadDataBlock@bufferBlock(4), I2C1_Write2ByteRegister@data(2), I2C1_Write1ByteRegister@data(1), I2C1_Read2B
      +yteRegister@returnValue(2), 
  6190 ;;		 -> I2C1_Read1ByteRegister@returnValue(1), i2c_readDataBlock@d(4), i2c_write2ByteRegister@data(2), i2c_read2ByteRegi
      +ster@result(2), 
  6191 ;;		 -> i2c_read1ByteRegister@d2(1), i2c_write1ByteRegister@data(1), NULL(0), 
  6192 ;; Auto vars:     Size  Location     Type
  6193 ;;		None
  6194 ;; Return value:  Size  Location     Type
  6195 ;;                  1    wreg      enum E363
  6196 ;; Registers used:
  6197 ;;		wreg, fsr2l, fsr2h, status,2, status,0, prodl, prodh, cstack
  6198 ;; Tracked objects:
  6199 ;;		On entry : 0/0
  6200 ;;		On exit  : 0/0
  6201 ;;		Unchanged: 0/0
  6202 ;; Data sizes:     COMRAM   BANK0   BANK1   BANK2   BANK3   BANK4   BANK5   BANK6   BANK7
  6203 ;;      Params:         1       0       0       0       0       0       0       0       0
  6204 ;;      Locals:         0       0       0       0       0       0       0       0       0
  6205 ;;      Temps:          0       0       0       0       0       0       0       0       0
  6206 ;;      Totals:         1       0       0       0       0       0       0       0       0
  6207 ;;Total ram usage:        1 bytes
  6208 ;; Hardware stack levels used: 1
  6209 ;; Hardware stack levels required when called: 2
  6210 ;; This function calls:
  6211 ;;		_I2C1_SetDataCompleteCallback
  6212 ;;		i2_I2C1_SetBuffer
  6213 ;; This function is called by:
  6214 ;;		_I2C1_Read1ByteRegister
  6215 ;;		_I2C1_DO_TX
  6216 ;;		_I2C1_DO_RX
  6217 ;;		_I2C1_DO_TX_EMPTY
  6218 ;;		_I2C1_DO_ADDRESS_NACK
  6219 ;;		_I2C1_DO_RX_EMPTY
  6220 ;; This function uses a non-reentrant model
  6221 ;;
  6222                           
  6223                           	psect	text61
  6224   000FEE                     __ptext61:
  6225                           	callstack 0
  6226   000FEE                     _rd1RegCompleteHandler@i2c1_master_example$F1566:
  6227                           	callstack 16
  6228   000FEE                     
  6229                           ;mcc_generated_files/examples/i2c1_master_example.c: 142: static i2c1_operations_t rd1Re
      +                          gCompleteHandler(void *ptr);mcc_generated_files/examples/i2c1_master_example.c: 143: {;m
      +                          cc_generated_files/examples/i2c1_master_example.c: 144:     I2C1_SetBuffer(ptr,1);
  6230   000FEE  C008  F001         	movff	rd1RegCompleteHandler@i2c1_master_example$F1566@ptr,i2I2C1_SetBuffer@buffer
  6231   000FF2  6A02               	clrf	(i2I2C1_SetBuffer@buffer+1)^0,c
  6232   000FF4  0E00               	movlw	0
  6233   000FF6  6E04               	movwf	(i2I2C1_SetBuffer@bufferSize+1)^0,c
  6234   000FF8  0E01               	movlw	1
  6235   000FFA  6E03               	movwf	i2I2C1_SetBuffer@bufferSize^0,c
  6236   000FFC  EC8C  F008         	call	i2_I2C1_SetBuffer	;wreg free
  6237   001000                     
  6238                           ;mcc_generated_files/examples/i2c1_master_example.c: 145:     I2C1_SetDataCompleteCallba
      +                          ck(((void*)0),((void*)0));
  6239   001000  0E00               	movlw	0
  6240   001002  6E05               	movwf	I2C1_SetDataCompleteCallback@cb^0,c
  6241   001004  0E00               	movlw	0
  6242   001006  6E06               	movwf	(I2C1_SetDataCompleteCallback@cb+1)^0,c
  6243   001008  0E00               	movlw	0
  6244   00100A  6E07               	movwf	I2C1_SetDataCompleteCallback@ptr^0,c
  6245   00100C  ECDD  F008         	call	_I2C1_SetDataCompleteCallback	;wreg free
  6246   001010                     
  6247                           ;mcc_generated_files/examples/i2c1_master_example.c: 146:     return I2C1_RESTART_READ;
  6248   001010  0E02               	movlw	2
  6249   001012  0012               	return		;funcret
  6250   001014                     __end_of_rd1RegCompleteHandler@i2c1_master_example$F1566:
  6251                           	callstack 0
  6252                           
  6253 ;; *************** function _I2C1_CallbackReturnReset *****************
  6254 ;; Defined at:
  6255 ;;		line 526 in file "mcc_generated_files/i2c1_master.c"
  6256 ;; Parameters:    Size  Location     Type
  6257 ;;  funPtr          1    7[COMRAM] PTR void 
  6258 ;;		 -> I2C1_ReadDataBlock@bufferBlock(4), I2C1_Write2ByteRegister@data(2), I2C1_Write1ByteRegister@data(1), I2C1_Read2B
      +yteRegister@returnValue(2), 
  6259 ;;		 -> I2C1_Read1ByteRegister@returnValue(1), i2c_readDataBlock@d(4), i2c_write2ByteRegister@data(2), i2c_read2ByteRegi
      +ster@result(2), 
  6260 ;;		 -> i2c_read1ByteRegister@d2(1), i2c_write1ByteRegister@data(1), NULL(0), 
  6261 ;; Auto vars:     Size  Location     Type
  6262 ;;		None
  6263 ;; Return value:  Size  Location     Type
  6264 ;;                  1    wreg      enum E363
  6265 ;; Registers used:
  6266 ;;		wreg
  6267 ;; Tracked objects:
  6268 ;;		On entry : 0/0
  6269 ;;		On exit  : 0/0
  6270 ;;		Unchanged: 0/0
  6271 ;; Data sizes:     COMRAM   BANK0   BANK1   BANK2   BANK3   BANK4   BANK5   BANK6   BANK7
  6272 ;;      Params:         1       0       0       0       0       0       0       0       0
  6273 ;;      Locals:         0       0       0       0       0       0       0       0       0
  6274 ;;      Temps:          0       0       0       0       0       0       0       0       0
  6275 ;;      Totals:         1       0       0       0       0       0       0       0       0
  6276 ;;Total ram usage:        1 bytes
  6277 ;; Hardware stack levels used: 1
  6278 ;; This function calls:
  6279 ;;		Nothing
  6280 ;; This function is called by:
  6281 ;;		_I2C1_Open
  6282 ;;		_I2C1_DO_TX
  6283 ;;		_I2C1_DO_RX
  6284 ;;		_I2C1_DO_TX_EMPTY
  6285 ;;		_I2C1_DO_ADDRESS_NACK
  6286 ;;		_I2C1_DO_RX_EMPTY
  6287 ;; This function uses a non-reentrant model
  6288 ;;
  6289                           
  6290                           	psect	text62
  6291   0012DC                     __ptext62:
  6292                           	callstack 0
  6293   0012DC                     _I2C1_CallbackReturnReset:
  6294                           	callstack 18
  6295   0012DC                     
  6296                           ;mcc_generated_files/i2c1_master.c: 526: i2c1_operations_t I2C1_CallbackReturnReset(void
      +                           *funPtr);mcc_generated_files/i2c1_master.c: 527: {;mcc_generated_files/i2c1_master.c: 5
      +                          28:     return I2C1_RESET_LINK;
  6297   0012DC  0E05               	movlw	5
  6298   0012DE  0012               	return		;funcret
  6299   0012E0                     __end_of_I2C1_CallbackReturnReset:
  6300                           	callstack 0
  6301                           
  6302 ;; *************** function _I2C1_CallbackReturnStop *****************
  6303 ;; Defined at:
  6304 ;;		line 521 in file "mcc_generated_files/i2c1_master.c"
  6305 ;; Parameters:    Size  Location     Type
  6306 ;;  funPtr          1    7[COMRAM] PTR void 
  6307 ;;		 -> I2C1_ReadDataBlock@bufferBlock(4), I2C1_Write2ByteRegister@data(2), I2C1_Write1ByteRegister@data(1), I2C1_Read2B
      +yteRegister@returnValue(2), 
  6308 ;;		 -> I2C1_Read1ByteRegister@returnValue(1), i2c_readDataBlock@d(4), i2c_write2ByteRegister@data(2), i2c_read2ByteRegi
      +ster@result(2), 
  6309 ;;		 -> i2c_read1ByteRegister@d2(1), i2c_write1ByteRegister@data(1), NULL(0), 
  6310 ;; Auto vars:     Size  Location     Type
  6311 ;;		None
  6312 ;; Return value:  Size  Location     Type
  6313 ;;                  1    wreg      enum E363
  6314 ;; Registers used:
  6315 ;;		wreg
  6316 ;; Tracked objects:
  6317 ;;		On entry : 0/0
  6318 ;;		On exit  : 0/0
  6319 ;;		Unchanged: 0/0
  6320 ;; Data sizes:     COMRAM   BANK0   BANK1   BANK2   BANK3   BANK4   BANK5   BANK6   BANK7
  6321 ;;      Params:         1       0       0       0       0       0       0       0       0
  6322 ;;      Locals:         0       0       0       0       0       0       0       0       0
  6323 ;;      Temps:          0       0       0       0       0       0       0       0       0
  6324 ;;      Totals:         1       0       0       0       0       0       0       0       0
  6325 ;;Total ram usage:        1 bytes
  6326 ;; Hardware stack levels used: 1
  6327 ;; This function calls:
  6328 ;;		Nothing
  6329 ;; This function is called by:
  6330 ;;		_I2C1_Open
  6331 ;;		_I2C1_SetCallback
  6332 ;;		i2_I2C1_SetCallback
  6333 ;;		_I2C1_DO_TX
  6334 ;;		_I2C1_DO_RX
  6335 ;;		_I2C1_DO_TX_EMPTY
  6336 ;;		_I2C1_DO_ADDRESS_NACK
  6337 ;;		_I2C1_DO_RX_EMPTY
  6338 ;; This function uses a non-reentrant model
  6339 ;;
  6340                           
  6341                           	psect	text63
  6342   0012E0                     __ptext63:
  6343                           	callstack 0
  6344   0012E0                     _I2C1_CallbackReturnStop:
  6345                           	callstack 18
  6346   0012E0                     
  6347                           ;mcc_generated_files/i2c1_master.c: 521: i2c1_operations_t I2C1_CallbackReturnStop(void 
      +                          *funPtr);mcc_generated_files/i2c1_master.c: 522: {;mcc_generated_files/i2c1_master.c: 52
      +                          3:     return I2C1_STOP;
  6348   0012E0  0E01               	movlw	1
  6349   0012E2  0012               	return		;funcret
  6350   0012E4                     __end_of_I2C1_CallbackReturnStop:
  6351                           	callstack 0
  6352                           
  6353 ;; *************** function _rdBlkRegCompleteHandler *****************
  6354 ;; Defined at:
  6355 ;;		line 185 in file "mcc_generated_files/drivers/i2c_simple_master.c"
  6356 ;; Parameters:    Size  Location     Type
  6357 ;;  p               1    7[COMRAM] PTR void 
  6358 ;;		 -> I2C1_ReadDataBlock@bufferBlock(4), I2C1_Write2ByteRegister@data(2), I2C1_Write1ByteRegister@data(1), I2C1_Read2B
      +yteRegister@returnValue(2), 
  6359 ;;		 -> I2C1_Read1ByteRegister@returnValue(1), i2c_readDataBlock@d(4), i2c_write2ByteRegister@data(2), i2c_read2ByteRegi
      +ster@result(2), 
  6360 ;;		 -> i2c_read1ByteRegister@d2(1), i2c_write1ByteRegister@data(1), NULL(0), 
  6361 ;; Auto vars:     Size  Location     Type
  6362 ;;		None
  6363 ;; Return value:  Size  Location     Type
  6364 ;;                  1    wreg      enum E363
  6365 ;; Registers used:
  6366 ;;		wreg, fsr2l, fsr2h, status,2, status,0, prodl, prodh, cstack
  6367 ;; Tracked objects:
  6368 ;;		On entry : 0/0
  6369 ;;		On exit  : 0/0
  6370 ;;		Unchanged: 0/0
  6371 ;; Data sizes:     COMRAM   BANK0   BANK1   BANK2   BANK3   BANK4   BANK5   BANK6   BANK7
  6372 ;;      Params:         1       0       0       0       0       0       0       0       0
  6373 ;;      Locals:         0       0       0       0       0       0       0       0       0
  6374 ;;      Temps:          1       0       0       0       0       0       0       0       0
  6375 ;;      Totals:         2       0       0       0       0       0       0       0       0
  6376 ;;Total ram usage:        2 bytes
  6377 ;; Hardware stack levels used: 1
  6378 ;; Hardware stack levels required when called: 2
  6379 ;; This function calls:
  6380 ;;		_I2C1_SetDataCompleteCallback
  6381 ;;		i2_I2C1_SetBuffer
  6382 ;; This function is called by:
  6383 ;;		_i2c_readDataBlock
  6384 ;;		_I2C1_DO_TX
  6385 ;;		_I2C1_DO_RX
  6386 ;;		_I2C1_DO_TX_EMPTY
  6387 ;;		_I2C1_DO_ADDRESS_NACK
  6388 ;;		_I2C1_DO_RX_EMPTY
  6389 ;; This function uses a non-reentrant model
  6390 ;;
  6391                           
  6392                           	psect	text64
  6393   000F18                     __ptext64:
  6394                           	callstack 0
  6395   000F18                     _rdBlkRegCompleteHandler:
  6396                           	callstack 16
  6397   000F18                     
  6398                           ;mcc_generated_files/drivers/i2c_simple_master.c: 185: static i2c1_operations_t rdBlkReg
      +                          CompleteHandler(void *p);mcc_generated_files/drivers/i2c_simple_master.c: 186: {;mcc_gen
      +                          erated_files/drivers/i2c_simple_master.c: 187:     I2C1_SetBuffer(((buf_t *)p)->data,((b
      +                          uf_t*)p)->len);
  6399   000F18  5008               	movf	rdBlkRegCompleteHandler@p^0,w,c
  6400   000F1A  6ED9               	movwf	fsr2l,c
  6401   000F1C  6ADA               	clrf	fsr2h,c
  6402   000F1E  0E02               	movlw	2
  6403   000F20  26D9               	addwf	fsr2l,f,c
  6404   000F22  50DF               	movf	indf2,w,c
  6405   000F24  6E09               	movwf	??_rdBlkRegCompleteHandler@xxtofl$F2282^0,c
  6406   000F26  C009  F001         	movff	??_rdBlkRegCompleteHandler@xxtofl$F2282,i2I2C1_SetBuffer@buffer
  6407   000F2A  6A02               	clrf	(i2I2C1_SetBuffer@buffer+1)^0,c
  6408   000F2C  5008               	movf	rdBlkRegCompleteHandler@p^0,w,c
  6409   000F2E  6ED9               	movwf	fsr2l,c
  6410   000F30  6ADA               	clrf	fsr2h,c
  6411   000F32  CFDE F003          	movff	postinc2,i2I2C1_SetBuffer@bufferSize
  6412   000F36  CFDD F004          	movff	postdec2,i2I2C1_SetBuffer@bufferSize+1
  6413   000F3A  EC8C  F008         	call	i2_I2C1_SetBuffer	;wreg free
  6414   000F3E                     
  6415                           ;mcc_generated_files/drivers/i2c_simple_master.c: 188:     I2C1_SetDataCompleteCallback(
      +                          ((void*)0),((void*)0));
  6416   000F3E  0E00               	movlw	0
  6417   000F40  6E05               	movwf	I2C1_SetDataCompleteCallback@cb^0,c
  6418   000F42  0E00               	movlw	0
  6419   000F44  6E06               	movwf	(I2C1_SetDataCompleteCallback@cb+1)^0,c
  6420   000F46  0E00               	movlw	0
  6421   000F48  6E07               	movwf	I2C1_SetDataCompleteCallback@ptr^0,c
  6422   000F4A  ECDD  F008         	call	_I2C1_SetDataCompleteCallback	;wreg free
  6423   000F4E                     
  6424                           ;mcc_generated_files/drivers/i2c_simple_master.c: 189:     return I2C1_RESTART_READ;
  6425   000F4E  0E02               	movlw	2
  6426   000F50  0012               	return		;funcret
  6427   000F52                     __end_of_rdBlkRegCompleteHandler:
  6428                           	callstack 0
  6429                           
  6430 ;; *************** function _wr2RegCompleteHandler *****************
  6431 ;; Defined at:
  6432 ;;		line 151 in file "mcc_generated_files/drivers/i2c_simple_master.c"
  6433 ;; Parameters:    Size  Location     Type
  6434 ;;  p               1    7[COMRAM] PTR void 
  6435 ;;		 -> I2C1_ReadDataBlock@bufferBlock(4), I2C1_Write2ByteRegister@data(2), I2C1_Write1ByteRegister@data(1), I2C1_Read2B
      +yteRegister@returnValue(2), 
  6436 ;;		 -> I2C1_Read1ByteRegister@returnValue(1), i2c_readDataBlock@d(4), i2c_write2ByteRegister@data(2), i2c_read2ByteRegi
      +ster@result(2), 
  6437 ;;		 -> i2c_read1ByteRegister@d2(1), i2c_write1ByteRegister@data(1), NULL(0), 
  6438 ;; Auto vars:     Size  Location     Type
  6439 ;;		None
  6440 ;; Return value:  Size  Location     Type
  6441 ;;                  1    wreg      enum E363
  6442 ;; Registers used:
  6443 ;;		wreg, fsr2l, fsr2h, status,2, status,0, prodl, prodh, cstack
  6444 ;; Tracked objects:
  6445 ;;		On entry : 0/0
  6446 ;;		On exit  : 0/0
  6447 ;;		Unchanged: 0/0
  6448 ;; Data sizes:     COMRAM   BANK0   BANK1   BANK2   BANK3   BANK4   BANK5   BANK6   BANK7
  6449 ;;      Params:         1       0       0       0       0       0       0       0       0
  6450 ;;      Locals:         0       0       0       0       0       0       0       0       0
  6451 ;;      Temps:          0       0       0       0       0       0       0       0       0
  6452 ;;      Totals:         1       0       0       0       0       0       0       0       0
  6453 ;;Total ram usage:        1 bytes
  6454 ;; Hardware stack levels used: 1
  6455 ;; Hardware stack levels required when called: 2
  6456 ;; This function calls:
  6457 ;;		_I2C1_SetDataCompleteCallback
  6458 ;;		i2_I2C1_SetBuffer
  6459 ;; This function is called by:
  6460 ;;		_i2c_write2ByteRegister
  6461 ;;		_I2C1_DO_TX
  6462 ;;		_I2C1_DO_RX
  6463 ;;		_I2C1_DO_TX_EMPTY
  6464 ;;		_I2C1_DO_ADDRESS_NACK
  6465 ;;		_I2C1_DO_RX_EMPTY
  6466 ;; This function uses a non-reentrant model
  6467 ;;
  6468                           
  6469                           	psect	text65
  6470   001014                     __ptext65:
  6471                           	callstack 0
  6472   001014                     _wr2RegCompleteHandler:
  6473                           	callstack 16
  6474   001014                     
  6475                           ;mcc_generated_files/drivers/i2c_simple_master.c: 151: static i2c1_operations_t wr2RegCo
      +                          mpleteHandler(void *p);mcc_generated_files/drivers/i2c_simple_master.c: 152: {;mcc_gener
      +                          ated_files/drivers/i2c_simple_master.c: 153:     I2C1_SetBuffer(p,2);
  6476   001014  C008  F001         	movff	wr2RegCompleteHandler@p,i2I2C1_SetBuffer@buffer
  6477   001018  6A02               	clrf	(i2I2C1_SetBuffer@buffer+1)^0,c
  6478   00101A  0E00               	movlw	0
  6479   00101C  6E04               	movwf	(i2I2C1_SetBuffer@bufferSize+1)^0,c
  6480   00101E  0E02               	movlw	2
  6481   001020  6E03               	movwf	i2I2C1_SetBuffer@bufferSize^0,c
  6482   001022  EC8C  F008         	call	i2_I2C1_SetBuffer	;wreg free
  6483   001026                     
  6484                           ;mcc_generated_files/drivers/i2c_simple_master.c: 154:     I2C1_SetDataCompleteCallback(
      +                          ((void*)0),((void*)0));
  6485   001026  0E00               	movlw	0
  6486   001028  6E05               	movwf	I2C1_SetDataCompleteCallback@cb^0,c
  6487   00102A  0E00               	movlw	0
  6488   00102C  6E06               	movwf	(I2C1_SetDataCompleteCallback@cb+1)^0,c
  6489   00102E  0E00               	movlw	0
  6490   001030  6E07               	movwf	I2C1_SetDataCompleteCallback@ptr^0,c
  6491   001032  ECDD  F008         	call	_I2C1_SetDataCompleteCallback	;wreg free
  6492   001036                     
  6493                           ;mcc_generated_files/drivers/i2c_simple_master.c: 155:     return I2C1_CONTINUE;
  6494   001036  0E04               	movlw	4
  6495   001038  0012               	return		;funcret
  6496   00103A                     __end_of_wr2RegCompleteHandler:
  6497                           	callstack 0
  6498                           
  6499 ;; *************** function _rd2RegCompleteHandler *****************
  6500 ;; Defined at:
  6501 ;;		line 119 in file "mcc_generated_files/drivers/i2c_simple_master.c"
  6502 ;; Parameters:    Size  Location     Type
  6503 ;;  p               1    7[COMRAM] PTR void 
  6504 ;;		 -> I2C1_ReadDataBlock@bufferBlock(4), I2C1_Write2ByteRegister@data(2), I2C1_Write1ByteRegister@data(1), I2C1_Read2B
      +yteRegister@returnValue(2), 
  6505 ;;		 -> I2C1_Read1ByteRegister@returnValue(1), i2c_readDataBlock@d(4), i2c_write2ByteRegister@data(2), i2c_read2ByteRegi
      +ster@result(2), 
  6506 ;;		 -> i2c_read1ByteRegister@d2(1), i2c_write1ByteRegister@data(1), NULL(0), 
  6507 ;; Auto vars:     Size  Location     Type
  6508 ;;		None
  6509 ;; Return value:  Size  Location     Type
  6510 ;;                  1    wreg      enum E363
  6511 ;; Registers used:
  6512 ;;		wreg, fsr2l, fsr2h, status,2, status,0, prodl, prodh, cstack
  6513 ;; Tracked objects:
  6514 ;;		On entry : 0/0
  6515 ;;		On exit  : 0/0
  6516 ;;		Unchanged: 0/0
  6517 ;; Data sizes:     COMRAM   BANK0   BANK1   BANK2   BANK3   BANK4   BANK5   BANK6   BANK7
  6518 ;;      Params:         1       0       0       0       0       0       0       0       0
  6519 ;;      Locals:         0       0       0       0       0       0       0       0       0
  6520 ;;      Temps:          0       0       0       0       0       0       0       0       0
  6521 ;;      Totals:         1       0       0       0       0       0       0       0       0
  6522 ;;Total ram usage:        1 bytes
  6523 ;; Hardware stack levels used: 1
  6524 ;; Hardware stack levels required when called: 2
  6525 ;; This function calls:
  6526 ;;		_I2C1_SetDataCompleteCallback
  6527 ;;		i2_I2C1_SetBuffer
  6528 ;; This function is called by:
  6529 ;;		_i2c_read2ByteRegister
  6530 ;;		_I2C1_DO_TX
  6531 ;;		_I2C1_DO_RX
  6532 ;;		_I2C1_DO_TX_EMPTY
  6533 ;;		_I2C1_DO_ADDRESS_NACK
  6534 ;;		_I2C1_DO_RX_EMPTY
  6535 ;; This function uses a non-reentrant model
  6536 ;;
  6537                           
  6538                           	psect	text66
  6539   00103A                     __ptext66:
  6540                           	callstack 0
  6541   00103A                     _rd2RegCompleteHandler:
  6542                           	callstack 16
  6543   00103A                     
  6544                           ;mcc_generated_files/drivers/i2c_simple_master.c: 119: static i2c1_operations_t rd2RegCo
      +                          mpleteHandler(void *p);mcc_generated_files/drivers/i2c_simple_master.c: 120: {;mcc_gener
      +                          ated_files/drivers/i2c_simple_master.c: 121:     I2C1_SetBuffer(p,2);
  6545   00103A  C008  F001         	movff	rd2RegCompleteHandler@p,i2I2C1_SetBuffer@buffer
  6546   00103E  6A02               	clrf	(i2I2C1_SetBuffer@buffer+1)^0,c
  6547   001040  0E00               	movlw	0
  6548   001042  6E04               	movwf	(i2I2C1_SetBuffer@bufferSize+1)^0,c
  6549   001044  0E02               	movlw	2
  6550   001046  6E03               	movwf	i2I2C1_SetBuffer@bufferSize^0,c
  6551   001048  EC8C  F008         	call	i2_I2C1_SetBuffer	;wreg free
  6552   00104C                     
  6553                           ;mcc_generated_files/drivers/i2c_simple_master.c: 122:     I2C1_SetDataCompleteCallback(
      +                          ((void*)0),((void*)0));
  6554   00104C  0E00               	movlw	0
  6555   00104E  6E05               	movwf	I2C1_SetDataCompleteCallback@cb^0,c
  6556   001050  0E00               	movlw	0
  6557   001052  6E06               	movwf	(I2C1_SetDataCompleteCallback@cb+1)^0,c
  6558   001054  0E00               	movlw	0
  6559   001056  6E07               	movwf	I2C1_SetDataCompleteCallback@ptr^0,c
  6560   001058  ECDD  F008         	call	_I2C1_SetDataCompleteCallback	;wreg free
  6561   00105C                     
  6562                           ;mcc_generated_files/drivers/i2c_simple_master.c: 123:     return I2C1_RESTART_READ;
  6563   00105C  0E02               	movlw	2
  6564   00105E  0012               	return		;funcret
  6565   001060                     __end_of_rd2RegCompleteHandler:
  6566                           	callstack 0
  6567                           
  6568 ;; *************** function _rd1RegCompleteHandler *****************
  6569 ;; Defined at:
  6570 ;;		line 81 in file "mcc_generated_files/drivers/i2c_simple_master.c"
  6571 ;; Parameters:    Size  Location     Type
  6572 ;;  p               1    7[COMRAM] PTR void 
  6573 ;;		 -> I2C1_ReadDataBlock@bufferBlock(4), I2C1_Write2ByteRegister@data(2), I2C1_Write1ByteRegister@data(1), I2C1_Read2B
      +yteRegister@returnValue(2), 
  6574 ;;		 -> I2C1_Read1ByteRegister@returnValue(1), i2c_readDataBlock@d(4), i2c_write2ByteRegister@data(2), i2c_read2ByteRegi
      +ster@result(2), 
  6575 ;;		 -> i2c_read1ByteRegister@d2(1), i2c_write1ByteRegister@data(1), NULL(0), 
  6576 ;; Auto vars:     Size  Location     Type
  6577 ;;		None
  6578 ;; Return value:  Size  Location     Type
  6579 ;;                  1    wreg      enum E363
  6580 ;; Registers used:
  6581 ;;		wreg, fsr2l, fsr2h, status,2, status,0, prodl, prodh, cstack
  6582 ;; Tracked objects:
  6583 ;;		On entry : 0/0
  6584 ;;		On exit  : 0/0
  6585 ;;		Unchanged: 0/0
  6586 ;; Data sizes:     COMRAM   BANK0   BANK1   BANK2   BANK3   BANK4   BANK5   BANK6   BANK7
  6587 ;;      Params:         1       0       0       0       0       0       0       0       0
  6588 ;;      Locals:         0       0       0       0       0       0       0       0       0
  6589 ;;      Temps:          0       0       0       0       0       0       0       0       0
  6590 ;;      Totals:         1       0       0       0       0       0       0       0       0
  6591 ;;Total ram usage:        1 bytes
  6592 ;; Hardware stack levels used: 1
  6593 ;; Hardware stack levels required when called: 2
  6594 ;; This function calls:
  6595 ;;		_I2C1_SetDataCompleteCallback
  6596 ;;		i2_I2C1_SetBuffer
  6597 ;; This function is called by:
  6598 ;;		_i2c_read1ByteRegister
  6599 ;;		_I2C1_DO_TX
  6600 ;;		_I2C1_DO_RX
  6601 ;;		_I2C1_DO_TX_EMPTY
  6602 ;;		_I2C1_DO_ADDRESS_NACK
  6603 ;;		_I2C1_DO_RX_EMPTY
  6604 ;; This function uses a non-reentrant model
  6605 ;;
  6606                           
  6607                           	psect	text67
  6608   001060                     __ptext67:
  6609                           	callstack 0
  6610   001060                     _rd1RegCompleteHandler:
  6611                           	callstack 16
  6612   001060                     
  6613                           ;mcc_generated_files/drivers/i2c_simple_master.c: 81: static i2c1_operations_t rd1RegCom
      +                          pleteHandler(void *p);mcc_generated_files/drivers/i2c_simple_master.c: 82: {;mcc_generat
      +                          ed_files/drivers/i2c_simple_master.c: 83:     I2C1_SetBuffer(p,1);
  6614   001060  C008  F001         	movff	rd1RegCompleteHandler@p,i2I2C1_SetBuffer@buffer
  6615   001064  6A02               	clrf	(i2I2C1_SetBuffer@buffer+1)^0,c
  6616   001066  0E00               	movlw	0
  6617   001068  6E04               	movwf	(i2I2C1_SetBuffer@bufferSize+1)^0,c
  6618   00106A  0E01               	movlw	1
  6619   00106C  6E03               	movwf	i2I2C1_SetBuffer@bufferSize^0,c
  6620   00106E  EC8C  F008         	call	i2_I2C1_SetBuffer	;wreg free
  6621   001072                     
  6622                           ;mcc_generated_files/drivers/i2c_simple_master.c: 84:     I2C1_SetDataCompleteCallback((
      +                          (void*)0),((void*)0));
  6623   001072  0E00               	movlw	0
  6624   001074  6E05               	movwf	I2C1_SetDataCompleteCallback@cb^0,c
  6625   001076  0E00               	movlw	0
  6626   001078  6E06               	movwf	(I2C1_SetDataCompleteCallback@cb+1)^0,c
  6627   00107A  0E00               	movlw	0
  6628   00107C  6E07               	movwf	I2C1_SetDataCompleteCallback@ptr^0,c
  6629   00107E  ECDD  F008         	call	_I2C1_SetDataCompleteCallback	;wreg free
  6630   001082                     
  6631                           ;mcc_generated_files/drivers/i2c_simple_master.c: 85:     return I2C1_RESTART_READ;
  6632   001082  0E02               	movlw	2
  6633   001084  0012               	return		;funcret
  6634   001086                     __end_of_rd1RegCompleteHandler:
  6635                           	callstack 0
  6636                           
  6637 ;; *************** function _wr1RegCompleteHandler *****************
  6638 ;; Defined at:
  6639 ;;		line 34 in file "mcc_generated_files/drivers/i2c_simple_master.c"
  6640 ;; Parameters:    Size  Location     Type
  6641 ;;  p               1    7[COMRAM] PTR void 
  6642 ;;		 -> I2C1_ReadDataBlock@bufferBlock(4), I2C1_Write2ByteRegister@data(2), I2C1_Write1ByteRegister@data(1), I2C1_Read2B
      +yteRegister@returnValue(2), 
  6643 ;;		 -> I2C1_Read1ByteRegister@returnValue(1), i2c_readDataBlock@d(4), i2c_write2ByteRegister@data(2), i2c_read2ByteRegi
      +ster@result(2), 
  6644 ;;		 -> i2c_read1ByteRegister@d2(1), i2c_write1ByteRegister@data(1), NULL(0), 
  6645 ;; Auto vars:     Size  Location     Type
  6646 ;;		None
  6647 ;; Return value:  Size  Location     Type
  6648 ;;                  1    wreg      enum E363
  6649 ;; Registers used:
  6650 ;;		wreg, fsr2l, fsr2h, status,2, status,0, prodl, prodh, cstack
  6651 ;; Tracked objects:
  6652 ;;		On entry : 0/0
  6653 ;;		On exit  : 0/0
  6654 ;;		Unchanged: 0/0
  6655 ;; Data sizes:     COMRAM   BANK0   BANK1   BANK2   BANK3   BANK4   BANK5   BANK6   BANK7
  6656 ;;      Params:         1       0       0       0       0       0       0       0       0
  6657 ;;      Locals:         0       0       0       0       0       0       0       0       0
  6658 ;;      Temps:          0       0       0       0       0       0       0       0       0
  6659 ;;      Totals:         1       0       0       0       0       0       0       0       0
  6660 ;;Total ram usage:        1 bytes
  6661 ;; Hardware stack levels used: 1
  6662 ;; Hardware stack levels required when called: 2
  6663 ;; This function calls:
  6664 ;;		_I2C1_SetDataCompleteCallback
  6665 ;;		i2_I2C1_SetBuffer
  6666 ;; This function is called by:
  6667 ;;		_i2c_write1ByteRegister
  6668 ;;		_I2C1_DO_TX
  6669 ;;		_I2C1_DO_RX
  6670 ;;		_I2C1_DO_TX_EMPTY
  6671 ;;		_I2C1_DO_ADDRESS_NACK
  6672 ;;		_I2C1_DO_RX_EMPTY
  6673 ;; This function uses a non-reentrant model
  6674 ;;
  6675                           
  6676                           	psect	text68
  6677   001086                     __ptext68:
  6678                           	callstack 0
  6679   001086                     _wr1RegCompleteHandler:
  6680                           	callstack 16
  6681   001086                     
  6682                           ;mcc_generated_files/drivers/i2c_simple_master.c: 34: static i2c1_operations_t wr1RegCom
      +                          pleteHandler(void *p);mcc_generated_files/drivers/i2c_simple_master.c: 35: {;mcc_generat
      +                          ed_files/drivers/i2c_simple_master.c: 36:     I2C1_SetBuffer(p,1);
  6683   001086  C008  F001         	movff	wr1RegCompleteHandler@p,i2I2C1_SetBuffer@buffer
  6684   00108A  6A02               	clrf	(i2I2C1_SetBuffer@buffer+1)^0,c
  6685   00108C  0E00               	movlw	0
  6686   00108E  6E04               	movwf	(i2I2C1_SetBuffer@bufferSize+1)^0,c
  6687   001090  0E01               	movlw	1
  6688   001092  6E03               	movwf	i2I2C1_SetBuffer@bufferSize^0,c
  6689   001094  EC8C  F008         	call	i2_I2C1_SetBuffer	;wreg free
  6690   001098                     
  6691                           ;mcc_generated_files/drivers/i2c_simple_master.c: 37:     I2C1_SetDataCompleteCallback((
      +                          (void*)0),((void*)0));
  6692   001098  0E00               	movlw	0
  6693   00109A  6E05               	movwf	I2C1_SetDataCompleteCallback@cb^0,c
  6694   00109C  0E00               	movlw	0
  6695   00109E  6E06               	movwf	(I2C1_SetDataCompleteCallback@cb+1)^0,c
  6696   0010A0  0E00               	movlw	0
  6697   0010A2  6E07               	movwf	I2C1_SetDataCompleteCallback@ptr^0,c
  6698   0010A4  ECDD  F008         	call	_I2C1_SetDataCompleteCallback	;wreg free
  6699   0010A8                     
  6700                           ;mcc_generated_files/drivers/i2c_simple_master.c: 38:     return I2C1_CONTINUE;
  6701   0010A8  0E04               	movlw	4
  6702   0010AA  0012               	return		;funcret
  6703   0010AC                     __end_of_wr1RegCompleteHandler:
  6704                           	callstack 0
  6705                           
  6706 ;; *************** function _wr2RegCompleteHandler@i2c1_master_example$F1589 *****************
  6707 ;; Defined at:
  6708 ;;		line 163 in file "mcc_generated_files/examples/i2c1_master_example.c"
  6709 ;; Parameters:    Size  Location     Type
  6710 ;;  ptr             1    7[COMRAM] PTR void 
  6711 ;;		 -> I2C1_ReadDataBlock@bufferBlock(4), I2C1_Write2ByteRegister@data(2), I2C1_Write1ByteRegister@data(1), I2C1_Read2B
      +yteRegister@returnValue(2), 
  6712 ;;		 -> I2C1_Read1ByteRegister@returnValue(1), i2c_readDataBlock@d(4), i2c_write2ByteRegister@data(2), i2c_read2ByteRegi
      +ster@result(2), 
  6713 ;;		 -> i2c_read1ByteRegister@d2(1), i2c_write1ByteRegister@data(1), NULL(0), 
  6714 ;; Auto vars:     Size  Location     Type
  6715 ;;		None
  6716 ;; Return value:  Size  Location     Type
  6717 ;;                  1    wreg      enum E363
  6718 ;; Registers used:
  6719 ;;		wreg, fsr2l, fsr2h, status,2, status,0, prodl, prodh, cstack
  6720 ;; Tracked objects:
  6721 ;;		On entry : 0/0
  6722 ;;		On exit  : 0/0
  6723 ;;		Unchanged: 0/0
  6724 ;; Data sizes:     COMRAM   BANK0   BANK1   BANK2   BANK3   BANK4   BANK5   BANK6   BANK7
  6725 ;;      Params:         1       0       0       0       0       0       0       0       0
  6726 ;;      Locals:         0       0       0       0       0       0       0       0       0
  6727 ;;      Temps:          0       0       0       0       0       0       0       0       0
  6728 ;;      Totals:         1       0       0       0       0       0       0       0       0
  6729 ;;Total ram usage:        1 bytes
  6730 ;; Hardware stack levels used: 1
  6731 ;; Hardware stack levels required when called: 2
  6732 ;; This function calls:
  6733 ;;		_I2C1_SetDataCompleteCallback
  6734 ;;		i2_I2C1_SetBuffer
  6735 ;; This function is called by:
  6736 ;;		_I2C1_Write2ByteRegister
  6737 ;;		_I2C1_DO_TX
  6738 ;;		_I2C1_DO_RX
  6739 ;;		_I2C1_DO_TX_EMPTY
  6740 ;;		_I2C1_DO_ADDRESS_NACK
  6741 ;;		_I2C1_DO_RX_EMPTY
  6742 ;; This function uses a non-reentrant model
  6743 ;;
  6744                           
  6745                           	psect	text69
  6746   0010AC                     __ptext69:
  6747                           	callstack 0
  6748   0010AC                     _wr2RegCompleteHandler@i2c1_master_example$F1589:
  6749                           	callstack 16
  6750   0010AC                     
  6751                           ;mcc_generated_files/examples/i2c1_master_example.c: 163: static i2c1_operations_t wr2Re
      +                          gCompleteHandler(void *ptr);mcc_generated_files/examples/i2c1_master_example.c: 164: {;m
      +                          cc_generated_files/examples/i2c1_master_example.c: 165:     I2C1_SetBuffer(ptr,2);
  6752   0010AC  C008  F001         	movff	wr2RegCompleteHandler@i2c1_master_example$F1589@ptr,i2I2C1_SetBuffer@buffer
  6753   0010B0  6A02               	clrf	(i2I2C1_SetBuffer@buffer+1)^0,c
  6754   0010B2  0E00               	movlw	0
  6755   0010B4  6E04               	movwf	(i2I2C1_SetBuffer@bufferSize+1)^0,c
  6756   0010B6  0E02               	movlw	2
  6757   0010B8  6E03               	movwf	i2I2C1_SetBuffer@bufferSize^0,c
  6758   0010BA  EC8C  F008         	call	i2_I2C1_SetBuffer	;wreg free
  6759   0010BE                     
  6760                           ;mcc_generated_files/examples/i2c1_master_example.c: 166:     I2C1_SetDataCompleteCallba
      +                          ck(((void*)0),((void*)0));
  6761   0010BE  0E00               	movlw	0
  6762   0010C0  6E05               	movwf	I2C1_SetDataCompleteCallback@cb^0,c
  6763   0010C2  0E00               	movlw	0
  6764   0010C4  6E06               	movwf	(I2C1_SetDataCompleteCallback@cb+1)^0,c
  6765   0010C6  0E00               	movlw	0
  6766   0010C8  6E07               	movwf	I2C1_SetDataCompleteCallback@ptr^0,c
  6767   0010CA  ECDD  F008         	call	_I2C1_SetDataCompleteCallback	;wreg free
  6768   0010CE                     
  6769                           ;mcc_generated_files/examples/i2c1_master_example.c: 167:     return I2C1_CONTINUE;
  6770   0010CE  0E04               	movlw	4
  6771   0010D0  0012               	return		;funcret
  6772   0010D2                     __end_of_wr2RegCompleteHandler@i2c1_master_example$F1589:
  6773                           	callstack 0
  6774                           
  6775 ;; *************** function i2_I2C1_SetBuffer *****************
  6776 ;; Defined at:
  6777 ;;		line 264 in file "mcc_generated_files/i2c1_master.c"
  6778 ;; Parameters:    Size  Location     Type
  6779 ;;  buffer          2    0[COMRAM] PTR void 
  6780 ;;		 -> i2c_write1ByteRegister@data$data(2), i2c_read1ByteRegister@d2$data(2), i2c_read2ByteRegister@result$data(2), i2c
      +_write2ByteRegister@data$data(2), 
  6781 ;;		 -> I2C1_Read1ByteRegister@returnValue$data(2), I2C1_Read2ByteRegister@returnValue$data(2), I2C1_Write1ByteRegister@
      +data$data(2), I2C1_Write2ByteRegister@data$data(2), 
  6782 ;;		 -> pcf8574_write_wEnable@writeBuffer(3), RAM(2047), I2C1_ReadDataBlock@reg(1), I2C1_ReadDataBlock@bufferBlock(4), 
  6783 ;;		 -> bufferBlock$data(2), I2C1_Write2ByteRegister@reg(1), I2C1_Write2ByteRegister@data(2), I2C1_Write1ByteRegister@re
      +g(1), 
  6784 ;;		 -> I2C1_Write1ByteRegister@data(1), I2C1_Read2ByteRegister@reg(1), I2C1_Read2ByteRegister@returnValue(2), I2C1_Read
      +1ByteRegister@reg(1), 
  6785 ;;		 -> I2C1_Read1ByteRegister@returnValue(1), i2c_readDataBlock@reg(1), i2c_readDataBlock@d(4), d$data(2), 
  6786 ;;		 -> i2c_write2ByteRegister@reg(1), i2c_write2ByteRegister@data(2), i2c_read2ByteRegister@reg(1), i2c_read2ByteRegist
      +er@result(2), 
  6787 ;;		 -> i2c_read1ByteRegister@reg(1), i2c_read1ByteRegister@d2(1), i2c_write1ByteRegister@reg(1), i2c_write1ByteRegister
      +@data(1), 
  6788 ;;		 -> NULL(0), 
  6789 ;;  bufferSize      2    2[COMRAM] unsigned int 
  6790 ;; Auto vars:     Size  Location     Type
  6791 ;;		None
  6792 ;; Return value:  Size  Location     Type
  6793 ;;                  1    wreg      void 
  6794 ;; Registers used:
  6795 ;;		wreg, status,2, status,0
  6796 ;; Tracked objects:
  6797 ;;		On entry : 0/0
  6798 ;;		On exit  : 0/0
  6799 ;;		Unchanged: 0/0
  6800 ;; Data sizes:     COMRAM   BANK0   BANK1   BANK2   BANK3   BANK4   BANK5   BANK6   BANK7
  6801 ;;      Params:         4       0       0       0       0       0       0       0       0
  6802 ;;      Locals:         0       0       0       0       0       0       0       0       0
  6803 ;;      Temps:          0       0       0       0       0       0       0       0       0
  6804 ;;      Totals:         4       0       0       0       0       0       0       0       0
  6805 ;;Total ram usage:        4 bytes
  6806 ;; Hardware stack levels used: 1
  6807 ;; This function calls:
  6808 ;;		Nothing
  6809 ;; This function is called by:
  6810 ;;		_wr1RegCompleteHandler
  6811 ;;		_rd1RegCompleteHandler
  6812 ;;		_rd2RegCompleteHandler
  6813 ;;		_wr2RegCompleteHandler
  6814 ;;		_rdBlkRegCompleteHandler
  6815 ;;		_rd1RegCompleteHandler@i2c1_master_example$F1566
  6816 ;;		_rd2RegCompleteHandler@i2c1_master_example$F1577
  6817 ;;		_wr1RegCompleteHandler@i2c1_master_example$F1583
  6818 ;;		_wr2RegCompleteHandler@i2c1_master_example$F1589
  6819 ;;		_rdBlkRegCompleteHandler@i2c1_master_example$F1600
  6820 ;; This function uses a non-reentrant model
  6821 ;;
  6822                           
  6823                           	psect	text70
  6824   001118                     __ptext70:
  6825                           	callstack 0
  6826   001118                     i2_I2C1_SetBuffer:
  6827                           	callstack 17
  6828   001118                     
  6829                           ;mcc_generated_files/i2c1_master.c: 264: void I2C1_SetBuffer(void *buffer, size_t buffer
      +                          Size);mcc_generated_files/i2c1_master.c: 265: {;mcc_generated_files/i2c1_master.c: 266: 
      +                              if(I2C1_Status.bufferFree)
  6830   001118  A644               	btfss	(_I2C1_Status+29)^0,3,c
  6831   00111A  EF91  F008         	goto	i2u69_41
  6832   00111E  EF93  F008         	goto	i2u69_40
  6833   001122                     i2u69_41:
  6834   001122  EF9C  F008         	goto	i2l319
  6835   001126                     i2u69_40:
  6836   001126                     
  6837                           ;mcc_generated_files/i2c1_master.c: 267:     {;mcc_generated_files/i2c1_master.c: 268:  
      +                                 I2C1_Status.data_ptr = buffer;
  6838   001126  C001  F03E         	movff	i2I2C1_SetBuffer@buffer,_I2C1_Status+23
  6839   00112A  C002  F03F         	movff	i2I2C1_SetBuffer@buffer+1,_I2C1_Status+24
  6840   00112E                     
  6841                           ;mcc_generated_files/i2c1_master.c: 269:         I2C1_Status.data_length = bufferSize;
  6842   00112E  C003  F040         	movff	i2I2C1_SetBuffer@bufferSize,_I2C1_Status+25
  6843   001132  C004  F041         	movff	i2I2C1_SetBuffer@bufferSize+1,_I2C1_Status+26
  6844   001136                     
  6845                           ;mcc_generated_files/i2c1_master.c: 270:         I2C1_Status.bufferFree = 0;
  6846   001136  9644               	bcf	(_I2C1_Status+29)^0,3,c
  6847   001138                     i2l319:
  6848   001138  0012               	return		;funcret
  6849   00113A                     __end_ofi2_I2C1_SetBuffer:
  6850                           	callstack 0
  6851                           
  6852 ;; *************** function _I2C1_SetDataCompleteCallback *****************
  6853 ;; Defined at:
  6854 ;;		line 274 in file "mcc_generated_files/i2c1_master.c"
  6855 ;; Parameters:    Size  Location     Type
  6856 ;;  cb              2    4[COMRAM] PTR FTN(PTR void ,)enum 
  6857 ;;		 -> rdBlkRegCompleteHandler@i2c1_master_example$F1600(1), wr2RegCompleteHandler@i2c1_master_example$F1589(1), wr1Reg
      +CompleteHandler@i2c1_master_example$F1583(1), rd2RegCompleteHandler@i2c1_master_example$F1577(1), 
  6858 ;;		 -> rd1RegCompleteHandler@i2c1_master_example$F1566(1), NULL(1), rdBlkRegCompleteHandler(1), wr2RegCompleteHandler(1
      +), 
  6859 ;;		 -> rd2RegCompleteHandler(1), rd1RegCompleteHandler(1), wr1RegCompleteHandler(1), 
  6860 ;;  ptr             1    6[COMRAM] PTR void 
  6861 ;;		 -> I2C1_ReadDataBlock@bufferBlock(4), I2C1_Write2ByteRegister@data(2), I2C1_Write1ByteRegister@data(1), I2C1_Read2B
      +yteRegister@returnValue(2), 
  6862 ;;		 -> I2C1_Read1ByteRegister@returnValue(1), i2c_readDataBlock@d(4), i2c_write2ByteRegister@data(2), i2c_read2ByteRegi
      +ster@result(2), 
  6863 ;;		 -> i2c_read1ByteRegister@d2(1), i2c_write1ByteRegister@data(1), NULL(0), 
  6864 ;; Auto vars:     Size  Location     Type
  6865 ;;		None
  6866 ;; Return value:  Size  Location     Type
  6867 ;;                  1    wreg      void 
  6868 ;; Registers used:
  6869 ;;		wreg, fsr2l, fsr2h, status,2, status,0, prodl, prodh, cstack
  6870 ;; Tracked objects:
  6871 ;;		On entry : 0/0
  6872 ;;		On exit  : 0/0
  6873 ;;		Unchanged: 0/0
  6874 ;; Data sizes:     COMRAM   BANK0   BANK1   BANK2   BANK3   BANK4   BANK5   BANK6   BANK7
  6875 ;;      Params:         3       0       0       0       0       0       0       0       0
  6876 ;;      Locals:         0       0       0       0       0       0       0       0       0
  6877 ;;      Temps:          0       0       0       0       0       0       0       0       0
  6878 ;;      Totals:         3       0       0       0       0       0       0       0       0
  6879 ;;Total ram usage:        3 bytes
  6880 ;; Hardware stack levels used: 1
  6881 ;; Hardware stack levels required when called: 1
  6882 ;; This function calls:
  6883 ;;		i2_I2C1_SetCallback
  6884 ;; This function is called by:
  6885 ;;		_wr1RegCompleteHandler
  6886 ;;		_rd1RegCompleteHandler
  6887 ;;		_rd2RegCompleteHandler
  6888 ;;		_wr2RegCompleteHandler
  6889 ;;		_rdBlkRegCompleteHandler
  6890 ;;		_rd1RegCompleteHandler@i2c1_master_example$F1566
  6891 ;;		_rd2RegCompleteHandler@i2c1_master_example$F1577
  6892 ;;		_wr1RegCompleteHandler@i2c1_master_example$F1583
  6893 ;;		_wr2RegCompleteHandler@i2c1_master_example$F1589
  6894 ;;		_rdBlkRegCompleteHandler@i2c1_master_example$F1600
  6895 ;;		_i2c_write1ByteRegister
  6896 ;;		_i2c_read1ByteRegister
  6897 ;;		_i2c_read2ByteRegister
  6898 ;;		_i2c_write2ByteRegister
  6899 ;;		_i2c_readDataBlock
  6900 ;;		_I2C1_Read1ByteRegister
  6901 ;;		_I2C1_Read2ByteRegister
  6902 ;;		_I2C1_Write1ByteRegister
  6903 ;;		_I2C1_Write2ByteRegister
  6904 ;;		_I2C1_ReadDataBlock
  6905 ;; This function uses a non-reentrant model
  6906 ;;
  6907                           
  6908                           	psect	text71
  6909   0011BA                     __ptext71:
  6910                           	callstack 0
  6911   0011BA                     _I2C1_SetDataCompleteCallback:
  6912                           	callstack 16
  6913   0011BA                     
  6914                           ;mcc_generated_files/i2c1_master.c: 274: void I2C1_SetDataCompleteCallback(i2c1_callback
      +                          _t cb, void *ptr);mcc_generated_files/i2c1_master.c: 275: {;mcc_generated_files/i2c1_mas
      +                          ter.c: 276:     I2C1_SetCallback(I2C1_DATA_COMPLETE, cb, ptr);
  6915   0011BA  C005  F001         	movff	I2C1_SetDataCompleteCallback@cb,i2I2C1_SetCallback@cb
  6916   0011BE  C006  F002         	movff	I2C1_SetDataCompleteCallback@cb+1,i2I2C1_SetCallback@cb+1
  6917   0011C2  C007  F003         	movff	I2C1_SetDataCompleteCallback@ptr,i2I2C1_SetCallback@ptr
  6918   0011C6  0E00               	movlw	0
  6919   0011C8  ECDF  F006         	call	i2_I2C1_SetCallback
  6920   0011CC  0012               	return		;funcret
  6921   0011CE                     __end_of_I2C1_SetDataCompleteCallback:
  6922                           	callstack 0
  6923                           
  6924 ;; *************** function i2_I2C1_SetCallback *****************
  6925 ;; Defined at:
  6926 ;;		line 304 in file "mcc_generated_files/i2c1_master.c"
  6927 ;; Parameters:    Size  Location     Type
  6928 ;;  idx             1    wreg     enum E5032
  6929 ;;  cb              2    0[COMRAM] PTR FTN(PTR void ,)enum 
  6930 ;;		 -> rdBlkRegCompleteHandler@i2c1_master_example$F1600(1), wr2RegCompleteHandler@i2c1_master_example$F1589(1), wr1Reg
      +CompleteHandler@i2c1_master_example$F1583(1), rd2RegCompleteHandler@i2c1_master_example$F1577(1), 
  6931 ;;		 -> rd1RegCompleteHandler@i2c1_master_example$F1566(1), NULL(1), rdBlkRegCompleteHandler(1), wr2RegCompleteHandler(1
      +), 
  6932 ;;		 -> rd2RegCompleteHandler(1), rd1RegCompleteHandler(1), wr1RegCompleteHandler(1), 
  6933 ;;  ptr             1    2[COMRAM] PTR void 
  6934 ;;		 -> I2C1_ReadDataBlock@bufferBlock(4), I2C1_Write2ByteRegister@data(2), I2C1_Write1ByteRegister@data(1), I2C1_Read2B
      +yteRegister@returnValue(2), 
  6935 ;;		 -> I2C1_Read1ByteRegister@returnValue(1), i2c_readDataBlock@d(4), i2c_write2ByteRegister@data(2), i2c_read2ByteRegi
      +ster@result(2), 
  6936 ;;		 -> i2c_read1ByteRegister@d2(1), i2c_write1ByteRegister@data(1), NULL(0), 
  6937 ;; Auto vars:     Size  Location     Type
  6938 ;;  idx             1    3[COMRAM] enum E5032
  6939 ;; Return value:  Size  Location     Type
  6940 ;;                  1    wreg      void 
  6941 ;; Registers used:
  6942 ;;		wreg, fsr2l, fsr2h, status,2, status,0, prodl, prodh
  6943 ;; Tracked objects:
  6944 ;;		On entry : 0/0
  6945 ;;		On exit  : 0/0
  6946 ;;		Unchanged: 0/0
  6947 ;; Data sizes:     COMRAM   BANK0   BANK1   BANK2   BANK3   BANK4   BANK5   BANK6   BANK7
  6948 ;;      Params:         3       0       0       0       0       0       0       0       0
  6949 ;;      Locals:         1       0       0       0       0       0       0       0       0
  6950 ;;      Temps:          0       0       0       0       0       0       0       0       0
  6951 ;;      Totals:         4       0       0       0       0       0       0       0       0
  6952 ;;Total ram usage:        4 bytes
  6953 ;; Hardware stack levels used: 1
  6954 ;; This function calls:
  6955 ;;		Nothing
  6956 ;; This function is called by:
  6957 ;;		_I2C1_SetDataCompleteCallback
  6958 ;; This function uses a non-reentrant model
  6959 ;;
  6960                           
  6961                           	psect	text72
  6962   000DBE                     __ptext72:
  6963                           	callstack 0
  6964   000DBE                     i2_I2C1_SetCallback:
  6965                           	callstack 16
  6966                           
  6967                           ;incstack = 0
  6968                           ;i2I2C1_SetCallback@idx stored from wreg
  6969   000DBE  6E04               	movwf	i2I2C1_SetCallback@idx^0,c
  6970   000DC0                     
  6971                           ;mcc_generated_files/i2c1_master.c: 304: static void I2C1_SetCallback(i2c1_callbackIndex
      +                          _t idx, i2c1_callback_t cb, void *ptr);mcc_generated_files/i2c1_master.c: 305: {;mcc_gen
      +                          erated_files/i2c1_master.c: 306:     if(cb)
  6972   000DC0  5001               	movf	i2I2C1_SetCallback@cb^0,w,c
  6973   000DC2  1002               	iorwf	(i2I2C1_SetCallback@cb+1)^0,w,c
  6974   000DC4  B4D8               	btfsc	status,2,c
  6975   000DC6  EFE7  F006         	goto	i2u66_41
  6976   000DCA  EFE9  F006         	goto	i2u66_40
  6977   000DCE                     i2u66_41:
  6978   000DCE  EFFB  F006         	goto	i2l2560
  6979   000DD2                     i2u66_40:
  6980   000DD2                     
  6981                           ;mcc_generated_files/i2c1_master.c: 307:     {;mcc_generated_files/i2c1_master.c: 308:  
      +                                 I2C1_Status.callbackTable[idx] = cb;
  6982   000DD2  5004               	movf	i2I2C1_SetCallback@idx^0,w,c
  6983   000DD4  0D02               	mullw	2
  6984   000DD6  50F3               	movf	243,w,c
  6985   000DD8  0F27               	addlw	low _I2C1_Status
  6986   000DDA  6ED9               	movwf	fsr2l,c
  6987   000DDC  6ADA               	clrf	fsr2h,c
  6988   000DDE  C001  FFDE         	movff	i2I2C1_SetCallback@cb,postinc2
  6989   000DE2  C002  FFDD         	movff	i2I2C1_SetCallback@cb+1,postdec2
  6990   000DE6                     
  6991                           ;mcc_generated_files/i2c1_master.c: 309:         I2C1_Status.callbackPayload[idx] = ptr;
  6992   000DE6  5004               	movf	i2I2C1_SetCallback@idx^0,w,c
  6993   000DE8  0F33               	addlw	low (_I2C1_Status+12)
  6994   000DEA  6ED9               	movwf	fsr2l,c
  6995   000DEC  6ADA               	clrf	fsr2h,c
  6996   000DEE  C003  FFDF         	movff	i2I2C1_SetCallback@ptr,indf2
  6997                           
  6998                           ;mcc_generated_files/i2c1_master.c: 310:     }
  6999   000DF2  EF0A  F007         	goto	i2l342
  7000   000DF6                     i2l2560:
  7001                           
  7002                           ;mcc_generated_files/i2c1_master.c: 312:     {;mcc_generated_files/i2c1_master.c: 313:  
      +                                 I2C1_Status.callbackTable[idx] = I2C1_CallbackReturnStop;
  7003   000DF6  5004               	movf	i2I2C1_SetCallback@idx^0,w,c
  7004   000DF8  0D02               	mullw	2
  7005   000DFA  50F3               	movf	243,w,c
  7006   000DFC  0F27               	addlw	low _I2C1_Status
  7007   000DFE  6ED9               	movwf	fsr2l,c
  7008   000E00  6ADA               	clrf	fsr2h,c
  7009   000E02  0EE0               	movlw	low _I2C1_CallbackReturnStop
  7010   000E04  6EDE               	movwf	postinc2,c
  7011   000E06  0E12               	movlw	high _I2C1_CallbackReturnStop
  7012   000E08  6EDD               	movwf	postdec2,c
  7013   000E0A                     
  7014                           ;mcc_generated_files/i2c1_master.c: 314:         I2C1_Status.callbackPayload[idx] = ((vo
      +                          id*)0);
  7015   000E0A  5004               	movf	i2I2C1_SetCallback@idx^0,w,c
  7016   000E0C  0F33               	addlw	low (_I2C1_Status+12)
  7017   000E0E  6ED9               	movwf	fsr2l,c
  7018   000E10  6ADA               	clrf	fsr2h,c
  7019   000E12  6ADF               	clrf	indf2,c
  7020   000E14                     i2l342:
  7021   000E14  0012               	return		;funcret
  7022   000E16                     __end_ofi2_I2C1_SetCallback:
  7023                           	callstack 0
  7024                           
  7025 ;; *************** function _I2C1_MasterStop *****************
  7026 ;; Defined at:
  7027 ;;		line 594 in file "mcc_generated_files/i2c1_master.c"
  7028 ;; Parameters:    Size  Location     Type
  7029 ;;		None
  7030 ;; Auto vars:     Size  Location     Type
  7031 ;;		None
  7032 ;; Return value:  Size  Location     Type
  7033 ;;                  1    wreg      void 
  7034 ;; Registers used:
  7035 ;;		None
  7036 ;; Tracked objects:
  7037 ;;		On entry : 0/0
  7038 ;;		On exit  : 0/0
  7039 ;;		Unchanged: 0/0
  7040 ;; Data sizes:     COMRAM   BANK0   BANK1   BANK2   BANK3   BANK4   BANK5   BANK6   BANK7
  7041 ;;      Params:         0       0       0       0       0       0       0       0       0
  7042 ;;      Locals:         0       0       0       0       0       0       0       0       0
  7043 ;;      Temps:          0       0       0       0       0       0       0       0       0
  7044 ;;      Totals:         0       0       0       0       0       0       0       0       0
  7045 ;;Total ram usage:        0 bytes
  7046 ;; Hardware stack levels used: 1
  7047 ;; This function calls:
  7048 ;;		Nothing
  7049 ;; This function is called by:
  7050 ;;		_I2C1_DO_SEND_STOP
  7051 ;; This function uses a non-reentrant model
  7052 ;;
  7053                           
  7054                           	psect	text73
  7055   0012E4                     __ptext73:
  7056                           	callstack 0
  7057   0012E4                     _I2C1_MasterStop:
  7058                           	callstack 17
  7059   0012E4                     
  7060                           ;mcc_generated_files/i2c1_master.c: 596:     SSP1CON2bits.PEN = 1;
  7061   0012E4  84C5               	bsf	197,2,c	;volatile
  7062   0012E6  0012               	return		;funcret
  7063   0012E8                     __end_of_I2C1_MasterStop:
  7064                           	callstack 0
  7065                           
  7066 ;; *************** function _I2C1_MasterEnableRestart *****************
  7067 ;; Defined at:
  7068 ;;		line 574 in file "mcc_generated_files/i2c1_master.c"
  7069 ;; Parameters:    Size  Location     Type
  7070 ;;		None
  7071 ;; Auto vars:     Size  Location     Type
  7072 ;;		None
  7073 ;; Return value:  Size  Location     Type
  7074 ;;                  1    wreg      void 
  7075 ;; Registers used:
  7076 ;;		None
  7077 ;; Tracked objects:
  7078 ;;		On entry : 0/0
  7079 ;;		On exit  : 0/0
  7080 ;;		Unchanged: 0/0
  7081 ;; Data sizes:     COMRAM   BANK0   BANK1   BANK2   BANK3   BANK4   BANK5   BANK6   BANK7
  7082 ;;      Params:         0       0       0       0       0       0       0       0       0
  7083 ;;      Locals:         0       0       0       0       0       0       0       0       0
  7084 ;;      Temps:          0       0       0       0       0       0       0       0       0
  7085 ;;      Totals:         0       0       0       0       0       0       0       0       0
  7086 ;;Total ram usage:        0 bytes
  7087 ;; Hardware stack levels used: 1
  7088 ;; This function calls:
  7089 ;;		Nothing
  7090 ;; This function is called by:
  7091 ;;		_I2C1_DO_SEND_RESTART_READ
  7092 ;;		_I2C1_DO_SEND_RESTART_WRITE
  7093 ;;		_I2C1_DO_SEND_RESTART
  7094 ;;		_I2C1_DO_RX_EMPTY
  7095 ;; This function uses a non-reentrant model
  7096 ;;
  7097                           
  7098                           	psect	text74
  7099   0012E8                     __ptext74:
  7100                           	callstack 0
  7101   0012E8                     _I2C1_MasterEnableRestart:
  7102                           	callstack 17
  7103   0012E8                     
  7104                           ;mcc_generated_files/i2c1_master.c: 576:     SSP1CON2bits.RSEN = 1;
  7105   0012E8  82C5               	bsf	197,1,c	;volatile
  7106   0012EA  0012               	return		;funcret
  7107   0012EC                     __end_of_I2C1_MasterEnableRestart:
  7108                           	callstack 0
  7109                           
  7110                           	psect	rparam
  7111   000001                     ___rparam_used  equ	1
  7112   000000                     ___param_bank   equ	0
  7113   000000                     __Lparam        equ	__Lrparam
  7114   000000                     __Hparam        equ	__Hrparam
  7115                           
  7116                           	psect	temp
  7117   000049                     btemp:
  7118                           	callstack 0
  7119   000049                     	ds	1
  7120   000049                     int$flags       set	btemp
  7121   00004A                     wtemp8          set	btemp+1
  7122   00004A                     ttemp5          set	btemp+1
  7123   00004D                     ttemp6          set	btemp+4
  7124   000051                     ttemp7          set	btemp+8
  7125                           
  7126                           	psect	config
  7127                           
  7128                           ;Config register CONFIG1L @ 0x300000
  7129                           ;	PLL Selection
  7130                           ;	PLLSEL = PLL3X, 3x clock multiplier
  7131                           ;	PLL Enable Configuration bit
  7132                           ;	CFGPLLEN = ON, PLL Enabled
  7133                           ;	CPU System Clock Postscaler
  7134                           ;	CPUDIV = NOCLKDIV, CPU uses system clock (no divide)
  7135                           ;	Low Speed USB mode with 48 MHz system clock
  7136                           ;	LS48MHZ = SYS48X8, System clock at 48 MHz, USB clock divider is set to 8
  7137   300000                     	org	3145728
  7138   300000  23                 	db	35
  7139                           
  7140                           ;Config register CONFIG1H @ 0x300001
  7141                           ;	Oscillator Selection
  7142                           ;	FOSC = INTOSCIO, Internal oscillator
  7143                           ;	Primary Oscillator Shutdown
  7144                           ;	PCLKEN = ON, Primary oscillator enabled
  7145                           ;	Fail-Safe Clock Monitor
  7146                           ;	FCMEN = OFF, Fail-Safe Clock Monitor disabled
  7147                           ;	Internal/External Oscillator Switchover
  7148                           ;	IESO = OFF, Oscillator Switchover mode disabled
  7149   300001                     	org	3145729
  7150   300001  28                 	db	40
  7151                           
  7152                           ;Config register CONFIG2L @ 0x300002
  7153                           ;	Power-up Timer Enable
  7154                           ;	nPWRTEN = OFF, Power up timer disabled
  7155                           ;	Brown-out Reset Enable
  7156                           ;	BOREN = SBORDIS, BOR enabled in hardware (SBOREN is ignored)
  7157                           ;	Brown-out Reset Voltage
  7158                           ;	BORV = 190, BOR set to 1.9V nominal
  7159                           ;	Low-Power Brown-out Reset
  7160                           ;	nLPBOR = OFF, Low-Power Brown-out Reset disabled
  7161   300002                     	org	3145730
  7162   300002  5F                 	db	95
  7163                           
  7164                           ;Config register CONFIG2H @ 0x300003
  7165                           ;	Watchdog Timer Enable bits
  7166                           ;	WDTEN = OFF, WDT disabled in hardware (SWDTEN ignored)
  7167                           ;	Watchdog Timer Postscaler
  7168                           ;	WDTPS = 32768, 1:32768
  7169   300003                     	org	3145731
  7170   300003  3C                 	db	60
  7171                           
  7172                           ; Padding undefined space
  7173   300004                     	org	3145732
  7174   300004  FF                 	db	255
  7175                           
  7176                           ;Config register CONFIG3H @ 0x300005
  7177                           ;	CCP2 MUX bit
  7178                           ;	CCP2MX = RC1, CCP2 input/output is multiplexed with RC1
  7179                           ;	PORTB A/D Enable bit
  7180                           ;	PBADEN = ON, PORTB<5:0> pins are configured as analog input channels on Reset
  7181                           ;	Timer3 Clock Input MUX bit
  7182                           ;	T3CMX = RC0, T3CKI function is on RC0
  7183                           ;	SDO Output MUX bit
  7184                           ;	SDOMX = RB3, SDO function is on RB3
  7185                           ;	Master Clear Reset Pin Enable
  7186                           ;	MCLRE = ON, MCLR pin enabled; RE3 input disabled
  7187   300005                     	org	3145733
  7188   300005  D3                 	db	211
  7189                           
  7190                           ;Config register CONFIG4L @ 0x300006
  7191                           ;	Stack Full/Underflow Reset
  7192                           ;	STVREN = ON, Stack full/underflow will cause Reset
  7193                           ;	Single-Supply ICSP Enable bit
  7194                           ;	LVP = OFF, Single-Supply ICSP disabled
  7195                           ;	Dedicated In-Circuit Debug/Programming Port Enable
  7196                           ;	ICPRT = OFF, ICPORT disabled
  7197                           ;	Extended Instruction Set Enable bit
  7198                           ;	XINST = OFF, Instruction set extension and Indexed Addressing mode disabled
  7199                           ;	Background Debugger Enable bit
  7200                           ;	DEBUG = OFF, Background debugger disabled, RB6 and RB7 configured as general purpose I
      +                          /O pins
  7201   300006                     	org	3145734
  7202   300006  81                 	db	129
  7203                           
  7204                           ; Padding undefined space
  7205   300007                     	org	3145735
  7206   300007  FF                 	db	255
  7207                           
  7208                           ;Config register CONFIG5L @ 0x300008
  7209                           ;	Block 0 Code Protect
  7210                           ;	CP0 = OFF, Block 0 is not code-protected
  7211                           ;	Block 1 Code Protect
  7212                           ;	CP1 = OFF, Block 1 is not code-protected
  7213                           ;	Block 2 Code Protect
  7214                           ;	CP2 = OFF, Block 2 is not code-protected
  7215                           ;	Block 3 Code Protect
  7216                           ;	CP3 = OFF, Block 3 is not code-protected
  7217   300008                     	org	3145736
  7218   300008  0F                 	db	15
  7219                           
  7220                           ;Config register CONFIG5H @ 0x300009
  7221                           ;	Boot Block Code Protect
  7222                           ;	CPB = OFF, Boot block is not code-protected
  7223                           ;	Data EEPROM Code Protect
  7224                           ;	CPD = OFF, Data EEPROM is not code-protected
  7225   300009                     	org	3145737
  7226   300009  C0                 	db	192
  7227                           
  7228                           ;Config register CONFIG6L @ 0x30000A
  7229                           ;	Block 0 Write Protect
  7230                           ;	WRT0 = OFF, Block 0 (0800-1FFFh) is not write-protected
  7231                           ;	Block 1 Write Protect
  7232                           ;	WRT1 = OFF, Block 1 (2000-3FFFh) is not write-protected
  7233                           ;	Block 2 Write Protect
  7234                           ;	WRT2 = OFF, Block 2 (04000-5FFFh) is not write-protected
  7235                           ;	Block 3 Write Protect
  7236                           ;	WRT3 = OFF, Block 3 (06000-7FFFh) is not write-protected
  7237   30000A                     	org	3145738
  7238   30000A  0F                 	db	15
  7239                           
  7240                           ;Config register CONFIG6H @ 0x30000B
  7241                           ;	Configuration Registers Write Protect
  7242                           ;	WRTC = OFF, Configuration registers (300000-3000FFh) are not write-protected
  7243                           ;	Boot Block Write Protect
  7244                           ;	WRTB = OFF, Boot block (0000-7FFh) is not write-protected
  7245                           ;	Data EEPROM Write Protect
  7246                           ;	WRTD = OFF, Data EEPROM is not write-protected
  7247   30000B                     	org	3145739
  7248   30000B  E0                 	db	224
  7249                           
  7250                           ;Config register CONFIG7L @ 0x30000C
  7251                           ;	Block 0 Table Read Protect
  7252                           ;	EBTR0 = OFF, Block 0 is not protected from table reads executed in other blocks
  7253                           ;	Block 1 Table Read Protect
  7254                           ;	EBTR1 = OFF, Block 1 is not protected from table reads executed in other blocks
  7255                           ;	Block 2 Table Read Protect
  7256                           ;	EBTR2 = OFF, Block 2 is not protected from table reads executed in other blocks
  7257                           ;	Block 3 Table Read Protect
  7258                           ;	EBTR3 = OFF, Block 3 is not protected from table reads executed in other blocks
  7259   30000C                     	org	3145740
  7260   30000C  0F                 	db	15
  7261                           
  7262                           ;Config register CONFIG7H @ 0x30000D
  7263                           ;	Boot Block Table Read Protect
  7264                           ;	EBTRB = OFF, Boot block is not protected from table reads executed in other blocks
  7265   30000D                     	org	3145741
  7266   30000D  40                 	db	64
  7267                           tosu	equ	0xFFF
  7268                           tosh	equ	0xFFE
  7269                           tosl	equ	0xFFD
  7270                           stkptr	equ	0xFFC
  7271                           pclatu	equ	0xFFB
  7272                           pclath	equ	0xFFA
  7273                           pcl	equ	0xFF9
  7274                           tblptru	equ	0xFF8
  7275                           tblptrh	equ	0xFF7
  7276                           tblptrl	equ	0xFF6
  7277                           tablat	equ	0xFF5
  7278                           prodh	equ	0xFF4
  7279                           prodl	equ	0xFF3
  7280                           indf0	equ	0xFEF
  7281                           postinc0	equ	0xFEE
  7282                           postdec0	equ	0xFED
  7283                           preinc0	equ	0xFEC
  7284                           plusw0	equ	0xFEB
  7285                           fsr0h	equ	0xFEA
  7286                           fsr0l	equ	0xFE9
  7287                           wreg	equ	0xFE8
  7288                           indf1	equ	0xFE7
  7289                           postinc1	equ	0xFE6
  7290                           postdec1	equ	0xFE5
  7291                           preinc1	equ	0xFE4
  7292                           plusw1	equ	0xFE3
  7293                           fsr1h	equ	0xFE2
  7294                           fsr1l	equ	0xFE1
  7295                           bsr	equ	0xFE0
  7296                           indf2	equ	0xFDF
  7297                           postinc2	equ	0xFDE
  7298                           postdec2	equ	0xFDD
  7299                           preinc2	equ	0xFDC
  7300                           plusw2	equ	0xFDB
  7301                           fsr2h	equ	0xFDA
  7302                           fsr2l	equ	0xFD9
  7303                           status	equ	0xFD8

Data Sizes:
    Strings     19
    Constant    32
    Data        0
    BSS         34
    Persistent  0
    Stack       0

Auto Spaces:
    Space          Size  Autos    Used
    COMRAM           94     38      72
    BANK0           160     10      10
    BANK1           256      0       0
    BANK2           256      0       0
    BANK3           256      0       0
    BANK4           256      0       0
    BANK5           256      0       0
    BANK6           256      0       0
    BANK7           256      0       0

Pointer List with Targets:

    bufferBlock$data	PTR unsigned char  size(2) Largest target is 0

    cb$0	PTR void  size(1) Largest target is 4
		 -> I2C1_Read1ByteRegister@returnValue(COMRAM[1]), I2C1_Read2ByteRegister@returnValue(COMRAM[2]), I2C1_ReadDataBlock@bufferBlock(COMRAM[4]), I2C1_Write1ByteRegister@data(COMRAM[1]), 
		 -> I2C1_Write2ByteRegister@data(COMRAM[2]), i2c_read1ByteRegister@d2(COMRAM[1]), i2c_read2ByteRegister@result(COMRAM[2]), i2c_readDataBlock@d(COMRAM[4]), 
		 -> i2c_write1ByteRegister@data(COMRAM[1]), i2c_write2ByteRegister@data(COMRAM[2]), NULL(NULL[0]), 

    cb$0	PTR void  size(1) Largest target is 4
		 -> I2C1_Read1ByteRegister@returnValue(COMRAM[1]), I2C1_Read2ByteRegister@returnValue(COMRAM[2]), I2C1_ReadDataBlock@bufferBlock(COMRAM[4]), I2C1_Write1ByteRegister@data(COMRAM[1]), 
		 -> I2C1_Write2ByteRegister@data(COMRAM[2]), i2c_read1ByteRegister@d2(COMRAM[1]), i2c_read2ByteRegister@result(COMRAM[2]), i2c_readDataBlock@d(COMRAM[4]), 
		 -> i2c_write1ByteRegister@data(COMRAM[1]), i2c_write2ByteRegister@data(COMRAM[2]), NULL(NULL[0]), 

    d$data	PTR unsigned char  size(2) Largest target is 0

    I2C1_CallbackReturnReset@funPtr	PTR void  size(1) Largest target is 4
		 -> I2C1_Read1ByteRegister@returnValue(COMRAM[1]), I2C1_Read2ByteRegister@returnValue(COMRAM[2]), I2C1_ReadDataBlock@bufferBlock(COMRAM[4]), I2C1_Write1ByteRegister@data(COMRAM[1]), 
		 -> I2C1_Write2ByteRegister@data(COMRAM[2]), i2c_read1ByteRegister@d2(COMRAM[1]), i2c_read2ByteRegister@result(COMRAM[2]), i2c_readDataBlock@d(COMRAM[4]), 
		 -> i2c_write1ByteRegister@data(COMRAM[1]), i2c_write2ByteRegister@data(COMRAM[2]), NULL(NULL[0]), 

    I2C1_CallbackReturnStop@funPtr	PTR void  size(1) Largest target is 4
		 -> I2C1_Read1ByteRegister@returnValue(COMRAM[1]), I2C1_Read2ByteRegister@returnValue(COMRAM[2]), I2C1_ReadDataBlock@bufferBlock(COMRAM[4]), I2C1_Write1ByteRegister@data(COMRAM[1]), 
		 -> I2C1_Write2ByteRegister@data(COMRAM[2]), i2c_read1ByteRegister@d2(COMRAM[1]), i2c_read2ByteRegister@result(COMRAM[2]), i2c_readDataBlock@d(COMRAM[4]), 
		 -> i2c_write1ByteRegister@data(COMRAM[1]), i2c_write2ByteRegister@data(COMRAM[2]), NULL(NULL[0]), 

    i2c1_fsmStateTable	const PTR FTN()enum E5014[16] size(2) Largest target is 1
		 -> I2C1_DO_ADDRESS_NACK(), I2C1_DO_IDLE(), I2C1_DO_RCEN(), I2C1_DO_RESET(), 
		 -> I2C1_DO_RX(), I2C1_DO_RX_ACK(), I2C1_DO_RX_NACK_RESTART(), I2C1_DO_RX_NACK_STOP(), 
		 -> I2C1_DO_SEND_ADR_READ(), I2C1_DO_SEND_ADR_WRITE(), I2C1_DO_SEND_RESTART(), I2C1_DO_SEND_RESTART_READ(), 
		 -> I2C1_DO_SEND_RESTART_WRITE(), I2C1_DO_SEND_STOP(), I2C1_DO_TX(), I2C1_DO_TX_EMPTY(), 

    I2C1_Read1ByteRegister@returnValue$data	PTR unsigned char  size(2) Largest target is 0

    I2C1_Read2ByteRegister@returnValue$data	PTR unsigned char  size(2) Largest target is 0

    I2C1_SetAddressNackCallback@cb	PTR FTN(PTR void ,)enum E363 size(2) Largest target is 1
		 -> NULL(), 

    I2C1_SetAddressNackCallback@ptr	PTR void  size(2) Largest target is 0
		 -> NULL(NULL[0]), 

    I2C1_SetBuffer@buffer	PTR void  size(2) Largest target is 2047
		 -> I2C1_Read1ByteRegister@reg(COMRAM[1]), I2C1_Read1ByteRegister@returnValue(COMRAM[1]), I2C1_Read2ByteRegister@reg(COMRAM[1]), I2C1_Read2ByteRegister@returnValue(COMRAM[2]), 
		 -> I2C1_ReadDataBlock@bufferBlock(COMRAM[4]), I2C1_ReadDataBlock@reg(COMRAM[1]), I2C1_Write1ByteRegister@data(COMRAM[1]), I2C1_Write1ByteRegister@reg(COMRAM[1]), 
		 -> I2C1_Write2ByteRegister@data(COMRAM[2]), I2C1_Write2ByteRegister@reg(COMRAM[1]), i2c_read1ByteRegister@d2(COMRAM[1]), i2c_read1ByteRegister@reg(COMRAM[1]), 
		 -> i2c_read2ByteRegister@reg(COMRAM[1]), i2c_read2ByteRegister@result(COMRAM[2]), i2c_readDataBlock@d(COMRAM[4]), i2c_readDataBlock@reg(COMRAM[1]), 
		 -> i2c_write1ByteRegister@data(COMRAM[1]), i2c_write1ByteRegister@reg(COMRAM[1]), i2c_write2ByteRegister@data(COMRAM[2]), i2c_write2ByteRegister@reg(COMRAM[1]), 
		 -> pcf8574_write_wEnable@writeBuffer(COMRAM[3]), RAM(DATA[2047]), NULL(NULL[0]), 

    I2C1_SetCallback@cb	PTR FTN(PTR void ,)enum E363 size(2) Largest target is 1
		 -> rd1RegCompleteHandler(), rd1RegCompleteHandler@i2c1_master_example$F1566(), rd2RegCompleteHandler(), rd2RegCompleteHandler@i2c1_master_example$F1577(), 
		 -> rdBlkRegCompleteHandler(), rdBlkRegCompleteHandler@i2c1_master_example$F1600(), wr1RegCompleteHandler(), wr1RegCompleteHandler@i2c1_master_example$F1583(), 
		 -> wr2RegCompleteHandler(), wr2RegCompleteHandler@i2c1_master_example$F1589(), NULL(), 

    I2C1_SetCallback@ptr	PTR void  size(1) Largest target is 4
		 -> I2C1_Read1ByteRegister@returnValue(COMRAM[1]), I2C1_Read2ByteRegister@returnValue(COMRAM[2]), I2C1_ReadDataBlock@bufferBlock(COMRAM[4]), I2C1_Write1ByteRegister@data(COMRAM[1]), 
		 -> I2C1_Write2ByteRegister@data(COMRAM[2]), i2c_read1ByteRegister@d2(COMRAM[1]), i2c_read2ByteRegister@result(COMRAM[2]), i2c_readDataBlock@d(COMRAM[4]), 
		 -> i2c_write1ByteRegister@data(COMRAM[1]), i2c_write2ByteRegister@data(COMRAM[2]), NULL(NULL[0]), 

    I2C1_SetDataCompleteCallback@cb	PTR FTN(PTR void ,)enum E363 size(2) Largest target is 1
		 -> rd1RegCompleteHandler(), rd1RegCompleteHandler@i2c1_master_example$F1566(), rd2RegCompleteHandler(), rd2RegCompleteHandler@i2c1_master_example$F1577(), 
		 -> rdBlkRegCompleteHandler(), rdBlkRegCompleteHandler@i2c1_master_example$F1600(), wr1RegCompleteHandler(), wr1RegCompleteHandler@i2c1_master_example$F1583(), 
		 -> wr2RegCompleteHandler(), wr2RegCompleteHandler@i2c1_master_example$F1589(), NULL(), 

    I2C1_SetDataCompleteCallback@ptr	PTR void  size(1) Largest target is 4
		 -> I2C1_Read1ByteRegister@returnValue(COMRAM[1]), I2C1_Read2ByteRegister@returnValue(COMRAM[2]), I2C1_ReadDataBlock@bufferBlock(COMRAM[4]), I2C1_Write1ByteRegister@data(COMRAM[1]), 
		 -> I2C1_Write2ByteRegister@data(COMRAM[2]), i2c_read1ByteRegister@d2(COMRAM[1]), i2c_read2ByteRegister@result(COMRAM[2]), i2c_readDataBlock@d(COMRAM[4]), 
		 -> i2c_write1ByteRegister@data(COMRAM[1]), i2c_write2ByteRegister@data(COMRAM[2]), NULL(NULL[0]), 

    I2C1_SetInterruptHandler@InterruptHandler	PTR FTN()void  size(2) Largest target is 1
		 -> I2C1_MasterIsr(), 

    I2C1_Status$callbackPayload	PTR void [6] size(1) Largest target is 4
		 -> I2C1_Read1ByteRegister@returnValue(COMRAM[1]), I2C1_Read2ByteRegister@returnValue(COMRAM[2]), I2C1_ReadDataBlock@bufferBlock(COMRAM[4]), I2C1_Write1ByteRegister@data(COMRAM[1]), 
		 -> I2C1_Write2ByteRegister@data(COMRAM[2]), i2c_read1ByteRegister@d2(COMRAM[1]), i2c_read2ByteRegister@result(COMRAM[2]), i2c_readDataBlock@d(COMRAM[4]), 
		 -> i2c_write1ByteRegister@data(COMRAM[1]), i2c_write2ByteRegister@data(COMRAM[2]), NULL(NULL[0]), 

    I2C1_Status$callbackTable	PTR FTN(PTR void ,)enum E363[6] size(2) Largest target is 1
		 -> I2C1_CallbackReturnReset(), I2C1_CallbackReturnStop(), rd1RegCompleteHandler(), rd1RegCompleteHandler@i2c1_master_example$F1566(), 
		 -> rd2RegCompleteHandler(), rd2RegCompleteHandler@i2c1_master_example$F1577(), rdBlkRegCompleteHandler(), rdBlkRegCompleteHandler@i2c1_master_example$F1600(), 
		 -> wr1RegCompleteHandler(), wr1RegCompleteHandler@i2c1_master_example$F1583(), wr2RegCompleteHandler(), wr2RegCompleteHandler@i2c1_master_example$F1589(), 
		 -> NULL(), 

    I2C1_Status$data_ptr	PTR unsigned char  size(2) Largest target is 2047
		 -> bufferBlock$data(COMRAM[2]), d$data(COMRAM[2]), I2C1_Read1ByteRegister@reg(COMRAM[1]), I2C1_Read1ByteRegister@returnValue(COMRAM[1]), 
		 -> I2C1_Read1ByteRegister@returnValue$data(COMRAM[2]), I2C1_Read2ByteRegister@reg(COMRAM[1]), I2C1_Read2ByteRegister@returnValue(COMRAM[2]), I2C1_Read2ByteRegister@returnValue$data(COMRAM[2]), 
		 -> I2C1_ReadDataBlock@bufferBlock(COMRAM[4]), I2C1_ReadDataBlock@reg(COMRAM[1]), I2C1_Write1ByteRegister@data(COMRAM[1]), I2C1_Write1ByteRegister@data$data(COMRAM[2]), 
		 -> I2C1_Write1ByteRegister@reg(COMRAM[1]), I2C1_Write2ByteRegister@data(COMRAM[2]), I2C1_Write2ByteRegister@data$data(COMRAM[2]), I2C1_Write2ByteRegister@reg(COMRAM[1]), 
		 -> i2c_read1ByteRegister@d2(COMRAM[1]), i2c_read1ByteRegister@d2$data(COMRAM[2]), i2c_read1ByteRegister@reg(COMRAM[1]), i2c_read2ByteRegister@reg(COMRAM[1]), 
		 -> i2c_read2ByteRegister@result(COMRAM[2]), i2c_read2ByteRegister@result$data(COMRAM[2]), i2c_readDataBlock@d(COMRAM[4]), i2c_readDataBlock@reg(COMRAM[1]), 
		 -> i2c_write1ByteRegister@data(COMRAM[1]), i2c_write1ByteRegister@data$data(COMRAM[2]), i2c_write1ByteRegister@reg(COMRAM[1]), i2c_write2ByteRegister@data(COMRAM[2]), 
		 -> i2c_write2ByteRegister@data$data(COMRAM[2]), i2c_write2ByteRegister@reg(COMRAM[1]), pcf8574_write_wEnable@writeBuffer(COMRAM[3]), RAM(DATA[2047]), 
		 -> NULL(NULL[0]), 

    I2C1_Write1ByteRegister@data$data	PTR unsigned char  size(2) Largest target is 0

    I2C1_Write2ByteRegister@data$data	PTR unsigned char  size(2) Largest target is 0

    i2c_read1ByteRegister@d2$data	PTR unsigned char  size(2) Largest target is 0

    i2c_read2ByteRegister@result$data	PTR unsigned char  size(2) Largest target is 0

    i2c_write1ByteRegister@data$data	PTR unsigned char  size(2) Largest target is 0

    i2c_write2ByteRegister@data$data	PTR unsigned char  size(2) Largest target is 0

    i2c_writeNBytes@data	PTR void  size(2) Largest target is 2047
		 -> pcf8574_write_wEnable@writeBuffer(COMRAM[3]), RAM(DATA[2047]), 

    lcd_writemessage@message	PTR const unsigned char  size(1) Largest target is 12
		 -> STR_1(CODE[12]), STR_2(CODE[7]), 

    MSSP1_InterruptHandler	PTR FTN()void  size(2) Largest target is 1
		 -> I2C1_MasterIsr(), NULL(), 

    NULL$0	PTR void  size(1) Largest target is 4
		 -> I2C1_Read1ByteRegister@returnValue(COMRAM[1]), I2C1_Read2ByteRegister@returnValue(COMRAM[2]), I2C1_ReadDataBlock@bufferBlock(COMRAM[4]), I2C1_Write1ByteRegister@data(COMRAM[1]), 
		 -> I2C1_Write2ByteRegister@data(COMRAM[2]), i2c_read1ByteRegister@d2(COMRAM[1]), i2c_read2ByteRegister@result(COMRAM[2]), i2c_readDataBlock@d(COMRAM[4]), 
		 -> i2c_write1ByteRegister@data(COMRAM[1]), i2c_write2ByteRegister@data(COMRAM[2]), NULL(NULL[0]), 

    rd1RegCompleteHandler@i2c1_master_example$F1566@ptr	PTR void  size(1) Largest target is 4
		 -> I2C1_Read1ByteRegister@returnValue(COMRAM[1]), I2C1_Read2ByteRegister@returnValue(COMRAM[2]), I2C1_ReadDataBlock@bufferBlock(COMRAM[4]), I2C1_Write1ByteRegister@data(COMRAM[1]), 
		 -> I2C1_Write2ByteRegister@data(COMRAM[2]), i2c_read1ByteRegister@d2(COMRAM[1]), i2c_read2ByteRegister@result(COMRAM[2]), i2c_readDataBlock@d(COMRAM[4]), 
		 -> i2c_write1ByteRegister@data(COMRAM[1]), i2c_write2ByteRegister@data(COMRAM[2]), NULL(NULL[0]), 

    rd1RegCompleteHandler@p	PTR void  size(1) Largest target is 4
		 -> I2C1_Read1ByteRegister@returnValue(COMRAM[1]), I2C1_Read2ByteRegister@returnValue(COMRAM[2]), I2C1_ReadDataBlock@bufferBlock(COMRAM[4]), I2C1_Write1ByteRegister@data(COMRAM[1]), 
		 -> I2C1_Write2ByteRegister@data(COMRAM[2]), i2c_read1ByteRegister@d2(COMRAM[1]), i2c_read2ByteRegister@result(COMRAM[2]), i2c_readDataBlock@d(COMRAM[4]), 
		 -> i2c_write1ByteRegister@data(COMRAM[1]), i2c_write2ByteRegister@data(COMRAM[2]), NULL(NULL[0]), 

    rd2RegCompleteHandler@i2c1_master_example$F1577@ptr	PTR void  size(1) Largest target is 4
		 -> I2C1_Read1ByteRegister@returnValue(COMRAM[1]), I2C1_Read2ByteRegister@returnValue(COMRAM[2]), I2C1_ReadDataBlock@bufferBlock(COMRAM[4]), I2C1_Write1ByteRegister@data(COMRAM[1]), 
		 -> I2C1_Write2ByteRegister@data(COMRAM[2]), i2c_read1ByteRegister@d2(COMRAM[1]), i2c_read2ByteRegister@result(COMRAM[2]), i2c_readDataBlock@d(COMRAM[4]), 
		 -> i2c_write1ByteRegister@data(COMRAM[1]), i2c_write2ByteRegister@data(COMRAM[2]), NULL(NULL[0]), 

    rd2RegCompleteHandler@p	PTR void  size(1) Largest target is 4
		 -> I2C1_Read1ByteRegister@returnValue(COMRAM[1]), I2C1_Read2ByteRegister@returnValue(COMRAM[2]), I2C1_ReadDataBlock@bufferBlock(COMRAM[4]), I2C1_Write1ByteRegister@data(COMRAM[1]), 
		 -> I2C1_Write2ByteRegister@data(COMRAM[2]), i2c_read1ByteRegister@d2(COMRAM[1]), i2c_read2ByteRegister@result(COMRAM[2]), i2c_readDataBlock@d(COMRAM[4]), 
		 -> i2c_write1ByteRegister@data(COMRAM[1]), i2c_write2ByteRegister@data(COMRAM[2]), NULL(NULL[0]), 

    rdBlkRegCompleteHandler@i2c1_master_example$F1600@ptr	PTR void  size(1) Largest target is 4
		 -> I2C1_Read1ByteRegister@returnValue(COMRAM[1]), I2C1_Read2ByteRegister@returnValue(COMRAM[2]), I2C1_ReadDataBlock@bufferBlock(COMRAM[4]), I2C1_Write1ByteRegister@data(COMRAM[1]), 
		 -> I2C1_Write2ByteRegister@data(COMRAM[2]), i2c_read1ByteRegister@d2(COMRAM[1]), i2c_read2ByteRegister@result(COMRAM[2]), i2c_readDataBlock@d(COMRAM[4]), 
		 -> i2c_write1ByteRegister@data(COMRAM[1]), i2c_write2ByteRegister@data(COMRAM[2]), NULL(NULL[0]), 

    rdBlkRegCompleteHandler@i2c1_master_example$F1600@ptr$data	PTR unsigned char  size(2) Largest target is 0

    rdBlkRegCompleteHandler@p	PTR void  size(1) Largest target is 4
		 -> I2C1_Read1ByteRegister@returnValue(COMRAM[1]), I2C1_Read2ByteRegister@returnValue(COMRAM[2]), I2C1_ReadDataBlock@bufferBlock(COMRAM[4]), I2C1_Write1ByteRegister@data(COMRAM[1]), 
		 -> I2C1_Write2ByteRegister@data(COMRAM[2]), i2c_read1ByteRegister@d2(COMRAM[1]), i2c_read2ByteRegister@result(COMRAM[2]), i2c_readDataBlock@d(COMRAM[4]), 
		 -> i2c_write1ByteRegister@data(COMRAM[1]), i2c_write2ByteRegister@data(COMRAM[2]), NULL(NULL[0]), 

    rdBlkRegCompleteHandler@p$data	PTR unsigned char  size(2) Largest target is 0

    S508$data	PTR unsigned char  size(2) Largest target is 0

    S840$0$0	PTR void  size(1) Largest target is 4
		 -> I2C1_Read1ByteRegister@returnValue(COMRAM[1]), I2C1_Read2ByteRegister@returnValue(COMRAM[2]), I2C1_ReadDataBlock@bufferBlock(COMRAM[4]), I2C1_Write1ByteRegister@data(COMRAM[1]), 
		 -> I2C1_Write2ByteRegister@data(COMRAM[2]), i2c_read1ByteRegister@d2(COMRAM[1]), i2c_read2ByteRegister@result(COMRAM[2]), i2c_readDataBlock@d(COMRAM[4]), 
		 -> i2c_write1ByteRegister@data(COMRAM[1]), i2c_write2ByteRegister@data(COMRAM[2]), NULL(NULL[0]), 

    S840$callbackPayload	PTR void [6] size(1) Largest target is 4
		 -> I2C1_Read1ByteRegister@returnValue(COMRAM[1]), I2C1_Read2ByteRegister@returnValue(COMRAM[2]), I2C1_ReadDataBlock@bufferBlock(COMRAM[4]), I2C1_Write1ByteRegister@data(COMRAM[1]), 
		 -> I2C1_Write2ByteRegister@data(COMRAM[2]), i2c_read1ByteRegister@d2(COMRAM[1]), i2c_read2ByteRegister@result(COMRAM[2]), i2c_readDataBlock@d(COMRAM[4]), 
		 -> i2c_write1ByteRegister@data(COMRAM[1]), i2c_write2ByteRegister@data(COMRAM[2]), NULL(NULL[0]), 

    S840$callbackTable	PTR FTN(PTR void ,)enum E363[6] size(2) Largest target is 1
		 -> I2C1_CallbackReturnReset(), I2C1_CallbackReturnStop(), rd1RegCompleteHandler(), rd1RegCompleteHandler@i2c1_master_example$F1566(), 
		 -> rd2RegCompleteHandler(), rd2RegCompleteHandler@i2c1_master_example$F1577(), rdBlkRegCompleteHandler(), rdBlkRegCompleteHandler@i2c1_master_example$F1600(), 
		 -> wr1RegCompleteHandler(), wr1RegCompleteHandler@i2c1_master_example$F1583(), wr2RegCompleteHandler(), wr2RegCompleteHandler@i2c1_master_example$F1589(), 
		 -> NULL(), 

    S840$data_ptr	PTR unsigned char  size(2) Largest target is 2047
		 -> I2C1_Read1ByteRegister@reg(COMRAM[1]), I2C1_Read1ByteRegister@returnValue(COMRAM[1]), I2C1_Read2ByteRegister@reg(COMRAM[1]), I2C1_Read2ByteRegister@returnValue(COMRAM[2]), 
		 -> I2C1_ReadDataBlock@bufferBlock(COMRAM[4]), I2C1_ReadDataBlock@reg(COMRAM[1]), I2C1_Write1ByteRegister@data(COMRAM[1]), I2C1_Write1ByteRegister@reg(COMRAM[1]), 
		 -> I2C1_Write2ByteRegister@data(COMRAM[2]), I2C1_Write2ByteRegister@reg(COMRAM[1]), i2c_read1ByteRegister@d2(COMRAM[1]), i2c_read1ByteRegister@reg(COMRAM[1]), 
		 -> i2c_read2ByteRegister@reg(COMRAM[1]), i2c_read2ByteRegister@result(COMRAM[2]), i2c_readDataBlock@d(COMRAM[4]), i2c_readDataBlock@reg(COMRAM[1]), 
		 -> i2c_write1ByteRegister@data(COMRAM[1]), i2c_write1ByteRegister@reg(COMRAM[1]), i2c_write2ByteRegister@data(COMRAM[2]), i2c_write2ByteRegister@reg(COMRAM[1]), 
		 -> pcf8574_write_wEnable@writeBuffer(COMRAM[3]), RAM(DATA[2047]), NULL(NULL[0]), 

    wr1RegCompleteHandler@i2c1_master_example$F1583@ptr	PTR void  size(1) Largest target is 4
		 -> I2C1_Read1ByteRegister@returnValue(COMRAM[1]), I2C1_Read2ByteRegister@returnValue(COMRAM[2]), I2C1_ReadDataBlock@bufferBlock(COMRAM[4]), I2C1_Write1ByteRegister@data(COMRAM[1]), 
		 -> I2C1_Write2ByteRegister@data(COMRAM[2]), i2c_read1ByteRegister@d2(COMRAM[1]), i2c_read2ByteRegister@result(COMRAM[2]), i2c_readDataBlock@d(COMRAM[4]), 
		 -> i2c_write1ByteRegister@data(COMRAM[1]), i2c_write2ByteRegister@data(COMRAM[2]), NULL(NULL[0]), 

    wr1RegCompleteHandler@p	PTR void  size(1) Largest target is 4
		 -> I2C1_Read1ByteRegister@returnValue(COMRAM[1]), I2C1_Read2ByteRegister@returnValue(COMRAM[2]), I2C1_ReadDataBlock@bufferBlock(COMRAM[4]), I2C1_Write1ByteRegister@data(COMRAM[1]), 
		 -> I2C1_Write2ByteRegister@data(COMRAM[2]), i2c_read1ByteRegister@d2(COMRAM[1]), i2c_read2ByteRegister@result(COMRAM[2]), i2c_readDataBlock@d(COMRAM[4]), 
		 -> i2c_write1ByteRegister@data(COMRAM[1]), i2c_write2ByteRegister@data(COMRAM[2]), NULL(NULL[0]), 

    wr2RegCompleteHandler@i2c1_master_example$F1589@ptr	PTR void  size(1) Largest target is 4
		 -> I2C1_Read1ByteRegister@returnValue(COMRAM[1]), I2C1_Read2ByteRegister@returnValue(COMRAM[2]), I2C1_ReadDataBlock@bufferBlock(COMRAM[4]), I2C1_Write1ByteRegister@data(COMRAM[1]), 
		 -> I2C1_Write2ByteRegister@data(COMRAM[2]), i2c_read1ByteRegister@d2(COMRAM[1]), i2c_read2ByteRegister@result(COMRAM[2]), i2c_readDataBlock@d(COMRAM[4]), 
		 -> i2c_write1ByteRegister@data(COMRAM[1]), i2c_write2ByteRegister@data(COMRAM[2]), NULL(NULL[0]), 

    wr2RegCompleteHandler@p	PTR void  size(1) Largest target is 4
		 -> I2C1_Read1ByteRegister@returnValue(COMRAM[1]), I2C1_Read2ByteRegister@returnValue(COMRAM[2]), I2C1_ReadDataBlock@bufferBlock(COMRAM[4]), I2C1_Write1ByteRegister@data(COMRAM[1]), 
		 -> I2C1_Write2ByteRegister@data(COMRAM[2]), i2c_read1ByteRegister@d2(COMRAM[1]), i2c_read2ByteRegister@result(COMRAM[2]), i2c_readDataBlock@d(COMRAM[4]), 
		 -> i2c_write1ByteRegister@data(COMRAM[1]), i2c_write2ByteRegister@data(COMRAM[2]), NULL(NULL[0]), 


Critical Paths under _main in COMRAM

    _lcd_writeletter->_pcf8574_write_wEnable
    _lcd_start->_pcf8574_write
    _lcd_start->_pcf8574_write_wEnable
    _lcd_lighting_ac->_pcf8574_write
    _pcf8574_write->_i2c_writeNBytes
    _lcd_command->_pcf8574_write_wEnable
    _pcf8574_write_wEnable->_i2c_writeNBytes
    _i2c_writeNBytes->_I2C1_SetAddressNackCallback
    _I2C1_SetAddressNackCallback->_I2C1_SetCallback
    _I2C1_Open->_I2C1_SetInterruptHandler
    _I2C1_MasterWrite->_I2C1_MasterOperation

Critical Paths under _INTERRUPT_InterruptManager in COMRAM

    _I2C1_MasterIsr->_I2C1_MasterFsm
    _I2C1_MasterFsm->_I2C1_DO_ADDRESS_NACK
    _I2C1_MasterFsm->_I2C1_DO_RX
    _I2C1_MasterFsm->_I2C1_DO_TX
    _I2C1_MasterFsm->_I2C1_DO_TX_EMPTY
    _I2C1_DO_TX_EMPTY->_rdBlkRegCompleteHandler
    _I2C1_DO_TX_EMPTY->_rdBlkRegCompleteHandler@i2c1_master_example$F1600
    _I2C1_DO_TX->_rdBlkRegCompleteHandler
    _I2C1_DO_TX->_rdBlkRegCompleteHandler@i2c1_master_example$F1600
    _I2C1_DO_SEND_ADR_WRITE->_I2C1_MasterSendTxData
    _I2C1_DO_RX->_rdBlkRegCompleteHandler
    _I2C1_DO_RX->_rdBlkRegCompleteHandler@i2c1_master_example$F1600
    _I2C1_DO_ADDRESS_NACK->_rdBlkRegCompleteHandler
    _I2C1_DO_ADDRESS_NACK->_rdBlkRegCompleteHandler@i2c1_master_example$F1600
    _wr2RegCompleteHandler@i2c1_master_example$F1589->_I2C1_SetDataCompleteCallback
    _wr2RegCompleteHandler->_I2C1_SetDataCompleteCallback
    _wr1RegCompleteHandler@i2c1_master_example$F1583->_I2C1_SetDataCompleteCallback
    _wr1RegCompleteHandler->_I2C1_SetDataCompleteCallback
    _rdBlkRegCompleteHandler@i2c1_master_example$F1600->_I2C1_SetDataCompleteCallback
    _rdBlkRegCompleteHandler->_I2C1_SetDataCompleteCallback
    _rd2RegCompleteHandler@i2c1_master_example$F1577->_I2C1_SetDataCompleteCallback
    _rd2RegCompleteHandler->_I2C1_SetDataCompleteCallback
    _rd1RegCompleteHandler@i2c1_master_example$F1566->_I2C1_SetDataCompleteCallback
    _rd1RegCompleteHandler->_I2C1_SetDataCompleteCallback
    _I2C1_SetDataCompleteCallback->i2_I2C1_SetCallback

Critical Paths under _main in BANK0

    _main->_lcd_writemessage
    _lcd_writemessage->_lcd_go
    _lcd_go->_lcd_command
    _lcd_start->_lcd_command
    _lcd_delete->_lcd_command

Critical Paths under _INTERRUPT_InterruptManager in BANK0

    None.

Critical Paths under _main in BANK1

    None.

Critical Paths under _INTERRUPT_InterruptManager in BANK1

    None.

Critical Paths under _main in BANK2

    None.

Critical Paths under _INTERRUPT_InterruptManager in BANK2

    None.

Critical Paths under _main in BANK3

    None.

Critical Paths under _INTERRUPT_InterruptManager in BANK3

    None.

Critical Paths under _main in BANK4

    None.

Critical Paths under _INTERRUPT_InterruptManager in BANK4

    None.

Critical Paths under _main in BANK5

    None.

Critical Paths under _INTERRUPT_InterruptManager in BANK5

    None.

Critical Paths under _main in BANK6

    None.

Critical Paths under _INTERRUPT_InterruptManager in BANK6

    None.

Critical Paths under _main in BANK7

    None.

Critical Paths under _INTERRUPT_InterruptManager in BANK7

    None.

Call Graph Tables:

 ---------------------------------------------------------------------------------
 (Depth) Function   	        Calls       Base Space   Used Autos Params    Refs
 ---------------------------------------------------------------------------------
 (0) _main                                                 2     2      0    8846
                                              8 BANK0      2     2      0
                  _SYSTEM_Initialize
                         _lcd_delete
                          _lcd_start
                   _lcd_writemessage
 ---------------------------------------------------------------------------------
 (1) _lcd_writemessage                                     3     1      2    2596
                                              5 BANK0      3     1      2
                             _lcd_go
                    _lcd_writeletter
 ---------------------------------------------------------------------------------
 (2) _lcd_writeletter                                      2     2      0    1112
                                              0 BANK0      2     2      0
                           _lcd_busy
              _pcf8574_write_wEnable
 ---------------------------------------------------------------------------------
 (2) _lcd_go                                               3     2      1    1329
                                              2 BANK0      3     2      1
                        _lcd_command
 ---------------------------------------------------------------------------------
 (1) _lcd_start                                            1     1      0    5138
                                              2 BANK0      1     1      0
                        _lcd_command
                         _lcd_delete
                    _lcd_lighting_ac
                      _pcf8574_write
              _pcf8574_write_wEnable
 ---------------------------------------------------------------------------------
 (2) _lcd_lighting_ac                                      0     0      0     948
                      _pcf8574_write
 ---------------------------------------------------------------------------------
 (2) _pcf8574_write                                        3     3      0     948
                                             35 COMRAM     3     3      0
                    _i2c_writeNBytes
 ---------------------------------------------------------------------------------
 (2) _lcd_delete                                           0     0      0    1112
                        _lcd_command
 ---------------------------------------------------------------------------------
 (3) _lcd_command                                          2     2      0    1112
                                              0 BANK0      2     2      0
                           _lcd_busy
              _pcf8574_write_wEnable
 ---------------------------------------------------------------------------------
 (3) _pcf8574_write_wEnable                                5     5      0    1018
                                             35 COMRAM     3     3      0
                    _i2c_writeNBytes
 ---------------------------------------------------------------------------------
 (4) _i2c_writeNBytes                                      5     1      4     901
                                             30 COMRAM     5     1      4
                         _I2C1_Close
                   _I2C1_MasterWrite
                          _I2C1_Open
        _I2C1_SetAddressNackCallback
                     _I2C1_SetBuffer
 ---------------------------------------------------------------------------------
 (5) _I2C1_SetBuffer                                       4     0      4     146
                                             22 COMRAM     4     0      4
 ---------------------------------------------------------------------------------
 (5) _I2C1_SetAddressNackCallback                          4     0      4     439
                                             26 COMRAM     4     0      4
                   _I2C1_SetCallback
 ---------------------------------------------------------------------------------
 (6) _I2C1_SetCallback                                     4     1      3     305
                                             22 COMRAM     4     1      3
 ---------------------------------------------------------------------------------
 (5) _I2C1_Open                                            2     2      0     118
                                             24 COMRAM     2     2      0
                _I2C1_MasterClearIrq
               _I2C1_MasterEnableIrq
                    _I2C1_MasterOpen
           _I2C1_SetInterruptHandler
 ---------------------------------------------------------------------------------
 (6) _I2C1_SetInterruptHandler                             2     0      2      34
                                             22 COMRAM     2     0      2
 ---------------------------------------------------------------------------------
 (6) _I2C1_MasterOpen                                      0     0      0       0
 ---------------------------------------------------------------------------------
 (6) _I2C1_MasterEnableIrq                                 0     0      0       0
 ---------------------------------------------------------------------------------
 (5) _I2C1_MasterWrite                                     0     0      0      53
               _I2C1_MasterOperation
 ---------------------------------------------------------------------------------
 (6) _I2C1_MasterOperation                                 2     2      0      53
                                             22 COMRAM     2     2      0
                   _I2C1_MasterStart
 ---------------------------------------------------------------------------------
 (7) _I2C1_MasterStart                                     0     0      0       0
 ---------------------------------------------------------------------------------
 (5) _I2C1_Close                                           1     1      0      24
                                             22 COMRAM     1     1      0
                _I2C1_MasterClearIrq
                   _I2C1_MasterClose
              _I2C1_MasterDisableIrq
 ---------------------------------------------------------------------------------
 (6) _I2C1_MasterDisableIrq                                0     0      0       0
 ---------------------------------------------------------------------------------
 (6) _I2C1_MasterClose                                     0     0      0       0
 ---------------------------------------------------------------------------------
 (6) _I2C1_MasterClearIrq                                  0     0      0       0
 ---------------------------------------------------------------------------------
 (3) _lcd_busy                                             0     0      0       0
 ---------------------------------------------------------------------------------
 (1) _SYSTEM_Initialize                                    0     0      0       0
                    _I2C1_Initialize
               _INTERRUPT_Initialize
              _OSCILLATOR_Initialize
             _PIN_MANAGER_Initialize
 ---------------------------------------------------------------------------------
 (2) _PIN_MANAGER_Initialize                               0     0      0       0
 ---------------------------------------------------------------------------------
 (2) _OSCILLATOR_Initialize                                0     0      0       0
 ---------------------------------------------------------------------------------
 (2) _INTERRUPT_Initialize                                 0     0      0       0
 ---------------------------------------------------------------------------------
 (2) _I2C1_Initialize                                      0     0      0       0
 ---------------------------------------------------------------------------------
 Estimated maximum stack depth 7
 ---------------------------------------------------------------------------------
 (Depth) Function   	        Calls       Base Space   Used Autos Params    Refs
 ---------------------------------------------------------------------------------
 (9) _INTERRUPT_InterruptManager                          10    10      0   14401
                                             12 COMRAM    10    10      0
                                NULL *
                     _I2C1_MasterIsr *
 ---------------------------------------------------------------------------------
 (10) _I2C1_MasterIsr                                      0     0      0   14401
                     _I2C1_MasterFsm
 ---------------------------------------------------------------------------------
 (11) _I2C1_MasterFsm                                      1     1      0   14401
                                             11 COMRAM     1     1      0
               _I2C1_DO_ADDRESS_NACK *
                       _I2C1_DO_IDLE *
                       _I2C1_DO_RCEN *
                      _I2C1_DO_RESET *
                         _I2C1_DO_RX *
                     _I2C1_DO_RX_ACK *
            _I2C1_DO_RX_NACK_RESTART *
               _I2C1_DO_RX_NACK_STOP *
              _I2C1_DO_SEND_ADR_READ *
             _I2C1_DO_SEND_ADR_WRITE *
               _I2C1_DO_SEND_RESTART *
          _I2C1_DO_SEND_RESTART_READ *
         _I2C1_DO_SEND_RESTART_WRITE *
                  _I2C1_DO_SEND_STOP *
                         _I2C1_DO_TX *
                   _I2C1_DO_TX_EMPTY *
                  _I2C1_MasterIsNack
              i2_I2C1_MasterClearIrq
 ---------------------------------------------------------------------------------
 (12) i2_I2C1_MasterClearIrq                               0     0      0       0
 ---------------------------------------------------------------------------------
 (12) _I2C1_DO_TX_EMPTY                                    2     2      0    3589
                                              9 COMRAM     2     2      0
                                NULL *
           _I2C1_CallbackReturnReset *
            _I2C1_CallbackReturnStop *
               _I2C1_DO_SEND_RESTART
                  _I2C1_DO_SEND_STOP
                  _I2C1_MasterSetIrq
              _rd1RegCompleteHandler *
_rd1RegCompleteHandler@i2c1_master_e *
              _rd2RegCompleteHandler *
_rd2RegCompleteHandler@i2c1_master_e *
            _rdBlkRegCompleteHandler *
_rdBlkRegCompleteHandler@i2c1_master *
              _wr1RegCompleteHandler *
_wr1RegCompleteHandler@i2c1_master_e *
              _wr2RegCompleteHandler *
_wr2RegCompleteHandler@i2c1_master_e *
 ---------------------------------------------------------------------------------
 (13) _I2C1_MasterSetIrq                                   0     0      0       0
 ---------------------------------------------------------------------------------
 (12) _I2C1_DO_TX                                          2     2      0    3604
                                              9 COMRAM     2     2      0
                                NULL *
           _I2C1_CallbackReturnReset *
            _I2C1_CallbackReturnStop *
          _I2C1_DO_SEND_RESTART_READ
         _I2C1_DO_SEND_RESTART_WRITE
                  _I2C1_DO_SEND_STOP
                  _I2C1_MasterIsNack
              _I2C1_MasterSendTxData
              _rd1RegCompleteHandler *
_rd1RegCompleteHandler@i2c1_master_e *
              _rd2RegCompleteHandler *
_rd2RegCompleteHandler@i2c1_master_e *
            _rdBlkRegCompleteHandler *
_rdBlkRegCompleteHandler@i2c1_master *
              _wr1RegCompleteHandler *
_wr1RegCompleteHandler@i2c1_master_e *
              _wr2RegCompleteHandler *
_wr2RegCompleteHandler@i2c1_master_e *
 ---------------------------------------------------------------------------------
 (12) _I2C1_MasterIsNack                                   0     0      0       0
 ---------------------------------------------------------------------------------
 (13) _I2C1_DO_SEND_RESTART_WRITE                          0     0      0       0
           _I2C1_MasterEnableRestart
 ---------------------------------------------------------------------------------
 (13) _I2C1_DO_SEND_RESTART_READ                           0     0      0       0
           _I2C1_MasterEnableRestart
 ---------------------------------------------------------------------------------
 (12) _I2C1_DO_SEND_ADR_WRITE                              0     0      0      15
              _I2C1_MasterSendTxData
 ---------------------------------------------------------------------------------
 (12) _I2C1_DO_SEND_ADR_READ                               0     0      0      15
              _I2C1_MasterSendTxData
 ---------------------------------------------------------------------------------
 (13) _I2C1_MasterSendTxData                               1     1      0      15
                                              0 COMRAM     1     1      0
 ---------------------------------------------------------------------------------
 (12) _I2C1_DO_RX_ACK                                      0     0      0       0
                 _I2C1_MasterSendAck
 ---------------------------------------------------------------------------------
 (12) _I2C1_DO_RX                                          2     2      0    3589
                                              9 COMRAM     2     2      0
                                NULL *
           _I2C1_CallbackReturnReset *
            _I2C1_CallbackReturnStop *
            _I2C1_DO_RX_NACK_RESTART
               _I2C1_DO_RX_NACK_STOP
               _I2C1_MasterGetRxData
                 _I2C1_MasterSendAck
              _rd1RegCompleteHandler *
_rd1RegCompleteHandler@i2c1_master_e *
              _rd2RegCompleteHandler *
_rd2RegCompleteHandler@i2c1_master_e *
            _rdBlkRegCompleteHandler *
_rdBlkRegCompleteHandler@i2c1_master *
              _wr1RegCompleteHandler *
_wr1RegCompleteHandler@i2c1_master_e *
              _wr2RegCompleteHandler *
_wr2RegCompleteHandler@i2c1_master_e *
 ---------------------------------------------------------------------------------
 (13) _I2C1_MasterSendAck                                  0     0      0       0
 ---------------------------------------------------------------------------------
 (13) _I2C1_MasterGetRxData                                0     0      0       0
 ---------------------------------------------------------------------------------
 (12) _I2C1_DO_RX_NACK_STOP                                0     0      0       0
                _I2C1_MasterSendNack
 ---------------------------------------------------------------------------------
 (12) _I2C1_DO_RX_NACK_RESTART                             0     0      0       0
                _I2C1_MasterSendNack
 ---------------------------------------------------------------------------------
 (13) _I2C1_MasterSendNack                                 0     0      0       0
 ---------------------------------------------------------------------------------
 (12) _I2C1_DO_RESET                                       0     0      0       0
 ---------------------------------------------------------------------------------
 (12) _I2C1_DO_RCEN                                        0     0      0       0
                 _I2C1_MasterStartRx
 ---------------------------------------------------------------------------------
 (13) _I2C1_MasterStartRx                                  0     0      0       0
 ---------------------------------------------------------------------------------
 (12) _I2C1_DO_IDLE                                        0     0      0       0
 ---------------------------------------------------------------------------------
 (12) _I2C1_DO_ADDRESS_NACK                                2     2      0    3589
                                              9 COMRAM     2     2      0
                                NULL *
           _I2C1_CallbackReturnReset *
            _I2C1_CallbackReturnStop *
               _I2C1_DO_SEND_RESTART
                  _I2C1_DO_SEND_STOP
              _rd1RegCompleteHandler *
_rd1RegCompleteHandler@i2c1_master_e *
              _rd2RegCompleteHandler *
_rd2RegCompleteHandler@i2c1_master_e *
            _rdBlkRegCompleteHandler *
_rdBlkRegCompleteHandler@i2c1_master *
              _wr1RegCompleteHandler *
_wr1RegCompleteHandler@i2c1_master_e *
              _wr2RegCompleteHandler *
_wr2RegCompleteHandler@i2c1_master_e *
 ---------------------------------------------------------------------------------
 (13) _wr2RegCompleteHandler@i2c1_master_example$F1589     1     0      1     354
                                              7 COMRAM     1     0      1
       _I2C1_SetDataCompleteCallback
                   i2_I2C1_SetBuffer
 ---------------------------------------------------------------------------------
 (13) _wr2RegCompleteHandler                               1     0      1     354
                                              7 COMRAM     1     0      1
       _I2C1_SetDataCompleteCallback
                   i2_I2C1_SetBuffer
 ---------------------------------------------------------------------------------
 (13) _wr1RegCompleteHandler@i2c1_master_example$F1583     1     0      1     354
                                              7 COMRAM     1     0      1
       _I2C1_SetDataCompleteCallback
                   i2_I2C1_SetBuffer
 ---------------------------------------------------------------------------------
 (13) _wr1RegCompleteHandler                               1     0      1     354
                                              7 COMRAM     1     0      1
       _I2C1_SetDataCompleteCallback
                   i2_I2C1_SetBuffer
 ---------------------------------------------------------------------------------
 (13) _rdBlkRegCompleteHandler@i2c1_master_example$F1600   2     1      1     381
                                              7 COMRAM     2     1      1
       _I2C1_SetDataCompleteCallback
                   i2_I2C1_SetBuffer
 ---------------------------------------------------------------------------------
 (13) _rdBlkRegCompleteHandler                             2     1      1     376
                                              7 COMRAM     2     1      1
       _I2C1_SetDataCompleteCallback
                   i2_I2C1_SetBuffer
 ---------------------------------------------------------------------------------
 (13) _rd2RegCompleteHandler@i2c1_master_example$F1577     1     0      1     354
                                              7 COMRAM     1     0      1
       _I2C1_SetDataCompleteCallback
                   i2_I2C1_SetBuffer
 ---------------------------------------------------------------------------------
 (13) _rd2RegCompleteHandler                               1     0      1     354
                                              7 COMRAM     1     0      1
       _I2C1_SetDataCompleteCallback
                   i2_I2C1_SetBuffer
 ---------------------------------------------------------------------------------
 (13) _rd1RegCompleteHandler@i2c1_master_example$F1566     1     0      1     354
                                              7 COMRAM     1     0      1
       _I2C1_SetDataCompleteCallback
                   i2_I2C1_SetBuffer
 ---------------------------------------------------------------------------------
 (13) _rd1RegCompleteHandler                               1     0      1     354
                                              7 COMRAM     1     0      1
       _I2C1_SetDataCompleteCallback
                   i2_I2C1_SetBuffer
 ---------------------------------------------------------------------------------
 (14) i2_I2C1_SetBuffer                                    4     0      4      64
                                              0 COMRAM     4     0      4
 ---------------------------------------------------------------------------------
 (14) _I2C1_SetDataCompleteCallback                        3     0      3     268
                                              4 COMRAM     3     0      3
                 i2_I2C1_SetCallback
 ---------------------------------------------------------------------------------
 (15) i2_I2C1_SetCallback                                  4     1      3     184
                                              0 COMRAM     4     1      3
 ---------------------------------------------------------------------------------
 (13) _I2C1_DO_SEND_STOP                                   0     0      0       0
                    _I2C1_MasterStop
 ---------------------------------------------------------------------------------
 (14) _I2C1_MasterStop                                     0     0      0       0
 ---------------------------------------------------------------------------------
 (13) _I2C1_DO_SEND_RESTART                                0     0      0       0
           _I2C1_MasterEnableRestart
 ---------------------------------------------------------------------------------
 (14) _I2C1_MasterEnableRestart                            0     0      0       0
 ---------------------------------------------------------------------------------
 (13) _I2C1_CallbackReturnStop                             1     0      1       0
                                              7 COMRAM     1     0      1
 ---------------------------------------------------------------------------------
 (13) _I2C1_CallbackReturnReset                            1     0      1       0
                                              7 COMRAM     1     0      1
 ---------------------------------------------------------------------------------
 (13) NULL(Fake)                                           1     0      1       0
 ---------------------------------------------------------------------------------
 Estimated maximum stack depth 15
 ---------------------------------------------------------------------------------

 Call Graph Graphs:

 _main (ROOT)
   _SYSTEM_Initialize
     _I2C1_Initialize
     _INTERRUPT_Initialize
     _OSCILLATOR_Initialize
     _PIN_MANAGER_Initialize
   _lcd_delete
     _lcd_command
       _lcd_busy
       _pcf8574_write_wEnable
         _i2c_writeNBytes
           _I2C1_Close
             _I2C1_MasterClearIrq
             _I2C1_MasterClose
             _I2C1_MasterDisableIrq
           _I2C1_MasterWrite
             _I2C1_MasterOperation
               _I2C1_MasterStart
           _I2C1_Open
             _I2C1_MasterClearIrq
             _I2C1_MasterEnableIrq
             _I2C1_MasterOpen
             _I2C1_SetInterruptHandler
           _I2C1_SetAddressNackCallback
             _I2C1_SetCallback
           _I2C1_SetBuffer
   _lcd_start
     _lcd_command
     _lcd_delete
     _lcd_lighting_ac
       _pcf8574_write
         _i2c_writeNBytes
     _pcf8574_write
     _pcf8574_write_wEnable
   _lcd_writemessage
     _lcd_go
       _lcd_command
     _lcd_writeletter
       _lcd_busy
       _pcf8574_write_wEnable

 _INTERRUPT_InterruptManager (ROOT)
   NULL(Fake) *
   _I2C1_MasterIsr *
     _I2C1_MasterFsm
       _I2C1_DO_ADDRESS_NACK *
         NULL(Fake) *
         _I2C1_CallbackReturnReset *
         _I2C1_CallbackReturnStop *
         _I2C1_DO_SEND_RESTART *
           _I2C1_MasterEnableRestart
         _I2C1_DO_SEND_STOP *
           _I2C1_MasterStop
         _rd1RegCompleteHandler *
           _I2C1_SetDataCompleteCallback
             i2_I2C1_SetCallback
           i2_I2C1_SetBuffer
         _rd1RegCompleteHandler@i2c1_master_example$F1566 *
           _I2C1_SetDataCompleteCallback
           i2_I2C1_SetBuffer
         _rd2RegCompleteHandler *
           _I2C1_SetDataCompleteCallback
           i2_I2C1_SetBuffer
         _rd2RegCompleteHandler@i2c1_master_example$F1577 *
           _I2C1_SetDataCompleteCallback
           i2_I2C1_SetBuffer
         _rdBlkRegCompleteHandler *
           _I2C1_SetDataCompleteCallback
           i2_I2C1_SetBuffer
         _rdBlkRegCompleteHandler@i2c1_master_example$F1600 *
           _I2C1_SetDataCompleteCallback
           i2_I2C1_SetBuffer
         _wr1RegCompleteHandler *
           _I2C1_SetDataCompleteCallback
           i2_I2C1_SetBuffer
         _wr1RegCompleteHandler@i2c1_master_example$F1583 *
           _I2C1_SetDataCompleteCallback
           i2_I2C1_SetBuffer
         _wr2RegCompleteHandler *
           _I2C1_SetDataCompleteCallback
           i2_I2C1_SetBuffer
         _wr2RegCompleteHandler@i2c1_master_example$F1589 *
           _I2C1_SetDataCompleteCallback
           i2_I2C1_SetBuffer
       _I2C1_DO_IDLE *
       _I2C1_DO_RCEN *
         _I2C1_MasterStartRx
       _I2C1_DO_RESET *
       _I2C1_DO_RX *
         NULL(Fake) *
         _I2C1_CallbackReturnReset *
         _I2C1_CallbackReturnStop *
         _I2C1_DO_RX_NACK_RESTART *
           _I2C1_MasterSendNack
         _I2C1_DO_RX_NACK_STOP *
           _I2C1_MasterSendNack
         _I2C1_MasterGetRxData *
         _I2C1_MasterSendAck *
         _rd1RegCompleteHandler *
         _rd1RegCompleteHandler@i2c1_master_example$F1566 *
         _rd2RegCompleteHandler *
         _rd2RegCompleteHandler@i2c1_master_example$F1577 *
         _rdBlkRegCompleteHandler *
         _rdBlkRegCompleteHandler@i2c1_master_example$F1600 *
         _wr1RegCompleteHandler *
         _wr1RegCompleteHandler@i2c1_master_example$F1583 *
         _wr2RegCompleteHandler *
         _wr2RegCompleteHandler@i2c1_master_example$F1589 *
       _I2C1_DO_RX_ACK *
         _I2C1_MasterSendAck
       _I2C1_DO_RX_NACK_RESTART *
       _I2C1_DO_RX_NACK_STOP *
       _I2C1_DO_SEND_ADR_READ *
         _I2C1_MasterSendTxData
       _I2C1_DO_SEND_ADR_WRITE *
         _I2C1_MasterSendTxData
       _I2C1_DO_SEND_RESTART *
       _I2C1_DO_SEND_RESTART_READ *
         _I2C1_MasterEnableRestart
       _I2C1_DO_SEND_RESTART_WRITE *
         _I2C1_MasterEnableRestart
       _I2C1_DO_SEND_STOP *
       _I2C1_DO_TX *
         NULL(Fake) *
         _I2C1_CallbackReturnReset *
         _I2C1_CallbackReturnStop *
         _I2C1_DO_SEND_RESTART_READ *
         _I2C1_DO_SEND_RESTART_WRITE *
         _I2C1_DO_SEND_STOP *
         _I2C1_MasterIsNack *
         _I2C1_MasterSendTxData *
         _rd1RegCompleteHandler *
         _rd1RegCompleteHandler@i2c1_master_example$F1566 *
         _rd2RegCompleteHandler *
         _rd2RegCompleteHandler@i2c1_master_example$F1577 *
         _rdBlkRegCompleteHandler *
         _rdBlkRegCompleteHandler@i2c1_master_example$F1600 *
         _wr1RegCompleteHandler *
         _wr1RegCompleteHandler@i2c1_master_example$F1583 *
         _wr2RegCompleteHandler *
         _wr2RegCompleteHandler@i2c1_master_example$F1589 *
       _I2C1_DO_TX_EMPTY *
         NULL(Fake) *
         _I2C1_CallbackReturnReset *
         _I2C1_CallbackReturnStop *
         _I2C1_DO_SEND_RESTART *
         _I2C1_DO_SEND_STOP *
         _I2C1_MasterSetIrq *
         _rd1RegCompleteHandler *
         _rd1RegCompleteHandler@i2c1_master_example$F1566 *
         _rd2RegCompleteHandler *
         _rd2RegCompleteHandler@i2c1_master_example$F1577 *
         _rdBlkRegCompleteHandler *
         _rdBlkRegCompleteHandler@i2c1_master_example$F1600 *
         _wr1RegCompleteHandler *
         _wr1RegCompleteHandler@i2c1_master_example$F1583 *
         _wr2RegCompleteHandler *
         _wr2RegCompleteHandler@i2c1_master_example$F1589 *
       _I2C1_MasterIsNack *
       i2_I2C1_MasterClearIrq *

Address spaces:
Name               Size   Autos  Total    Usage
BIGRAM            2047      0       0      0.0%
BITBANK7           256      0       0      0.0%
BANK7              256      0       0      0.0%
BITBANK6           256      0       0      0.0%
BANK6              256      0       0      0.0%
BITBANK5           256      0       0      0.0%
BANK5              256      0       0      0.0%
BITBANK4           256      0       0      0.0%
BANK4              256      0       0      0.0%
BITBANK3           256      0       0      0.0%
BANK3              256      0       0      0.0%
BITBANK2           256      0       0      0.0%
BANK2              256      0       0      0.0%
BITBANK1           256      0       0      0.0%
BANK1              256      0       0      0.0%
BITBANK0           160      0       0      0.0%
BANK0              160     10      10      6.2%
BITBIGSFRh          94      0       0      0.0%
BITCOMRAM           94      0       0      0.0%
COMRAM              94     38      72     76.6%
BITBIGSFRlllh       45      0       0      0.0%
BITBIGSFRlh         12      0       0      0.0%
BITBIGSFRllh        10      0       0      0.0%
BITBIGSFRllll        8      0       0      0.0%
STACK                0      0       0      0.0%
DATA                 0      0      82      0.0%


Microchip Technology PIC18 Macro Assembler V2.50 build 20240725155939 
Symbol Table                                                                                   Sat Mar 08 20:50:27 2025

                                   ?_pcf8574_write_wEnable 0001  
                                             lcd_go@column 0062  
                                                       l27 10F4  
                                                       l47 12CA  
                                                       l95 0D64  
                                                      l300 0F7A  
                                                      l312 1250  
                                                      l306 0EDC  
                                                      l342 0DBC  
                                                      l503 12B6  
                                                      l319 1116  
                                                      l512 12C6  
                                                      l328 11A4  
                                                      l337 122C  
                                                      l292 11EE  
                                                      l509 12BE  
                                                      l461 1176  
                                                      l710 0E5E  
                                                      l543 11DE  
                                                      l464 12C2  
                                                      l296 0AA4  
                                                      l713 0CAC  
                                                      l721 1248  
                                                      l546 11FC  
                                                      l482 12BA  
                                                      l707 1236  
                                                      l657 1158  
                                                      l682 0FA0  
                                                      l763 1222  
                                                      l685 0C4E  
                                                      l694 0B84  
                                                      l699 0EA0  
                                        ?i2_I2C1_SetBuffer 0001  
                                    ?_I2C1_MasterOperation 0001  
                                                      tosl 0FFD  
                                                      wreg 0FE8  
                                   ?_I2C1_MasterSendTxData 0001  
                                     _I2C1_DO_RX_NACK_STOP 1262  
                                ?_I2C1_MasterEnableRestart 0001  
                                       ??i2_I2C1_SetBuffer 0005  
                                    __end_of_pcf8574_write 115A  
                                     I2C1_SetBuffer@buffer 0017  
                                                     l2010 11DA  
                                                     l2004 11CE  
                                  ??_rd2RegCompleteHandler 0009  
                                                     l2006 11D2  
                                                     l2008 11D6  
                                                     l3310 0EA8  
                                                     l3302 12B4  
                                                     l3304 12BC  
                                                     l3320 0ED6  
                                                     l3312 0EB6  
                                                     l3306 12C0  
                                                     l3410 0F74  
                                                     l3402 0F52  
                                                     l3314 0EBA  
                                                     l3322 0EDA  
                                                     l3330 0D8E  
                                                     l3412 0F78  
                                                     l3404 0F56  
                                                     l3316 0ECA  
                                                     l3308 0EA4  
                                                     l3332 0D9E  
                                                     l3340 110C  
                                                     l3420 0D24  
                                                     l3500 0BF4  
                                                     l3406 0F64  
                                                     l3318 0ED2  
                                                     l3350 0A42  
                                                     l3334 0DB2  
                                                     l3326 0D68  
                                                     l3342 1114  
                                                     l3422 0D38  
                                                     l3430 0F8C  
                                                     l3510 0C20  
                                                     l3502 0BFC  
                                                     l3432 122E  
                                                     l3408 0F68  
                                                     l3360 0A54  
                                                     l3352 0A44  
                                                     l3344 0A2C  
                                                     l3328 0D7A  
                                                     l3336 10F6  
                                                     l3424 0D4C  
                                                     l3416 0D0E  
                                                     l3440 0C5A  
                                                     l3520 0C4A  
                                                     l3512 0C26  
                                                     l3504 0C00  
                                                     l1930 10DC  
                                                     l3290 115A  
                                                     l3370 0A6A  
                                                     l3362 0A56  
                                                     l3354 0A46  
                                                     l3346 0A30  
                                                     l3338 1104  
                                                     l3426 0D50  
                                                     l3418 0D0E  
                                                     l3450 0C9A  
                                                     l3442 0C6C  
                                                     l3434 113C  
                                                     l3514 0C2E  
                                                     l3506 0C12  
                                                     l3522 0E64  
                                                     l1940 11E2  
                                                     l1932 10F2  
                                                     l3284 12B8  
                                                     l3292 1168  
                                                     l3380 0A86  
                                                     l3372 0A72  
                                                     l3364 0A5E  
                                                     l3356 0A48  
                                                     l3348 0A3E  
                                                     l3428 0F7C  
                                                     l3444 0C70  
                                                     l3436 0C54  
                                                     l3452 1242  
                                                     l3516 0C34  
                                                     l3508 0C18  
                                                     l3460 0B26  
                                                     l3524 0E70  
                                                     l1942 11E6  
                                                     l1934 12C8  
                                                     l3294 116A  
                                                     l3286 1224  
                                                     l3390 0AA0  
                                                     l3382 0A88  
                                                     l3374 0A74  
                                                     l3366 0A60  
                                                     l3358 0A4C  
                                                     l3446 0C82  
                                                     l3438 0C58  
                                                     l3454 121A  
                                                     l3518 0C46  
                                                     l3462 0B30  
                                                     l3470 0B4E  
                                                     l3526 0E80  
                                                     l3630 09BA  
                                                     l3622 0998  
                                                     l1944 11EC  
                                                     l1960 11FA  
                                                     l1928 10D2  
                                                     l3288 12C4  
                                                     l3296 116E  
                                                     l3384 0A94  
                                                     l3376 0A7C  
                                                     l3368 0A68  
                                                     l3392 0AA2  
                                                     l3448 0C96  
                                                     l3456 121C  
                                                     l3464 0B3A  
                                                     l3472 0B76  
                                                     l3480 0E20  
                                                     l3528 0E84  
                                                     l3640 09E2  
                                                     l3632 09BE  
                                                     l3624 099C  
                                                     l1938 11E0  
                                                     l3298 1174  
                                                     l3386 0A98  
                                                     l3378 0A7E  
                                                     l3474 0B7C  
                                                     l3466 0B44  
                                                     l3458 0B22  
                                                     l3490 0E56  
                                                     l3482 0E32  
                                                     l3650 0A20  
                                                     l3642 09E4  
                                                     l3634 09C2  
                                                     l3626 099E  
                                                     l1956 11F0  
                                                     l3388 0A9C  
                                                     l3396 1192  
                                                     l3484 0E36  
                                                     l3476 0E1A  
                                                     l3644 09F4  
                                                     l3636 09C6  
                                                     l3628 09A0  
                                                     l1958 11F4  
                                                     l3398 124A  
                                                     l3486 0E3E  
                                                     l3478 0E1E  
                                                     l3646 0A0C  
                                                     l3638 09DE  
                                                     l3496 0BEC  
                                                     l3488 0E52  
                                                     l3648 0A10  
                                                     l3498 0BF2  
                                                     STR_1 0821  
                                                     STR_2 082D  
                                                     u1200 0EB6  
                                                     u1201 0EB2  
                                                     u1210 0ECA  
                                                     u1211 0EC6  
                                                     u1220 0D7A  
                                                     u1221 0D76  
                                                     u1230 1104  
                                                     u1231 1100  
                                                     u1240 0A3E  
                                                     u1241 0A3A  
                                                     u1250 0F64  
                                                     u1251 0F60  
                                                     u1260 0D24  
                                                     u1261 0D20  
                                                     _LATA 0F89  
                                                     u1190 1168  
                                                     u1270 0D64  
                                                     _LATB 0F8A  
                                                     u1191 1164  
                                                     u1271 0D60  
                                                     _LATC 0F8B  
                                                     u1280 0EA0  
                                                     u1281 0E9C  
                                                     u1607 09D2  
                                                     u1617 0A00  
                                                     u1707 0CA2  
                                                     u1627 0E38  
                                                     u1717 1230  
                                                     u1637 0E58  
                                                     u1647 0B7E  
                                                     u1657 0C08  
                                                     u1667 0C1A  
                                                     u1677 0C28  
                                                     u1597 09AC  
                                                     u1687 0C3C  
                                                     u1697 0C78  
                                                     i2l53 007A  
                                                     i2l54 009A  
                                                     i2l58 009A  
                                                     i2l77 10AA  
                                                     i2l98 1084  
                                                     _WPUB 0F85  
                                  ??_wr2RegCompleteHandler 0009  
                                         ??_I2C1_MasterFsm 000C  
                                         ??_I2C1_MasterIsr 000D  
                                ??_I2C1_CallbackReturnStop 0009  
                                                     _main 0998  
                                                     fsr2h 0FDA  
                                                     indf2 0FDF  
                                                     fsr2l 0FD9  
                                                     btemp 0049  
                                                     prodh 0FF4  
                                                     prodl 0FF3  
                                                     start 00C6  
                                         ??_I2C1_SetBuffer 001B  
                                             ___param_bank 0000  
                                       i2_I2C1_SetCallback 0DBE  
                            I2C1_CallbackReturnStop@funPtr 0008  
                     ??_rd2RegCompleteHandler@xxtofl$F2270 0009  
                      ?_wr2RegCompleteHandler@xxtofl$F2274 0008  
                     ??_wr2RegCompleteHandler@xxtofl$F2276 0009  
                      ?_rd2RegCompleteHandler@xxtofl$F2268 0008  
                            __end_of_OSCILLATOR_Initialize 11FE  
                                      ?i2_I2C1_SetCallback 0001  
                                        __end_of_I2C1_Open 0AA6  
                                                    ?_main 0001  
                                                    i2l113 105E  
                                                    i2l125 1038  
                                                    i2l137 0F50  
                                                    i2l322 11CC  
                                                    i2l413 1290  
                                                    i2l342 0E14  
                                                    i2l422 1278  
                                                    i2l319 1138  
                                                    i2l431 1260  
                                                    i2l352 1298  
                                                    i2l416 1288  
                                                    i2l440 0BEA  
                                                    i2l512 12CE  
                                                    i2l361 08C0  
                                                    i2l425 1270  
                                                    i2l345 12A6  
                                                    i2l434 1258  
                                                    i2l451 12DE  
                                                    i2l515 12D2  
                                                    i2l355 1218  
                                                    i2l419 1280  
                                                    i2l364 08F4  
                                                    i2l428 1268  
                                                    i2l349 0D0A  
                                                    i2l470 12A0  
                                                    i2l358 120A  
                                                    i2l448 12E2  
                                                    i2l473 12EA  
                                                    i2l641 0FEC  
                                                    i2l377 092A  
                                                    i2l650 0F16  
                                                    i2l378 0996  
                                                    i2l467 12D6  
                                                    i2l491 12AC  
                                                    i2l395 0B1C  
                                                    i2l644 0FC6  
                                                    i2l485 12E6  
                                                    i2l389 1240  
                                                    i2l638 1012  
                                                    i2l494 12B2  
                                                    i2l647 10D0  
                                                    i2l479 12DA  
                                                    i2l488 11B8  
                               __end_of_i2c1_fsmStateTable 0821  
                                   ??_I2C1_MasterEnableIrq 0017  
                                                    _TRISA 0F92  
                                                    _TRISB 0F93  
                                                    _TRISC 0F94  
                                   ??_I2C1_MasterGetRxData 0001  
                                    ?_I2C1_DO_RX_NACK_STOP 0001  
                               ??_I2C1_CallbackReturnReset 0009  
                                        ??_I2C1_MasterOpen 0017  
                                        ??_I2C1_MasterStop 0001  
                                        ??_I2C1_Initialize 0017  
                                  __end_of_lcd_writeletter 0E60  
                                                    pclath 0FFA  
                                                    pclatu 0FFB  
                                                    tablat 0FF5  
                                     ??i2_I2C1_SetCallback 0004  
                                                    ttemp5 004A  
                                                    ttemp6 004D  
                                                    ttemp7 0051  
                                                    status 0FD8  
                                                    wtemp8 004A  
                                             ??_I2C1_DO_RX 000A  
                                             ??_I2C1_DO_TX 000A  
                                   ??_I2C1_DO_ADDRESS_NACK 000A  
                                             ??_I2C1_Close 0017  
                                          __initialization 1178  
                                             __end_of_main 0A2A  
                              ?_INTERRUPT_InterruptManager 0001  
                                   ??_I2C1_MasterOperation 0017  
                                                   ??_main 0068  
                                            __activetblptr 0002  
                                       __end_of_I2C1_DO_RX 0998  
                                       __end_of_I2C1_DO_TX 08F6  
                                       __end_of_I2C1_Close 0F7C  
                                                   _ACTCON 0FB5  
                                                   _ANSELA 0F5B  
                                                   _ANSELB 0F5C  
                                                   _ANSELC 0F5D  
                                                   i2l1600 12E4  
                                                   i2l1602 12AE  
                                                   i2l1702 12D0  
                                                   i2l1704 12E0  
                                                   i2l2602 103A  
                                                   i2l2610 1014  
                                                   i2l2604 104C  
                                                   i2l2612 1026  
                                                   i2l2620 0F3E  
                                                   i2l1708 12DC  
                                                   i2l1652 11A6  
                                                   i2l1660 128E  
                                                   i2l2606 105C  
                                                   i2l2614 1036  
                                                   i2l2622 0F4E  
                                                   i2l2630 1010  
                                                   i2l2710 0920  
                                                   i2l1670 1272  
                                                   i2l2560 0DF6  
                                                   i2l1680 12A8  
                                                   i2l1656 129C  
                                                   i2l1760 1296  
                                                   i2l2712 0924  
                                                   i2l2704 08F6  
                                                   i2l1664 1282  
                                                   i2l1672 1276  
                                                   i2l2800 0CB2  
                                                   i2l2562 0E0A  
                                                   i2l2554 0DC0  
                                                   i2l2650 10AC  
                                                   i2l2618 0F18  
                                                   i2l2626 0FEE  
                                                   i2l2634 0FC8  
                                                   i2l2642 0FA2  
                                                   i2l2722 0938  
                                                   i2l2706 0904  
                                                   i2l1658 128A  
                                                   i2l1666 1286  
                                                   i2l1690 1266  
                                                   i2l1682 125A  
                                                   i2l2802 0CC0  
                                                   i2l2556 0DD2  
                                                   i2l2564 11BA  
                                                   i2l2580 1126  
                                                   i2l2652 10BE  
                                                   i2l2628 1000  
                                                   i2l2636 0FDA  
                                                   i2l2644 0FB4  
                                                   i2l2660 0F04  
                                                   i2l1676 12D4  
                                                   i2l2740 0AB4  
                                                   i2l1764 120C  
                                                   i2l1772 11FE  
                                                   i2l2708 0908  
                                                   i2l1844 1238  
                                                   i2l1684 125E  
                                                   i2l2804 0CD4  
                                                   i2l1598 12E8  
                                                   i2l2558 0DE6  
                                                   i2l2582 112E  
                                                   i2l2654 10CE  
                                                   i2l2590 10A8  
                                                   i2l2638 0FEA  
                                                   i2l2646 0FC4  
                                                   i2l2662 0F14  
                                                   i2l1694 12D8  
                                                   i2l2742 0AB8  
                                                   i2l2734 0AA6  
                                                   i2l1758 1292  
                                                   i2l1766 120E  
                                                   i2l1774 1200  
                                                   i2l2670 0836  
                                                   i2l2718 0930  
                                                   i2l1846 123A  
                                                   i2l1926 12CC  
                                                   i2l2806 0CD8  
                                                   i2l2584 1136  
                                                   i2l2736 0AAC  
                                                   i2l2752 0AC6  
                                                   i2l1768 1216  
                                                   i2l1776 1208  
                                                   i2l2728 0940  
                                                   i2l1848 123E  
                                                   i2l1696 127A  
                                                   i2l1688 1262  
                                                   i2l2760 0B88  
                                                   i2l2578 1118  
                                                   i2l2586 1086  
                                                   i2l2594 1060  
                                                   i2l2658 0EDE  
                                                   i2l2746 0ABE  
                                                   i2l2690 08C2  
                                                   i2l2682 085E  
                                                   i2l2674 084E  
                                                   i2l1698 127E  
                                                   i2l1882 1252  
                                                   i2l2762 0B90  
                                                   i2l2588 1098  
                                                   i2l2596 1072  
                                                   i2l2692 08D4  
                                                   i2l1876 126A  
                                                   i2l1884 1256  
                                                   i2l2772 0BA0  
                                                   i2l2598 1082  
                                                   i2l2694 08EC  
                                                   i2l2678 0856  
                                                   i2l1878 126E  
                                                   i2l3902 0BD4  
                                                   i2l2766 0B98  
                                                   i2l2758 0B86  
                                                   i2l2696 08F2  
                                                   i2l2688 0866  
                                                   i2l3904 0970  
                                                   i2l2880 12A2  
                                                   i2l3906 089A  
                                                   i2l2890 0088  
                                                   i2l2882 0032  
                                                   i2l3908 0AF6  
                                                   i2l2884 0040  
                                                   i2l2798 0CAE  
                                                   i2l2886 004E  
                                                   i2l2888 005C  
                                                   _OSCCON 0FD3  
                                        ?_I2C1_MasterClose 0001  
                                 rdBlkRegCompleteHandler@p 0008  
                                  ??_I2C1_MasterDisableIrq 0017  
                                        ?_I2C1_MasterStart 0001  
                                        ?_I2C1_MasterWrite 0001  
                                       ??_I2C1_MasterClose 0017  
                                         _I2C1_DO_TX_EMPTY 0AA6  
                                     lcd_writemessage@line 0067  
                                       ??_I2C1_MasterStart 0017  
                                       ??_I2C1_MasterWrite 0019  
                                         __end_of_lcd_busy 1238  
                                        ??_i2c_writeNBytes 0023  
                                                   _lcd_go 0B1E  
                                                   clear_0 117E  
                                                   isa$std 0001  
                                 ??_I2C1_DO_SEND_ADR_WRITE 0002  
                                        ?_I2C1_SetCallback 0017  
                                 __end_of_lcd_writemessage 0EA2  
                                   ??_I2C1_DO_RX_NACK_STOP 0001  
                         __end_of_I2C1_SetInterruptHandler 122E  
                                    _I2C1_DO_SEND_ADR_READ 120C  
                            ?_I2C1_SetDataCompleteCallback 0005  
                                       ??_I2C1_SetCallback 001A  
                                             __mediumconst 0000  
                                                   tblptrh 0FF7  
                                                   tblptrl 0FF6  
                                                   tblptru 0FF8  
                 I2C1_SetInterruptHandler@InterruptHandler 0017  
                                  _I2C1_DO_RX_NACK_RESTART 125A  
                                    i2_I2C1_MasterClearIrq 12CC  
                                         ?_lcd_writeletter 0001  
                                        _SYSTEM_Initialize 11CE  
                           I2C1_SetDataCompleteCallback@cb 0005  
                                               __accesstop 0060  
                                  __end_of__initialization 1184  
                          I2C1_MasterOperation@returnValue 0018  
                                       ?_SYSTEM_Initialize 0001  
                                            ___rparam_used 0001  
                                  ??_pcf8574_write_wEnable 0024  
                                  _rdBlkRegCompleteHandler 0F18  
                                           __pcstackCOMRAM 0001  
                                      ??_SYSTEM_Initialize 0017  
                         __end_of_I2C1_MasterEnableRestart 12EC  
                             ??_I2C1_DO_SEND_RESTART_WRITE 0001  
                                  ??_I2C1_MasterSendTxData 0001  
                                    __end_of_I2C1_DO_RESET 125A  
                                __end_of_SYSTEM_Initialize 11E0  
                            __end_of_rd2RegCompleteHandler 1060  
                                     I2C1_Open@returnValue 001A  
                            __end_of_wr2RegCompleteHandler 103A  
                               i2I2C1_SetBuffer@bufferSize 0003  
                                    _rd1RegCompleteHandler 1060  
                                        _I2C1_DO_SEND_STOP 1272  
                                    _wr1RegCompleteHandler 1086  
                                       ?_I2C1_DO_SEND_STOP 0001  
                                          _I2C1_MasterOpen 115A  
                                                  ?_lcd_go 0062  
                                          _I2C1_MasterStop 12E4  
                                          _I2C1_Initialize 11E0  
                                   ?_I2C1_DO_SEND_ADR_READ 0001  
                                      ??_I2C1_DO_SEND_STOP 0001  
                                               _lcd_delete 1242  
                                        _I2C1_MasterIsNack 11A6  
                                                  _OSCCON2 0FD2  
                                                _I2C1_Open 0A2A  
__end_of_rdBlkRegCompleteHandler@i2c1_master_example$F1600 0F18  
        _rdBlkRegCompleteHandler@i2c1_master_example$F1600 0EDE  
  __end_of_rd1RegCompleteHandler@i2c1_master_example$F1566 1014  
          _rd1RegCompleteHandler@i2c1_master_example$F1566 0FEE  
  __end_of_wr1RegCompleteHandler@i2c1_master_example$F1583 0FC8  
          _wr1RegCompleteHandler@i2c1_master_example$F1583 0FA2  
  __end_of_rd2RegCompleteHandler@i2c1_master_example$F1577 0FEE  
          _rd2RegCompleteHandler@i2c1_master_example$F1577 0FC8  
  __end_of_wr2RegCompleteHandler@i2c1_master_example$F1589 10D2  
          _wr2RegCompleteHandler@i2c1_master_example$F1589 10AC  
                                ??_I2C1_DO_RX_NACK_RESTART 0001  
                                                  i2u12_40 11B6  
                                                  i2u12_41 11B0  
                                                  i2u12_46 11B8  
                                                  i2u70_40 084A  
                                                  i2u70_41 0846  
                                                  _OSCTUNE 0F9B  
                                                  i2u72_40 08EC  
                                                  i2u71_48 0874  
                                                  i2u72_41 08E8  
                                                  i2u71_49 0888  
                                                  i2u73_40 0920  
                                                  i2u81_40 0040  
                                                  i2u73_41 091C  
                                                  i2u81_41 003C  
                                                  i2u66_40 0DD2  
                                                  i2u82_40 004E  
                                                  i2u66_41 0DCE  
                                                  i2u82_41 004A  
                                                  i2u74_48 094A  
                                                  i2u83_40 005C  
                                                  i2u74_49 095E  
                                                  i2u83_41 0058  
                                        _I2C1_MasterSetIrq 12D0  
                                                  i2u75_48 0AD0  
                                                  i2u75_49 0AE4  
                                                  i2u69_40 1126  
                                                  i2u76_48 0BAE  
                                                  i2u77_40 0CC0  
                                                  i2u85_40 0088  
                                                  i2u84_48 0062  
                                                  i2u69_41 1122  
                                                  i2u76_49 0BC2  
                                                  i2u77_41 0CBC  
                                                  i2u85_41 0084  
                                                  i2u84_49 0076  
                                                  i2u78_40 0CD4  
                                                  i2u86_40 0096  
                                                  i2u78_41 0CD0  
                                                  i2u86_41 0092  
                                                  i2u79_48 0CF0  
                                                  i2u79_49 0D08  
                                                  _SSP1ADD 0FC8  
                                                  _SSP1BUF 0FC9  
                                 _I2C1_SetInterruptHandler 1224  
                                       ?_I2C1_MasterIsNack 0001  
                                   ?i2_I2C1_MasterClearIrq 0001  
                               ?_I2C1_DO_SEND_RESTART_READ 0001  
                                    lcd_writeletter@letter 0061  
                                                ?_lcd_busy 0001  
                           ??_I2C1_SetDataCompleteCallback 0008  
                                       ?_I2C1_MasterSetIrq 0001  
                                       _i2c1_fsmStateTable 0801  
                                      ??_I2C1_MasterIsNack 0001  
                                __end_of_I2C1_DO_SEND_STOP 127A  
                                ??_rdBlkRegCompleteHandler 0009  
                                       I2C1_SetCallback@cb 0017  
                                      ??_I2C1_MasterSetIrq 0001  
                                                  __Hparam 0000  
                                                  __Lparam 0000  
                                        __end_of_lcd_start 0C50  
                                             __psmallconst 0800  
                                                  __pcinit 1178  
                                            ?_I2C1_DO_IDLE 0001  
                                            ?_I2C1_DO_RCEN 0001  
                                                  __ramtop 0800  
                                   i2c_writeNBytes@address 0023  
                                                  __ptext0 0998  
                                                  __ptext1 0E60  
                                                  __ptext2 0E16  
                                                  __ptext3 0B1E  
                                                  __ptext4 0BEC  
                                                  __ptext5 121A  
                                                  __ptext6 113A  
                                                  __ptext7 1242  
                                                  __ptext8 0C50  
                                                  __ptext9 0F7C  
                                 _I2C1_MasterEnableRestart 12E8  
                                __end_of_I2C1_MasterIsNack 11BA  
                             ?_I2C1_SetAddressNackCallback 001B  
                                    _OSCILLATOR_Initialize 11F0  
                                __end_of_I2C1_MasterSetIrq 12D4  
                                 __end_of_I2C1_DO_TX_EMPTY 0B1E  
                                 ??_PIN_MANAGER_Initialize 0017  
                                               ?_I2C1_Open 0001  
                                 ?_I2C1_CallbackReturnStop 0008  
                                               ??_lcd_busy 0017  
                        __end_of_I2C1_DO_SEND_RESTART_READ 1292  
                                     end_of_initialization 1184  
                               __end_of_I2C1_MasterSendAck 12AE  
                                      _I2C1_MasterClearIrq 12C4  
                                            __Lmediumconst 0000  
                               __end_of_I2C1_MasterStartRx 12DC  
                                   ?_rd1RegCompleteHandler 0008  
                                          _i2c_writeNBytes 0D0C  
                                   _I2C1_DO_SEND_ADR_WRITE 11FE  
                             __end_of_I2C1_DO_SEND_RESTART 1282  
                                  __end_of_I2C1_MasterOpen 1178  
                                   ?_wr1RegCompleteHandler 0008  
                                  __end_of_I2C1_MasterStop 12E8  
                                  __end_of_I2C1_Initialize 11F0  
                                ?_I2C1_CallbackReturnReset 0008  
                            __end_of_I2C1_MasterDisableIrq 12C0  
                                              _I2C1_Status 0027  
                                        ??_lcd_lighting_ac 0027  
                                                  postdec2 0FDD  
                                                  postinc0 0FEE  
                                                  postinc2 0FDE  
                                      _I2C1_MasterSendNack 12AE  
                      __end_of_I2C1_SetAddressNackCallback 11A6  
                              _I2C1_SetAddressNackCallback 1192  
                                     ?_I2C1_MasterClearIrq 0001  
                                           ??_I2C1_DO_IDLE 0001  
                                           ??_I2C1_DO_RCEN 0001  
                       __end_of_I2C1_DO_SEND_RESTART_WRITE 128A  
                               _I2C1_DO_SEND_RESTART_WRITE 1282  
                                                _PORTCbits 0F82  
                          __end_of_rdBlkRegCompleteHandler 0F52  
                                        ?_lcd_writemessage 0065  
                                              ?_lcd_delete 0001  
                            ??_I2C1_SetAddressNackCallback 001F  
                                                _TRISCbits 0F94  
                          I2C1_SetDataCompleteCallback@ptr 0007  
                                       ??_lcd_writemessage 0027  
                                               lcd_go@line 0063  
                                               lcd_go@temp 0064  
                           I2C1_CallbackReturnReset@funPtr 0008  
                                     ?_I2C1_MasterSendNack 0001  
                                            _pcf8574_write 113A  
                                         i2_I2C1_SetBuffer 1118  
                                            ??_lcd_command 0060  
                            __end_of_pcf8574_write_wEnable 0FA2  
                             __end_of_INTERRUPT_Initialize 12CC  
                                    ??_I2C1_MasterClearIrq 0017  
                                           _I2C1_DO_RX_ACK 126A  
                                        pcf8574_write@data 0026  
                                           __end_of_lcd_go 0B86  
                                   ?_OSCILLATOR_Initialize 0001  
                          __end_of_I2C1_CallbackReturnStop 12E4  
                            __end_of_I2C1_MasterSendTxData 12A2  
                                      start_initialization 1178  
                                              ??_I2C1_Open 0019  
                                  lcd_writemessage@message 0066  
                                    ??_I2C1_MasterSendNack 0001  
                                           ?_pcf8574_write 0001  
                                  __end_of_i2c_writeNBytes 0D66  
                                    i2I2C1_SetCallback@idx 0004  
                                    i2I2C1_SetCallback@ptr 0003  
                         pcf8574_write_wEnable@writeBuffer 0024  
                                   rd1RegCompleteHandler@p 0008  
                                       lcd_command@command 0061  
                                 I2C1_SetBuffer@bufferSize 0019  
                                         ?_I2C1_MasterOpen 0001  
                                         ?_I2C1_MasterStop 0001  
                                         ?_I2C1_Initialize 0001  
                                   __end_of_I2C1_DO_RX_ACK 1272  
                                   wr1RegCompleteHandler@p 0008  
                                  ??_I2C1_DO_SEND_ADR_READ 0001  
                                      __end_of_lcd_command 0CAE  
                                                 ??_lcd_go 0027  
                               ??_I2C1_SetInterruptHandler 0019  
                                         I2C1_Open@address 0019  
                                  ??i2_I2C1_MasterClearIrq 0001  
                                              __pbssCOMRAM 0027  
                                     _I2C1_DO_SEND_RESTART 127A  
                                            __pcstackBANK0 0060  
                                   i2I2C1_SetBuffer@buffer 0001  
                              ??_I2C1_DO_SEND_RESTART_READ 0001  
                                     __end_of_I2C1_DO_IDLE 129A  
                                     __end_of_I2C1_DO_RCEN 1242  
                            I2C1_SetAddressNackCallback@cb 001B  
                                    _rd2RegCompleteHandler 103A  
                                   _PIN_MANAGER_Initialize 10D2  
                                    _wr2RegCompleteHandler 1014  
                                   _MSSP1_InterruptHandler 0045  
                               ??_I2C1_MasterEnableRestart 0001  
                                                __pintcode 0008  
                                           _I2C1_MasterFsm 0CAE  
                                           _I2C1_MasterIsr 12A2  
                                          ?_I2C1_DO_RX_ACK 0001  
                                         _I2C1_MasterClose 12C0  
                                           _I2C1_SetBuffer 10F6  
                             ??_INTERRUPT_InterruptManager 000D  
                                                _lcd_start 0BEC  
                                         _I2C1_MasterStart 12B8  
                                         _I2C1_MasterWrite 124A  
                                              __smallconst 0800  
                                    ?_I2C1_DO_SEND_RESTART 0001  
                                          ??_pcf8574_write 0024  
                                        ?_I2C1_DO_TX_EMPTY 0001  
                         __end_of_I2C1_CallbackReturnReset 12E0  
                                         ?_i2c_writeNBytes 001F  
                                       ??_I2C1_DO_TX_EMPTY 000A  
                                  ??_rd1RegCompleteHandler 0009  
                                  ?_I2C1_DO_SEND_ADR_WRITE 0001  
                                I2C1_MasterSendTxData@data 0001  
                                          _lcd_lighting_ac 121A  
                                     _INTERRUPT_Initialize 12C8  
                                  ??_wr1RegCompleteHandler 0009  
                                         _I2C1_SetCallback 0D66  
                                               _I2C1_DO_RX 08F6  
                                               _I2C1_DO_TX 0836  
                                                 _PIE1bits 0F9D  
                                                 _PIE2bits 0FA0  
                                              _lcd_command 0C50  
                                               _I2C1_Close 0F52  
                                   __end_of_I2C1_MasterFsm 0D0C  
                                   __end_of_I2C1_MasterIsr 12A8  
                             __end_of_I2C1_MasterEnableIrq 12B8  
                             __end_of_I2C1_MasterGetRxData 12D8  
                                                 _PIR1bits 0F9E  
                                                 _PIR2bits 0FA1  
                                                 _RCONbits 0FD0  
                                       _I2C1_MasterSendAck 12A8  
                                _I2C1_DO_SEND_RESTART_READ 128A  
                                                 _SSP1CON1 0FC6  
                                                 _SSP1CON2 0FC5  
                                   __end_of_I2C1_SetBuffer 1118  
                                                 _SSP1STAT 0FC7  
                     __end_of_I2C1_SetDataCompleteCallback 11CE  
                             _I2C1_SetDataCompleteCallback 11BA  
                                       _I2C1_MasterStartRx 12D8  
                              ?_I2C1_DO_SEND_RESTART_WRITE 0001  
                                        ??_lcd_writeletter 0060  
                                      ?_I2C1_MasterSendAck 0001  
                                               ?_lcd_start 0001  
                                 ?_I2C1_DO_RX_NACK_RESTART 0001  
                                 __end_ofi2_I2C1_SetBuffer 113A  
                                             ??_lcd_delete 0027  
                                      ?_I2C1_MasterStartRx 0001  
                             __end_of_I2C1_DO_ADDRESS_NACK 0BEC  
                                     _display_cursor_blink 0047  
                           __end_of_I2C1_DO_SEND_ADR_WRITE 120C  
                                            _I2C1_DO_RESET 1252  
                                              _INTCON2bits 0FF1  
                               __end_ofi2_I2C1_SetCallback 0E16  
                                    ?_INTERRUPT_Initialize 0001  
                                    I2C1_Close@returnValue 0017  
                                 ?_rdBlkRegCompleteHandler 0008  
                                      I2C1_SetCallback@idx 001A  
                      ?_rd1RegCompleteHandler@xxtofl$F2262 0008  
                      ?_wr1RegCompleteHandler@xxtofl$F2254 0008  
                                      I2C1_SetCallback@ptr 0019  
                     ??_rd1RegCompleteHandler@xxtofl$F2264 0009  
                     ??_wr1RegCompleteHandler@xxtofl$F2256 0009  
                    ?_rdBlkRegCompleteHandler@xxtofl$F2280 0008  
                   ??_rdBlkRegCompleteHandler@xxtofl$F2282 0009  
                                   lcd_writemessage@column 0065  
                                     ??_I2C1_MasterSendAck 0001  
                                   ?_rd2RegCompleteHandler 0008  
                                     i2I2C1_SetCallback@cb 0001  
                             __end_of_I2C1_MasterOperation 0EDE  
                                   ?_wr2RegCompleteHandler 0008  
                                     ??_I2C1_MasterStartRx 0001  
                                                 __Hrparam 0000  
                                          ?_I2C1_MasterFsm 0001  
                                          ?_I2C1_MasterIsr 0001  
                                                 __Lrparam 0000  
                                       __end_of_lcd_delete 124A  
                                      i2c_writeNBytes@data 001F  
     rdBlkRegCompleteHandler@i2c1_master_example$F1600@ptr 0008  
                                    _I2C1_MasterDisableIrq 12BC  
       rd1RegCompleteHandler@i2c1_master_example$F1566@ptr 0008  
       wr1RegCompleteHandler@i2c1_master_example$F1583@ptr 0008  
                                  ??_OSCILLATOR_Initialize 0017  
       rd2RegCompleteHandler@i2c1_master_example$F1577@ptr 0008  
                                          ?_I2C1_SetBuffer 0017  
       wr2RegCompleteHandler@i2c1_master_example$F1589@ptr 0008  
                                   ??_I2C1_DO_SEND_RESTART 0001  
                                  __end_of_lcd_lighting_ac 1224  
                                           ?_I2C1_DO_RESET 0001  
                                                 __ptext10 0D0C  
                                                 __ptext11 10F6  
                                                 __ptext20 12B8  
                                                 __ptext12 1192  
                                                 __ptext21 0F52  
                                                 __ptext13 0D66  
                                                 __ptext30 11E0  
                                                 __ptext22 12BC  
                                                 __ptext14 0A2A  
                                                 __ptext23 12C0  
                                                 __ptext15 1224  
                                                 __ptext40 1272  
                                                 __ptext32 12A2  
                                                 __ptext24 12C4  
                                                 __ptext16 115A  
                                                 __ptext41 127A  
                                                 __ptext33 0CAE  
                                                 __ptext25 122E  
                                                 __ptext17 12B4  
                                                 __ptext50 0AA6  
                                                 __ptext42 1282  
                                                 __ptext34 12CC  
                                                 __ptext26 11CE  
                                                 __ptext18 124A  
                                                 __ptext51 12D0  
                                                 __ptext43 128A  
                                                 __ptext35 0B86  
                                                 __ptext27 10D2  
                                                 __ptext19 0EA2  
                                                 __ptext60 0FC8  
                                                 __ptext52 11A6  
                                                 __ptext44 1238  
                                                 __ptext36 1252  
                                                 __ptext28 11F0  
                                                 __ptext61 0FEE  
                                                 __ptext53 129A  
                                                 __ptext45 08F6  
                                                 __ptext37 125A  
                                                 __ptext29 12C8  
                                                 __ptext70 1118  
                                                 __ptext62 12DC  
                                                 __ptext54 12A8  
                                                 __ptext46 0836  
                                                 __ptext38 1262  
                                                 __ptext71 11BA  
                                                 __ptext63 12E0  
                                                 __ptext55 12D4  
                                                 __ptext47 11FE  
                                                 __ptext39 126A  
                                                 __ptext72 0DBE  
                                                 __ptext64 0F18  
                                                 __ptext56 12AE  
                                                 __ptext48 120C  
                                                 __ptext73 12E4  
                                                 __ptext65 1014  
                                                 __ptext57 12D8  
                                                 __ptext49 1292  
                                                 __ptext74 12E8  
                                                 __ptext66 103A  
                                                 __ptext58 0EDE  
                                                 __ptext67 1060  
                                                 __ptext59 0FA2  
                                                 __ptext68 1086  
                                                 __ptext69 10AC  
                                             _SSP1CON1bits 0FC6  
                                             _SSP1CON2bits 0FC5  
                                                 _lcd_busy 122E  
                                 _I2C1_CallbackReturnReset 12DC  
                                                 _pcf_port 0048  
                                              ?_I2C1_DO_RX 0001  
                                              ?_I2C1_DO_TX 0001  
                              __end_of_I2C1_MasterClearIrq 12C8  
                             __end_of_I2C1_DO_RX_NACK_STOP 126A  
                                              ?_I2C1_Close 0001  
                                                 isa$xinst 0000  
                                                 int$flags 0049  
                          __end_of_I2C1_DO_RX_NACK_RESTART 1262  
                                 I2C1_MasterOperation@read 0017  
                                    _pcf8574_write_wEnable 0F7C  
                       __end_of_INTERRUPT_InterruptManager 00C6  
                               _INTERRUPT_InterruptManager 0008  
                                             _SSP1STATbits 0FC7  
                            __end_of_I2C1_DO_SEND_ADR_READ 121A  
                                             _I2C1_DO_IDLE 1292  
                                             _I2C1_DO_RCEN 1238  
                                              ??_lcd_start 0062  
                              __end_of_I2C1_MasterSendNack 12B4  
                                               _INTCONbits 0FF2  
                           I2C1_SetAddressNackCallback@ptr 001D  
                                     _I2C1_MasterEnableIrq 12B4  
                                       i2c_writeNBytes@len 0021  
                                     _I2C1_MasterGetRxData 12D4  
                            __end_ofi2_I2C1_MasterClearIrq 12D0  
                                    _I2C1_MasterSendTxData 129A  
                                   ??_INTERRUPT_Initialize 0017  
                                                 intlevel2 0000  
                                 __end_of_I2C1_MasterClose 12C4  
                                   rd2RegCompleteHandler@p 0008  
                                  ?_PIN_MANAGER_Initialize 0001  
                                 __end_of_I2C1_MasterStart 12BC  
                                 __end_of_I2C1_MasterWrite 1252  
                                         ??_I2C1_DO_RX_ACK 0001  
                                  _I2C1_CallbackReturnStop 12E0  
                                     _I2C1_DO_ADDRESS_NACK 0B86  
                                   ?_I2C1_MasterDisableIrq 0001  
                                   wr2RegCompleteHandler@p 0008  
                                 __end_of_I2C1_SetCallback 0DBE  
                                          ??_I2C1_DO_RESET 0001  
                                     _I2C1_MasterOperation 0EA2  
                                         ?_lcd_lighting_ac 0001  
                                    ?_I2C1_MasterEnableIrq 0001  
                                    ?_I2C1_MasterGetRxData 0001  
                           __end_of_PIN_MANAGER_Initialize 10F6  
                                ?_I2C1_SetInterruptHandler 0017  
                            __end_of_rd1RegCompleteHandler 1086  
                                         _lcd_writemessage 0E60  
                            __end_of_wr1RegCompleteHandler 10AC  
                                             ?_lcd_command 0001  
                                          _lcd_writeletter 0E16  
                                    ?_I2C1_DO_ADDRESS_NACK 0001  
