

Microchip MPLAB XC8 Assembler V2.50 build 20240725155939 
                                                                                               Tue Apr 22 11:31:34 2025

Microchip MPLAB XC8 C Compiler v2.50 (Free license) build 20240725155939 Og1 
     1                           	processor	18F25K50
     2                           	fnconf	rparam,??,?,0
     3                           	pagewidth 120
     4                           	opt	flic
     5                           	psect	smallconst,global,reloc=2,class=SMALLCONST,space=0,delta=1,noexec
     6                           	psect	cinit,global,reloc=2,class=CODE,space=0,delta=1
     7                           	psect	bssCOMRAM,global,class=COMRAM,space=1,delta=1,lowdata,noexec
     8                           	psect	bssBANK0,global,class=BANK0,space=1,delta=1,lowdata,noexec
     9                           	psect	cstackBANK0,global,class=BANK0,space=1,delta=1,lowdata,noexec
    10                           	psect	cstackCOMRAM,global,class=COMRAM,space=1,delta=1,lowdata,noexec
    11                           	psect	text0,global,reloc=2,class=CODE,space=0,delta=1
    12                           	psect	text1,global,reloc=2,class=CODE,space=0,delta=1,group=3
    13                           	psect	text2,global,reloc=2,class=CODE,space=0,delta=1,group=1
    14                           	psect	text3,global,reloc=2,class=CODE,space=0,delta=1,group=1
    15                           	psect	text4,global,reloc=2,class=CODE,space=0,delta=1,group=3
    16                           	psect	text5,global,reloc=2,class=CODE,space=0,delta=1,group=3
    17                           	psect	text6,global,reloc=2,class=CODE,space=0,delta=1,group=3
    18                           	psect	text7,global,reloc=2,class=CODE,space=0,delta=1,group=2
    19                           	psect	text8,global,reloc=2,class=CODE,space=0,delta=1,group=2
    20                           	psect	text9,global,reloc=2,class=CODE,space=0,delta=1
    21                           	psect	text10,global,reloc=2,class=CODE,space=0,delta=1
    22                           	psect	text11,global,reloc=2,class=CODE,space=0,delta=1
    23                           	psect	text12,global,reloc=2,class=CODE,space=0,delta=1
    24                           	psect	text13,global,reloc=2,class=CODE,space=0,delta=1
    25                           	psect	intcode,global,reloc=2,class=CODE,space=0,delta=1
    26                           	psect	text15,global,reloc=2,class=CODE,space=0,delta=1
    27                           	psect	text16,global,reloc=2,class=CODE,space=0,delta=1,inline
    28                           	psect	text17,global,reloc=2,class=CODE,space=0,delta=1,inline
    29                           	psect	text18,global,reloc=2,class=CODE,space=0,delta=1
    30                           	psect	text19,global,reloc=2,class=CODE,space=0,delta=1
    31                           	psect	text20,global,reloc=2,class=CODE,space=0,delta=1
    32                           	psect	text21,global,reloc=2,class=CODE,space=0,delta=1
    33                           	psect	text22,global,reloc=2,class=CODE,space=0,delta=1
    34                           	psect	text23,global,reloc=2,class=CODE,space=0,delta=1
    35                           	psect	text24,global,reloc=2,class=CODE,space=0,delta=1
    36                           	psect	text25,global,reloc=2,class=CODE,space=0,delta=1
    37                           	psect	text26,global,reloc=2,class=CODE,space=0,delta=1
    38                           	psect	text27,global,reloc=2,class=CODE,space=0,delta=1
    39                           	psect	text28,global,reloc=2,class=CODE,space=0,delta=1
    40                           	psect	text29,global,reloc=2,class=CODE,space=0,delta=1
    41                           	psect	text30,global,reloc=2,class=CODE,space=0,delta=1
    42                           	psect	text31,global,reloc=2,class=CODE,space=0,delta=1
    43                           	psect	text32,global,reloc=2,class=CODE,space=0,delta=1
    44                           	psect	text33,global,reloc=2,class=CODE,space=0,delta=1
    45                           	psect	text34,global,reloc=2,class=CODE,space=0,delta=1,inline
    46                           	psect	text35,global,reloc=2,class=CODE,space=0,delta=1,inline
    47                           	psect	text36,global,reloc=2,class=CODE,space=0,delta=1,inline
    48                           	psect	text37,global,reloc=2,class=CODE,space=0,delta=1,inline
    49                           	psect	text38,global,reloc=2,class=CODE,space=0,delta=1,inline
    50                           	psect	text39,global,reloc=2,class=CODE,space=0,delta=1,inline
    51                           	psect	text40,global,reloc=2,class=CODE,space=0,delta=1,inline
    52                           	psect	text41,global,reloc=2,class=CODE,space=0,delta=1
    53                           	psect	text42,global,reloc=2,class=CODE,space=0,delta=1
    54                           	psect	text43,global,reloc=2,class=CODE,space=0,delta=1
    55                           	psect	text44,global,reloc=2,class=CODE,space=0,delta=1
    56                           	psect	text45,global,reloc=2,class=CODE,space=0,delta=1
    57                           	psect	text46,global,reloc=2,class=CODE,space=0,delta=1
    58                           	psect	text47,global,reloc=2,class=CODE,space=0,delta=1
    59                           	psect	text48,global,reloc=2,class=CODE,space=0,delta=1
    60                           	psect	text49,global,reloc=2,class=CODE,space=0,delta=1
    61                           	psect	text50,global,reloc=2,class=CODE,space=0,delta=1
    62                           	psect	text51,global,reloc=2,class=CODE,space=0,delta=1
    63                           	psect	text52,global,reloc=2,class=CODE,space=0,delta=1
    64                           	psect	text53,global,reloc=2,class=CODE,space=0,delta=1
    65                           	psect	text54,global,reloc=2,class=CODE,space=0,delta=1
    66                           	psect	text55,global,reloc=2,class=CODE,space=0,delta=1
    67                           	psect	text56,global,reloc=2,class=CODE,space=0,delta=1,inline
    68                           	psect	text57,global,reloc=2,class=CODE,space=0,delta=1,inline
    69                           	psect	intsave_regs,global,class=BIGRAM,space=1,delta=1,noexec
    70                           	psect	rparam,global,class=COMRAM,space=1,delta=1,noexec
    71                           	psect	temp,global,ovrld,common,class=COMRAM,space=1,delta=1,lowdata
    72                           	psect	config,global,abs,ovrld,class=CONFIG,space=4,delta=1,noexec
    73   000000                     
    74                           ; Generated 12/10/2023 GMT
    75                           ; 
    76                           ; Copyright © 2023, Microchip Technology Inc. and its subsidiaries ("Microchip")
    77                           ; All rights reserved.
    78                           ; 
    79                           ; This software is developed by Microchip Technology Inc. and its subsidiaries ("Microch
      +                          ip").
    80                           ; 
    81                           ; Redistribution and use in source and binary forms, with or without modification, are
    82                           ; permitted provided that the following conditions are met:
    83                           ; 
    84                           ;     1. Redistributions of source code must retain the above copyright notice, this lis
      +                          t of
    85                           ;        conditions and the following disclaimer.
    86                           ; 
    87                           ;     2. Redistributions in binary form must reproduce the above copyright notice, this 
      +                          list
    88                           ;        of conditions and the following disclaimer in the documentation and/or other
    89                           ;        materials provided with the distribution. Publication is not required when
    90                           ;        this file is used in an embedded application.
    91                           ; 
    92                           ;     3. Microchip's name may not be used to endorse or promote products derived from th
      +                          is
    93                           ;        software without specific prior written permission.
    94                           ; 
    95                           ; THIS SOFTWARE IS PROVIDED BY MICROCHIP "AS IS" AND ANY EXPRESS OR IMPLIED WARRANTIES,
    96                           ; INCLUDING, BUT NOT LIMITED TO, THE IMPLIED WARRANTIES OF MERCHANTABILITY AND FITNESS F
      +                          OR
    97                           ; PURPOSE ARE DISCLAIMED.  IN NO EVENT SHALL MICROCHIP BE LIABLE FOR ANY DIRECT, INDIREC
      +                          T,
    98                           ; INCIDENTAL, SPECIAL, EXEMPLARY, OR CONSEQUENTIAL DAMAGES (INCLUDING BUT NOT LIMITED TO
    99                           ; PROCUREMENT OF SUBSTITUTE GOODS OR SERVICES; LOSS OF USE, DATA OR PROFITS; OR BUSINESS
   100                           ; INTERRUPTION) HOWSOEVER CAUSED AND ON ANY THEORY OF LIABILITY, WHETHER IN CONTRACT, ST
      +                          RICT
   101                           ; LIABILITY, OR TORT (INCLUDING NEGLIGENCE OR OTHERWISE) ARISING IN ANY WAY OUT OF THE U
      +                          SE OF
   102                           ; THIS SOFTWARE, EVEN IF ADVISED OF THE POSSIBILITY OF SUCH DAMAGE.
   103                           ; 
   104                           ; 
   105                           ; Code-generator required, PIC18F25K50 Definitions
   106                           ; 
   107                           ; SFR Addresses
   108   000FE0                     bsr             equ	4064
   109   000FE9                     fsr0            equ	4073
   110   000FEA                     fsr0h           equ	4074
   111   000FE9                     fsr0l           equ	4073
   112   000FE1                     fsr1            equ	4065
   113   000FE2                     fsr1h           equ	4066
   114   000FE1                     fsr1l           equ	4065
   115   000FD9                     fsr2            equ	4057
   116   000FDA                     fsr2h           equ	4058
   117   000FD9                     fsr2l           equ	4057
   118   000FEF                     indf0           equ	4079
   119   000FE7                     indf1           equ	4071
   120   000FDF                     indf2           equ	4063
   121   000FF2                     intcon          equ	4082
   122   000000                     nvmcon          equ	0
   123   000FF9                     pcl             equ	4089
   124   000FFA                     pclath          equ	4090
   125   000FFB                     pclatu          equ	4091
   126   000FEB                     plusw0          equ	4075
   127   000FE3                     plusw1          equ	4067
   128   000FDB                     plusw2          equ	4059
   129   000FED                     postdec0        equ	4077
   130   000FE5                     postdec1        equ	4069
   131   000FDD                     postdec2        equ	4061
   132   000FEE                     postinc0        equ	4078
   133   000FE6                     postinc1        equ	4070
   134   000FDE                     postinc2        equ	4062
   135   000FEC                     preinc0         equ	4076
   136   000FE4                     preinc1         equ	4068
   137   000FDC                     preinc2         equ	4060
   138   000FF3                     prod            equ	4083
   139   000FF4                     prodh           equ	4084
   140   000FF3                     prodl           equ	4083
   141   000FD8                     status          equ	4056
   142   000FF5                     tablat          equ	4085
   143   000FF6                     tblptr          equ	4086
   144   000FF7                     tblptrh         equ	4087
   145   000FF6                     tblptrl         equ	4086
   146   000FF8                     tblptru         equ	4088
   147   000FFD                     tosl            equ	4093
   148   000FE8                     wreg            equ	4072
   149   000F57                     SRCON1          equ	3927	;# 
   150   000F58                     SRCON0          equ	3928	;# 
   151   000F59                     CCPTMRS         equ	3929	;# 
   152   000F5A                     VREGCON         equ	3930	;# 
   153   000F5B                     ANSELA          equ	3931	;# 
   154   000F5C                     ANSELB          equ	3932	;# 
   155   000F5D                     ANSELC          equ	3933	;# 
   156   000F60                     UCON            equ	3936	;# 
   157   000F61                     USTAT           equ	3937	;# 
   158   000F62                     UCFG            equ	3938	;# 
   159   000F63                     UADDR           equ	3939	;# 
   160   000F64                     UIE             equ	3940	;# 
   161   000F65                     UIR             equ	3941	;# 
   162   000F66                     UEIE            equ	3942	;# 
   163   000F67                     UEIR            equ	3943	;# 
   164   000F68                     UFRM            equ	3944	;# 
   165   000F68                     UFRML           equ	3944	;# 
   166   000F69                     UFRMH           equ	3945	;# 
   167   000F6A                     UEP0            equ	3946	;# 
   168   000F6B                     UEP1            equ	3947	;# 
   169   000F6C                     UEP2            equ	3948	;# 
   170   000F6D                     UEP3            equ	3949	;# 
   171   000F6E                     UEP4            equ	3950	;# 
   172   000F6F                     UEP5            equ	3951	;# 
   173   000F70                     UEP6            equ	3952	;# 
   174   000F71                     UEP7            equ	3953	;# 
   175   000F72                     UEP8            equ	3954	;# 
   176   000F73                     UEP9            equ	3955	;# 
   177   000F74                     UEP10           equ	3956	;# 
   178   000F75                     UEP11           equ	3957	;# 
   179   000F76                     UEP12           equ	3958	;# 
   180   000F77                     UEP13           equ	3959	;# 
   181   000F78                     UEP14           equ	3960	;# 
   182   000F79                     UEP15           equ	3961	;# 
   183   000F7A                     SLRCON          equ	3962	;# 
   184   000F7B                     VREFCON2        equ	3963	;# 
   185   000F7C                     VREFCON1        equ	3964	;# 
   186   000F7D                     VREFCON0        equ	3965	;# 
   187   000F7E                     PMD0            equ	3966	;# 
   188   000F7F                     PMD1            equ	3967	;# 
   189   000F80                     PORTA           equ	3968	;# 
   190   000F81                     PORTB           equ	3969	;# 
   191   000F82                     PORTC           equ	3970	;# 
   192   000F84                     PORTE           equ	3972	;# 
   193   000F85                     WPUB            equ	3973	;# 
   194   000F86                     IOCB            equ	3974	;# 
   195   000F87                     IOCC            equ	3975	;# 
   196   000F88                     CTMUICON        equ	3976	;# 
   197   000F89                     LATA            equ	3977	;# 
   198   000F8A                     LATB            equ	3978	;# 
   199   000F8B                     LATC            equ	3979	;# 
   200   000F8E                     CTMUCONL        equ	3982	;# 
   201   000F8E                     CTMUCON1        equ	3982	;# 
   202   000F8F                     CTMUCONH        equ	3983	;# 
   203   000F8F                     CTMUCON0        equ	3983	;# 
   204   000F90                     CCPR2           equ	3984	;# 
   205   000F90                     CCPR2L          equ	3984	;# 
   206   000F91                     CCPR2H          equ	3985	;# 
   207   000F92                     TRISA           equ	3986	;# 
   208   000F92                     DDRA            equ	3986	;# 
   209   000F93                     TRISB           equ	3987	;# 
   210   000F93                     DDRB            equ	3987	;# 
   211   000F94                     TRISC           equ	3988	;# 
   212   000F94                     DDRC            equ	3988	;# 
   213   000F97                     CCP2CON         equ	3991	;# 
   214   000F97                     ECCP2CON        equ	3991	;# 
   215   000F98                     CM1CON0         equ	3992	;# 
   216   000F99                     CM2CON0         equ	3993	;# 
   217   000F9A                     CM2CON1         equ	3994	;# 
   218   000F9B                     OSCTUNE         equ	3995	;# 
   219   000F9C                     HLVDCON         equ	3996	;# 
   220   000F9D                     PIE1            equ	3997	;# 
   221   000F9E                     PIR1            equ	3998	;# 
   222   000F9F                     IPR1            equ	3999	;# 
   223   000FA0                     PIE2            equ	4000	;# 
   224   000FA1                     PIR2            equ	4001	;# 
   225   000FA2                     IPR2            equ	4002	;# 
   226   000FA3                     PIE3            equ	4003	;# 
   227   000FA4                     PIR3            equ	4004	;# 
   228   000FA5                     IPR3            equ	4005	;# 
   229   000FA6                     EECON1          equ	4006	;# 
   230   000FA7                     EECON2          equ	4007	;# 
   231   000FA8                     EEDATA          equ	4008	;# 
   232   000FA9                     EEADR           equ	4009	;# 
   233   000FAB                     RCSTA1          equ	4011	;# 
   234   000FAB                     RCSTA           equ	4011	;# 
   235   000FAC                     TXSTA1          equ	4012	;# 
   236   000FAC                     TXSTA           equ	4012	;# 
   237   000FAD                     TXREG1          equ	4013	;# 
   238   000FAD                     TXREG           equ	4013	;# 
   239   000FAE                     RCREG1          equ	4014	;# 
   240   000FAE                     RCREG           equ	4014	;# 
   241   000FAF                     SPBRG1          equ	4015	;# 
   242   000FAF                     SPBRG           equ	4015	;# 
   243   000FB0                     SPBRGH1         equ	4016	;# 
   244   000FB0                     SPBRGH          equ	4016	;# 
   245   000FB1                     T3CON           equ	4017	;# 
   246   000FB2                     TMR3            equ	4018	;# 
   247   000FB2                     TMR3L           equ	4018	;# 
   248   000FB3                     TMR3H           equ	4019	;# 
   249   000FB4                     T3GCON          equ	4020	;# 
   250   000FB5                     ACTCON          equ	4021	;# 
   251   000FB5                     STCON           equ	4021	;# 
   252   000FB6                     ECCP1AS         equ	4022	;# 
   253   000FB7                     PWM1CON         equ	4023	;# 
   254   000FB7                     ECCP1DEL        equ	4023	;# 
   255   000FB8                     BAUDCON1        equ	4024	;# 
   256   000FB8                     BAUDCON         equ	4024	;# 
   257   000FB8                     BAUDCTL         equ	4024	;# 
   258   000FB9                     PSTR1CON        equ	4025	;# 
   259   000FBA                     T2CON           equ	4026	;# 
   260   000FBB                     PR2             equ	4027	;# 
   261   000FBC                     TMR2            equ	4028	;# 
   262   000FBD                     CCP1CON         equ	4029	;# 
   263   000FBD                     ECCP1CON        equ	4029	;# 
   264   000FBE                     CCPR1           equ	4030	;# 
   265   000FBE                     CCPR1L          equ	4030	;# 
   266   000FBF                     CCPR1H          equ	4031	;# 
   267   000FC0                     ADCON2          equ	4032	;# 
   268   000FC1                     ADCON1          equ	4033	;# 
   269   000FC2                     ADCON0          equ	4034	;# 
   270   000FC3                     ADRESL          equ	4035	;# 
   271   000FC4                     ADRESH          equ	4036	;# 
   272   000FC5                     SSP1CON2        equ	4037	;# 
   273   000FC5                     SSPCON2         equ	4037	;# 
   274   000FC6                     SSP1CON1        equ	4038	;# 
   275   000FC6                     SSPCON          equ	4038	;# 
   276   000FC6                     SSPCON1         equ	4038	;# 
   277   000FC7                     SSP1STAT        equ	4039	;# 
   278   000FC7                     SSPSTAT         equ	4039	;# 
   279   000FC8                     SSP1ADD         equ	4040	;# 
   280   000FC8                     SSPADD          equ	4040	;# 
   281   000FC9                     SSP1BUF         equ	4041	;# 
   282   000FC9                     SSPBUF          equ	4041	;# 
   283   000FCA                     SSP1MSK         equ	4042	;# 
   284   000FCA                     SSPMSK          equ	4042	;# 
   285   000FCB                     SSP1CON3        equ	4043	;# 
   286   000FCB                     SSPCON3         equ	4043	;# 
   287   000FCC                     T1GCON          equ	4044	;# 
   288   000FCD                     T1CON           equ	4045	;# 
   289   000FCE                     TMR1            equ	4046	;# 
   290   000FCE                     TMR1L           equ	4046	;# 
   291   000FCF                     TMR1H           equ	4047	;# 
   292   000FD0                     RCON            equ	4048	;# 
   293   000FD1                     WDTCON          equ	4049	;# 
   294   000FD2                     OSCCON2         equ	4050	;# 
   295   000FD3                     OSCCON          equ	4051	;# 
   296   000FD5                     T0CON           equ	4053	;# 
   297   000FD6                     TMR0            equ	4054	;# 
   298   000FD6                     TMR0L           equ	4054	;# 
   299   000FD7                     TMR0H           equ	4055	;# 
   300   000FD8                     STATUS          equ	4056	;# 
   301   000FD9                     FSR2            equ	4057	;# 
   302   000FD9                     FSR2L           equ	4057	;# 
   303   000FDA                     FSR2H           equ	4058	;# 
   304   000FDB                     PLUSW2          equ	4059	;# 
   305   000FDC                     PREINC2         equ	4060	;# 
   306   000FDD                     POSTDEC2        equ	4061	;# 
   307   000FDE                     POSTINC2        equ	4062	;# 
   308   000FDF                     INDF2           equ	4063	;# 
   309   000FE0                     BSR             equ	4064	;# 
   310   000FE1                     FSR1            equ	4065	;# 
   311   000FE1                     FSR1L           equ	4065	;# 
   312   000FE2                     FSR1H           equ	4066	;# 
   313   000FE3                     PLUSW1          equ	4067	;# 
   314   000FE4                     PREINC1         equ	4068	;# 
   315   000FE5                     POSTDEC1        equ	4069	;# 
   316   000FE6                     POSTINC1        equ	4070	;# 
   317   000FE7                     INDF1           equ	4071	;# 
   318   000FE8                     WREG            equ	4072	;# 
   319   000FE9                     FSR0            equ	4073	;# 
   320   000FE9                     FSR0L           equ	4073	;# 
   321   000FEA                     FSR0H           equ	4074	;# 
   322   000FEB                     PLUSW0          equ	4075	;# 
   323   000FEC                     PREINC0         equ	4076	;# 
   324   000FED                     POSTDEC0        equ	4077	;# 
   325   000FEE                     POSTINC0        equ	4078	;# 
   326   000FEF                     INDF0           equ	4079	;# 
   327   000FF0                     INTCON3         equ	4080	;# 
   328   000FF1                     INTCON2         equ	4081	;# 
   329   000FF2                     INTCON          equ	4082	;# 
   330   000FF3                     PROD            equ	4083	;# 
   331   000FF3                     PRODL           equ	4083	;# 
   332   000FF4                     PRODH           equ	4084	;# 
   333   000FF5                     TABLAT          equ	4085	;# 
   334   000FF6                     TBLPTR          equ	4086	;# 
   335   000FF6                     TBLPTRL         equ	4086	;# 
   336   000FF7                     TBLPTRH         equ	4087	;# 
   337   000FF8                     TBLPTRU         equ	4088	;# 
   338   000FF9                     PCLAT           equ	4089	;# 
   339   000FF9                     PC              equ	4089	;# 
   340   000FF9                     PCL             equ	4089	;# 
   341   000FFA                     PCLATH          equ	4090	;# 
   342   000FFB                     PCLATU          equ	4091	;# 
   343   000FFC                     STKPTR          equ	4092	;# 
   344   000FFD                     TOS             equ	4093	;# 
   345   000FFD                     TOSL            equ	4093	;# 
   346   000FFE                     TOSH            equ	4094	;# 
   347   000FFF                     TOSU            equ	4095	;# 
   348   000F57                     SRCON1          equ	3927	;# 
   349   000F58                     SRCON0          equ	3928	;# 
   350   000F59                     CCPTMRS         equ	3929	;# 
   351   000F5A                     VREGCON         equ	3930	;# 
   352   000F5B                     ANSELA          equ	3931	;# 
   353   000F5C                     ANSELB          equ	3932	;# 
   354   000F5D                     ANSELC          equ	3933	;# 
   355   000F60                     UCON            equ	3936	;# 
   356   000F61                     USTAT           equ	3937	;# 
   357   000F62                     UCFG            equ	3938	;# 
   358   000F63                     UADDR           equ	3939	;# 
   359   000F64                     UIE             equ	3940	;# 
   360   000F65                     UIR             equ	3941	;# 
   361   000F66                     UEIE            equ	3942	;# 
   362   000F67                     UEIR            equ	3943	;# 
   363   000F68                     UFRM            equ	3944	;# 
   364   000F68                     UFRML           equ	3944	;# 
   365   000F69                     UFRMH           equ	3945	;# 
   366   000F6A                     UEP0            equ	3946	;# 
   367   000F6B                     UEP1            equ	3947	;# 
   368   000F6C                     UEP2            equ	3948	;# 
   369   000F6D                     UEP3            equ	3949	;# 
   370   000F6E                     UEP4            equ	3950	;# 
   371   000F6F                     UEP5            equ	3951	;# 
   372   000F70                     UEP6            equ	3952	;# 
   373   000F71                     UEP7            equ	3953	;# 
   374   000F72                     UEP8            equ	3954	;# 
   375   000F73                     UEP9            equ	3955	;# 
   376   000F74                     UEP10           equ	3956	;# 
   377   000F75                     UEP11           equ	3957	;# 
   378   000F76                     UEP12           equ	3958	;# 
   379   000F77                     UEP13           equ	3959	;# 
   380   000F78                     UEP14           equ	3960	;# 
   381   000F79                     UEP15           equ	3961	;# 
   382   000F7A                     SLRCON          equ	3962	;# 
   383   000F7B                     VREFCON2        equ	3963	;# 
   384   000F7C                     VREFCON1        equ	3964	;# 
   385   000F7D                     VREFCON0        equ	3965	;# 
   386   000F7E                     PMD0            equ	3966	;# 
   387   000F7F                     PMD1            equ	3967	;# 
   388   000F80                     PORTA           equ	3968	;# 
   389   000F81                     PORTB           equ	3969	;# 
   390   000F82                     PORTC           equ	3970	;# 
   391   000F84                     PORTE           equ	3972	;# 
   392   000F85                     WPUB            equ	3973	;# 
   393   000F86                     IOCB            equ	3974	;# 
   394   000F87                     IOCC            equ	3975	;# 
   395   000F88                     CTMUICON        equ	3976	;# 
   396   000F89                     LATA            equ	3977	;# 
   397   000F8A                     LATB            equ	3978	;# 
   398   000F8B                     LATC            equ	3979	;# 
   399   000F8E                     CTMUCONL        equ	3982	;# 
   400   000F8E                     CTMUCON1        equ	3982	;# 
   401   000F8F                     CTMUCONH        equ	3983	;# 
   402   000F8F                     CTMUCON0        equ	3983	;# 
   403   000F90                     CCPR2           equ	3984	;# 
   404   000F90                     CCPR2L          equ	3984	;# 
   405   000F91                     CCPR2H          equ	3985	;# 
   406   000F92                     TRISA           equ	3986	;# 
   407   000F92                     DDRA            equ	3986	;# 
   408   000F93                     TRISB           equ	3987	;# 
   409   000F93                     DDRB            equ	3987	;# 
   410   000F94                     TRISC           equ	3988	;# 
   411   000F94                     DDRC            equ	3988	;# 
   412   000F97                     CCP2CON         equ	3991	;# 
   413   000F97                     ECCP2CON        equ	3991	;# 
   414   000F98                     CM1CON0         equ	3992	;# 
   415   000F99                     CM2CON0         equ	3993	;# 
   416   000F9A                     CM2CON1         equ	3994	;# 
   417   000F9B                     OSCTUNE         equ	3995	;# 
   418   000F9C                     HLVDCON         equ	3996	;# 
   419   000F9D                     PIE1            equ	3997	;# 
   420   000F9E                     PIR1            equ	3998	;# 
   421   000F9F                     IPR1            equ	3999	;# 
   422   000FA0                     PIE2            equ	4000	;# 
   423   000FA1                     PIR2            equ	4001	;# 
   424   000FA2                     IPR2            equ	4002	;# 
   425   000FA3                     PIE3            equ	4003	;# 
   426   000FA4                     PIR3            equ	4004	;# 
   427   000FA5                     IPR3            equ	4005	;# 
   428   000FA6                     EECON1          equ	4006	;# 
   429   000FA7                     EECON2          equ	4007	;# 
   430   000FA8                     EEDATA          equ	4008	;# 
   431   000FA9                     EEADR           equ	4009	;# 
   432   000FAB                     RCSTA1          equ	4011	;# 
   433   000FAB                     RCSTA           equ	4011	;# 
   434   000FAC                     TXSTA1          equ	4012	;# 
   435   000FAC                     TXSTA           equ	4012	;# 
   436   000FAD                     TXREG1          equ	4013	;# 
   437   000FAD                     TXREG           equ	4013	;# 
   438   000FAE                     RCREG1          equ	4014	;# 
   439   000FAE                     RCREG           equ	4014	;# 
   440   000FAF                     SPBRG1          equ	4015	;# 
   441   000FAF                     SPBRG           equ	4015	;# 
   442   000FB0                     SPBRGH1         equ	4016	;# 
   443   000FB0                     SPBRGH          equ	4016	;# 
   444   000FB1                     T3CON           equ	4017	;# 
   445   000FB2                     TMR3            equ	4018	;# 
   446   000FB2                     TMR3L           equ	4018	;# 
   447   000FB3                     TMR3H           equ	4019	;# 
   448   000FB4                     T3GCON          equ	4020	;# 
   449   000FB5                     ACTCON          equ	4021	;# 
   450   000FB5                     STCON           equ	4021	;# 
   451   000FB6                     ECCP1AS         equ	4022	;# 
   452   000FB7                     PWM1CON         equ	4023	;# 
   453   000FB7                     ECCP1DEL        equ	4023	;# 
   454   000FB8                     BAUDCON1        equ	4024	;# 
   455   000FB8                     BAUDCON         equ	4024	;# 
   456   000FB8                     BAUDCTL         equ	4024	;# 
   457   000FB9                     PSTR1CON        equ	4025	;# 
   458   000FBA                     T2CON           equ	4026	;# 
   459   000FBB                     PR2             equ	4027	;# 
   460   000FBC                     TMR2            equ	4028	;# 
   461   000FBD                     CCP1CON         equ	4029	;# 
   462   000FBD                     ECCP1CON        equ	4029	;# 
   463   000FBE                     CCPR1           equ	4030	;# 
   464   000FBE                     CCPR1L          equ	4030	;# 
   465   000FBF                     CCPR1H          equ	4031	;# 
   466   000FC0                     ADCON2          equ	4032	;# 
   467   000FC1                     ADCON1          equ	4033	;# 
   468   000FC2                     ADCON0          equ	4034	;# 
   469   000FC3                     ADRESL          equ	4035	;# 
   470   000FC4                     ADRESH          equ	4036	;# 
   471   000FC5                     SSP1CON2        equ	4037	;# 
   472   000FC5                     SSPCON2         equ	4037	;# 
   473   000FC6                     SSP1CON1        equ	4038	;# 
   474   000FC6                     SSPCON          equ	4038	;# 
   475   000FC6                     SSPCON1         equ	4038	;# 
   476   000FC7                     SSP1STAT        equ	4039	;# 
   477   000FC7                     SSPSTAT         equ	4039	;# 
   478   000FC8                     SSP1ADD         equ	4040	;# 
   479   000FC8                     SSPADD          equ	4040	;# 
   480   000FC9                     SSP1BUF         equ	4041	;# 
   481   000FC9                     SSPBUF          equ	4041	;# 
   482   000FCA                     SSP1MSK         equ	4042	;# 
   483   000FCA                     SSPMSK          equ	4042	;# 
   484   000FCB                     SSP1CON3        equ	4043	;# 
   485   000FCB                     SSPCON3         equ	4043	;# 
   486   000FCC                     T1GCON          equ	4044	;# 
   487   000FCD                     T1CON           equ	4045	;# 
   488   000FCE                     TMR1            equ	4046	;# 
   489   000FCE                     TMR1L           equ	4046	;# 
   490   000FCF                     TMR1H           equ	4047	;# 
   491   000FD0                     RCON            equ	4048	;# 
   492   000FD1                     WDTCON          equ	4049	;# 
   493   000FD2                     OSCCON2         equ	4050	;# 
   494   000FD3                     OSCCON          equ	4051	;# 
   495   000FD5                     T0CON           equ	4053	;# 
   496   000FD6                     TMR0            equ	4054	;# 
   497   000FD6                     TMR0L           equ	4054	;# 
   498   000FD7                     TMR0H           equ	4055	;# 
   499   000FD8                     STATUS          equ	4056	;# 
   500   000FD9                     FSR2            equ	4057	;# 
   501   000FD9                     FSR2L           equ	4057	;# 
   502   000FDA                     FSR2H           equ	4058	;# 
   503   000FDB                     PLUSW2          equ	4059	;# 
   504   000FDC                     PREINC2         equ	4060	;# 
   505   000FDD                     POSTDEC2        equ	4061	;# 
   506   000FDE                     POSTINC2        equ	4062	;# 
   507   000FDF                     INDF2           equ	4063	;# 
   508   000FE0                     BSR             equ	4064	;# 
   509   000FE1                     FSR1            equ	4065	;# 
   510   000FE1                     FSR1L           equ	4065	;# 
   511   000FE2                     FSR1H           equ	4066	;# 
   512   000FE3                     PLUSW1          equ	4067	;# 
   513   000FE4                     PREINC1         equ	4068	;# 
   514   000FE5                     POSTDEC1        equ	4069	;# 
   515   000FE6                     POSTINC1        equ	4070	;# 
   516   000FE7                     INDF1           equ	4071	;# 
   517   000FE8                     WREG            equ	4072	;# 
   518   000FE9                     FSR0            equ	4073	;# 
   519   000FE9                     FSR0L           equ	4073	;# 
   520   000FEA                     FSR0H           equ	4074	;# 
   521   000FEB                     PLUSW0          equ	4075	;# 
   522   000FEC                     PREINC0         equ	4076	;# 
   523   000FED                     POSTDEC0        equ	4077	;# 
   524   000FEE                     POSTINC0        equ	4078	;# 
   525   000FEF                     INDF0           equ	4079	;# 
   526   000FF0                     INTCON3         equ	4080	;# 
   527   000FF1                     INTCON2         equ	4081	;# 
   528   000FF2                     INTCON          equ	4082	;# 
   529   000FF3                     PROD            equ	4083	;# 
   530   000FF3                     PRODL           equ	4083	;# 
   531   000FF4                     PRODH           equ	4084	;# 
   532   000FF5                     TABLAT          equ	4085	;# 
   533   000FF6                     TBLPTR          equ	4086	;# 
   534   000FF6                     TBLPTRL         equ	4086	;# 
   535   000FF7                     TBLPTRH         equ	4087	;# 
   536   000FF8                     TBLPTRU         equ	4088	;# 
   537   000FF9                     PCLAT           equ	4089	;# 
   538   000FF9                     PC              equ	4089	;# 
   539   000FF9                     PCL             equ	4089	;# 
   540   000FFA                     PCLATH          equ	4090	;# 
   541   000FFB                     PCLATU          equ	4091	;# 
   542   000FFC                     STKPTR          equ	4092	;# 
   543   000FFD                     TOS             equ	4093	;# 
   544   000FFD                     TOSL            equ	4093	;# 
   545   000FFE                     TOSH            equ	4094	;# 
   546   000FFF                     TOSU            equ	4095	;# 
   547   000F57                     SRCON1          equ	3927	;# 
   548   000F58                     SRCON0          equ	3928	;# 
   549   000F59                     CCPTMRS         equ	3929	;# 
   550   000F5A                     VREGCON         equ	3930	;# 
   551   000F5B                     ANSELA          equ	3931	;# 
   552   000F5C                     ANSELB          equ	3932	;# 
   553   000F5D                     ANSELC          equ	3933	;# 
   554   000F60                     UCON            equ	3936	;# 
   555   000F61                     USTAT           equ	3937	;# 
   556   000F62                     UCFG            equ	3938	;# 
   557   000F63                     UADDR           equ	3939	;# 
   558   000F64                     UIE             equ	3940	;# 
   559   000F65                     UIR             equ	3941	;# 
   560   000F66                     UEIE            equ	3942	;# 
   561   000F67                     UEIR            equ	3943	;# 
   562   000F68                     UFRM            equ	3944	;# 
   563   000F68                     UFRML           equ	3944	;# 
   564   000F69                     UFRMH           equ	3945	;# 
   565   000F6A                     UEP0            equ	3946	;# 
   566   000F6B                     UEP1            equ	3947	;# 
   567   000F6C                     UEP2            equ	3948	;# 
   568   000F6D                     UEP3            equ	3949	;# 
   569   000F6E                     UEP4            equ	3950	;# 
   570   000F6F                     UEP5            equ	3951	;# 
   571   000F70                     UEP6            equ	3952	;# 
   572   000F71                     UEP7            equ	3953	;# 
   573   000F72                     UEP8            equ	3954	;# 
   574   000F73                     UEP9            equ	3955	;# 
   575   000F74                     UEP10           equ	3956	;# 
   576   000F75                     UEP11           equ	3957	;# 
   577   000F76                     UEP12           equ	3958	;# 
   578   000F77                     UEP13           equ	3959	;# 
   579   000F78                     UEP14           equ	3960	;# 
   580   000F79                     UEP15           equ	3961	;# 
   581   000F7A                     SLRCON          equ	3962	;# 
   582   000F7B                     VREFCON2        equ	3963	;# 
   583   000F7C                     VREFCON1        equ	3964	;# 
   584   000F7D                     VREFCON0        equ	3965	;# 
   585   000F7E                     PMD0            equ	3966	;# 
   586   000F7F                     PMD1            equ	3967	;# 
   587   000F80                     PORTA           equ	3968	;# 
   588   000F81                     PORTB           equ	3969	;# 
   589   000F82                     PORTC           equ	3970	;# 
   590   000F84                     PORTE           equ	3972	;# 
   591   000F85                     WPUB            equ	3973	;# 
   592   000F86                     IOCB            equ	3974	;# 
   593   000F87                     IOCC            equ	3975	;# 
   594   000F88                     CTMUICON        equ	3976	;# 
   595   000F89                     LATA            equ	3977	;# 
   596   000F8A                     LATB            equ	3978	;# 
   597   000F8B                     LATC            equ	3979	;# 
   598   000F8E                     CTMUCONL        equ	3982	;# 
   599   000F8E                     CTMUCON1        equ	3982	;# 
   600   000F8F                     CTMUCONH        equ	3983	;# 
   601   000F8F                     CTMUCON0        equ	3983	;# 
   602   000F90                     CCPR2           equ	3984	;# 
   603   000F90                     CCPR2L          equ	3984	;# 
   604   000F91                     CCPR2H          equ	3985	;# 
   605   000F92                     TRISA           equ	3986	;# 
   606   000F92                     DDRA            equ	3986	;# 
   607   000F93                     TRISB           equ	3987	;# 
   608   000F93                     DDRB            equ	3987	;# 
   609   000F94                     TRISC           equ	3988	;# 
   610   000F94                     DDRC            equ	3988	;# 
   611   000F97                     CCP2CON         equ	3991	;# 
   612   000F97                     ECCP2CON        equ	3991	;# 
   613   000F98                     CM1CON0         equ	3992	;# 
   614   000F99                     CM2CON0         equ	3993	;# 
   615   000F9A                     CM2CON1         equ	3994	;# 
   616   000F9B                     OSCTUNE         equ	3995	;# 
   617   000F9C                     HLVDCON         equ	3996	;# 
   618   000F9D                     PIE1            equ	3997	;# 
   619   000F9E                     PIR1            equ	3998	;# 
   620   000F9F                     IPR1            equ	3999	;# 
   621   000FA0                     PIE2            equ	4000	;# 
   622   000FA1                     PIR2            equ	4001	;# 
   623   000FA2                     IPR2            equ	4002	;# 
   624   000FA3                     PIE3            equ	4003	;# 
   625   000FA4                     PIR3            equ	4004	;# 
   626   000FA5                     IPR3            equ	4005	;# 
   627   000FA6                     EECON1          equ	4006	;# 
   628   000FA7                     EECON2          equ	4007	;# 
   629   000FA8                     EEDATA          equ	4008	;# 
   630   000FA9                     EEADR           equ	4009	;# 
   631   000FAB                     RCSTA1          equ	4011	;# 
   632   000FAB                     RCSTA           equ	4011	;# 
   633   000FAC                     TXSTA1          equ	4012	;# 
   634   000FAC                     TXSTA           equ	4012	;# 
   635   000FAD                     TXREG1          equ	4013	;# 
   636   000FAD                     TXREG           equ	4013	;# 
   637   000FAE                     RCREG1          equ	4014	;# 
   638   000FAE                     RCREG           equ	4014	;# 
   639   000FAF                     SPBRG1          equ	4015	;# 
   640   000FAF                     SPBRG           equ	4015	;# 
   641   000FB0                     SPBRGH1         equ	4016	;# 
   642   000FB0                     SPBRGH          equ	4016	;# 
   643   000FB1                     T3CON           equ	4017	;# 
   644   000FB2                     TMR3            equ	4018	;# 
   645   000FB2                     TMR3L           equ	4018	;# 
   646   000FB3                     TMR3H           equ	4019	;# 
   647   000FB4                     T3GCON          equ	4020	;# 
   648   000FB5                     ACTCON          equ	4021	;# 
   649   000FB5                     STCON           equ	4021	;# 
   650   000FB6                     ECCP1AS         equ	4022	;# 
   651   000FB7                     PWM1CON         equ	4023	;# 
   652   000FB7                     ECCP1DEL        equ	4023	;# 
   653   000FB8                     BAUDCON1        equ	4024	;# 
   654   000FB8                     BAUDCON         equ	4024	;# 
   655   000FB8                     BAUDCTL         equ	4024	;# 
   656   000FB9                     PSTR1CON        equ	4025	;# 
   657   000FBA                     T2CON           equ	4026	;# 
   658   000FBB                     PR2             equ	4027	;# 
   659   000FBC                     TMR2            equ	4028	;# 
   660   000FBD                     CCP1CON         equ	4029	;# 
   661   000FBD                     ECCP1CON        equ	4029	;# 
   662   000FBE                     CCPR1           equ	4030	;# 
   663   000FBE                     CCPR1L          equ	4030	;# 
   664   000FBF                     CCPR1H          equ	4031	;# 
   665   000FC0                     ADCON2          equ	4032	;# 
   666   000FC1                     ADCON1          equ	4033	;# 
   667   000FC2                     ADCON0          equ	4034	;# 
   668   000FC3                     ADRESL          equ	4035	;# 
   669   000FC4                     ADRESH          equ	4036	;# 
   670   000FC5                     SSP1CON2        equ	4037	;# 
   671   000FC5                     SSPCON2         equ	4037	;# 
   672   000FC6                     SSP1CON1        equ	4038	;# 
   673   000FC6                     SSPCON          equ	4038	;# 
   674   000FC6                     SSPCON1         equ	4038	;# 
   675   000FC7                     SSP1STAT        equ	4039	;# 
   676   000FC7                     SSPSTAT         equ	4039	;# 
   677   000FC8                     SSP1ADD         equ	4040	;# 
   678   000FC8                     SSPADD          equ	4040	;# 
   679   000FC9                     SSP1BUF         equ	4041	;# 
   680   000FC9                     SSPBUF          equ	4041	;# 
   681   000FCA                     SSP1MSK         equ	4042	;# 
   682   000FCA                     SSPMSK          equ	4042	;# 
   683   000FCB                     SSP1CON3        equ	4043	;# 
   684   000FCB                     SSPCON3         equ	4043	;# 
   685   000FCC                     T1GCON          equ	4044	;# 
   686   000FCD                     T1CON           equ	4045	;# 
   687   000FCE                     TMR1            equ	4046	;# 
   688   000FCE                     TMR1L           equ	4046	;# 
   689   000FCF                     TMR1H           equ	4047	;# 
   690   000FD0                     RCON            equ	4048	;# 
   691   000FD1                     WDTCON          equ	4049	;# 
   692   000FD2                     OSCCON2         equ	4050	;# 
   693   000FD3                     OSCCON          equ	4051	;# 
   694   000FD5                     T0CON           equ	4053	;# 
   695   000FD6                     TMR0            equ	4054	;# 
   696   000FD6                     TMR0L           equ	4054	;# 
   697   000FD7                     TMR0H           equ	4055	;# 
   698   000FD8                     STATUS          equ	4056	;# 
   699   000FD9                     FSR2            equ	4057	;# 
   700   000FD9                     FSR2L           equ	4057	;# 
   701   000FDA                     FSR2H           equ	4058	;# 
   702   000FDB                     PLUSW2          equ	4059	;# 
   703   000FDC                     PREINC2         equ	4060	;# 
   704   000FDD                     POSTDEC2        equ	4061	;# 
   705   000FDE                     POSTINC2        equ	4062	;# 
   706   000FDF                     INDF2           equ	4063	;# 
   707   000FE0                     BSR             equ	4064	;# 
   708   000FE1                     FSR1            equ	4065	;# 
   709   000FE1                     FSR1L           equ	4065	;# 
   710   000FE2                     FSR1H           equ	4066	;# 
   711   000FE3                     PLUSW1          equ	4067	;# 
   712   000FE4                     PREINC1         equ	4068	;# 
   713   000FE5                     POSTDEC1        equ	4069	;# 
   714   000FE6                     POSTINC1        equ	4070	;# 
   715   000FE7                     INDF1           equ	4071	;# 
   716   000FE8                     WREG            equ	4072	;# 
   717   000FE9                     FSR0            equ	4073	;# 
   718   000FE9                     FSR0L           equ	4073	;# 
   719   000FEA                     FSR0H           equ	4074	;# 
   720   000FEB                     PLUSW0          equ	4075	;# 
   721   000FEC                     PREINC0         equ	4076	;# 
   722   000FED                     POSTDEC0        equ	4077	;# 
   723   000FEE                     POSTINC0        equ	4078	;# 
   724   000FEF                     INDF0           equ	4079	;# 
   725   000FF0                     INTCON3         equ	4080	;# 
   726   000FF1                     INTCON2         equ	4081	;# 
   727   000FF2                     INTCON          equ	4082	;# 
   728   000FF3                     PROD            equ	4083	;# 
   729   000FF3                     PRODL           equ	4083	;# 
   730   000FF4                     PRODH           equ	4084	;# 
   731   000FF5                     TABLAT          equ	4085	;# 
   732   000FF6                     TBLPTR          equ	4086	;# 
   733   000FF6                     TBLPTRL         equ	4086	;# 
   734   000FF7                     TBLPTRH         equ	4087	;# 
   735   000FF8                     TBLPTRU         equ	4088	;# 
   736   000FF9                     PCLAT           equ	4089	;# 
   737   000FF9                     PC              equ	4089	;# 
   738   000FF9                     PCL             equ	4089	;# 
   739   000FFA                     PCLATH          equ	4090	;# 
   740   000FFB                     PCLATU          equ	4091	;# 
   741   000FFC                     STKPTR          equ	4092	;# 
   742   000FFD                     TOS             equ	4093	;# 
   743   000FFD                     TOSL            equ	4093	;# 
   744   000FFE                     TOSH            equ	4094	;# 
   745   000FFF                     TOSU            equ	4095	;# 
   746   000F57                     SRCON1          equ	3927	;# 
   747   000F58                     SRCON0          equ	3928	;# 
   748   000F59                     CCPTMRS         equ	3929	;# 
   749   000F5A                     VREGCON         equ	3930	;# 
   750   000F5B                     ANSELA          equ	3931	;# 
   751   000F5C                     ANSELB          equ	3932	;# 
   752   000F5D                     ANSELC          equ	3933	;# 
   753   000F60                     UCON            equ	3936	;# 
   754   000F61                     USTAT           equ	3937	;# 
   755   000F62                     UCFG            equ	3938	;# 
   756   000F63                     UADDR           equ	3939	;# 
   757   000F64                     UIE             equ	3940	;# 
   758   000F65                     UIR             equ	3941	;# 
   759   000F66                     UEIE            equ	3942	;# 
   760   000F67                     UEIR            equ	3943	;# 
   761   000F68                     UFRM            equ	3944	;# 
   762   000F68                     UFRML           equ	3944	;# 
   763   000F69                     UFRMH           equ	3945	;# 
   764   000F6A                     UEP0            equ	3946	;# 
   765   000F6B                     UEP1            equ	3947	;# 
   766   000F6C                     UEP2            equ	3948	;# 
   767   000F6D                     UEP3            equ	3949	;# 
   768   000F6E                     UEP4            equ	3950	;# 
   769   000F6F                     UEP5            equ	3951	;# 
   770   000F70                     UEP6            equ	3952	;# 
   771   000F71                     UEP7            equ	3953	;# 
   772   000F72                     UEP8            equ	3954	;# 
   773   000F73                     UEP9            equ	3955	;# 
   774   000F74                     UEP10           equ	3956	;# 
   775   000F75                     UEP11           equ	3957	;# 
   776   000F76                     UEP12           equ	3958	;# 
   777   000F77                     UEP13           equ	3959	;# 
   778   000F78                     UEP14           equ	3960	;# 
   779   000F79                     UEP15           equ	3961	;# 
   780   000F7A                     SLRCON          equ	3962	;# 
   781   000F7B                     VREFCON2        equ	3963	;# 
   782   000F7C                     VREFCON1        equ	3964	;# 
   783   000F7D                     VREFCON0        equ	3965	;# 
   784   000F7E                     PMD0            equ	3966	;# 
   785   000F7F                     PMD1            equ	3967	;# 
   786   000F80                     PORTA           equ	3968	;# 
   787   000F81                     PORTB           equ	3969	;# 
   788   000F82                     PORTC           equ	3970	;# 
   789   000F84                     PORTE           equ	3972	;# 
   790   000F85                     WPUB            equ	3973	;# 
   791   000F86                     IOCB            equ	3974	;# 
   792   000F87                     IOCC            equ	3975	;# 
   793   000F88                     CTMUICON        equ	3976	;# 
   794   000F89                     LATA            equ	3977	;# 
   795   000F8A                     LATB            equ	3978	;# 
   796   000F8B                     LATC            equ	3979	;# 
   797   000F8E                     CTMUCONL        equ	3982	;# 
   798   000F8E                     CTMUCON1        equ	3982	;# 
   799   000F8F                     CTMUCONH        equ	3983	;# 
   800   000F8F                     CTMUCON0        equ	3983	;# 
   801   000F90                     CCPR2           equ	3984	;# 
   802   000F90                     CCPR2L          equ	3984	;# 
   803   000F91                     CCPR2H          equ	3985	;# 
   804   000F92                     TRISA           equ	3986	;# 
   805   000F92                     DDRA            equ	3986	;# 
   806   000F93                     TRISB           equ	3987	;# 
   807   000F93                     DDRB            equ	3987	;# 
   808   000F94                     TRISC           equ	3988	;# 
   809   000F94                     DDRC            equ	3988	;# 
   810   000F97                     CCP2CON         equ	3991	;# 
   811   000F97                     ECCP2CON        equ	3991	;# 
   812   000F98                     CM1CON0         equ	3992	;# 
   813   000F99                     CM2CON0         equ	3993	;# 
   814   000F9A                     CM2CON1         equ	3994	;# 
   815   000F9B                     OSCTUNE         equ	3995	;# 
   816   000F9C                     HLVDCON         equ	3996	;# 
   817   000F9D                     PIE1            equ	3997	;# 
   818   000F9E                     PIR1            equ	3998	;# 
   819   000F9F                     IPR1            equ	3999	;# 
   820   000FA0                     PIE2            equ	4000	;# 
   821   000FA1                     PIR2            equ	4001	;# 
   822   000FA2                     IPR2            equ	4002	;# 
   823   000FA3                     PIE3            equ	4003	;# 
   824   000FA4                     PIR3            equ	4004	;# 
   825   000FA5                     IPR3            equ	4005	;# 
   826   000FA6                     EECON1          equ	4006	;# 
   827   000FA7                     EECON2          equ	4007	;# 
   828   000FA8                     EEDATA          equ	4008	;# 
   829   000FA9                     EEADR           equ	4009	;# 
   830   000FAB                     RCSTA1          equ	4011	;# 
   831   000FAB                     RCSTA           equ	4011	;# 
   832   000FAC                     TXSTA1          equ	4012	;# 
   833   000FAC                     TXSTA           equ	4012	;# 
   834   000FAD                     TXREG1          equ	4013	;# 
   835   000FAD                     TXREG           equ	4013	;# 
   836   000FAE                     RCREG1          equ	4014	;# 
   837   000FAE                     RCREG           equ	4014	;# 
   838   000FAF                     SPBRG1          equ	4015	;# 
   839   000FAF                     SPBRG           equ	4015	;# 
   840   000FB0                     SPBRGH1         equ	4016	;# 
   841   000FB0                     SPBRGH          equ	4016	;# 
   842   000FB1                     T3CON           equ	4017	;# 
   843   000FB2                     TMR3            equ	4018	;# 
   844   000FB2                     TMR3L           equ	4018	;# 
   845   000FB3                     TMR3H           equ	4019	;# 
   846   000FB4                     T3GCON          equ	4020	;# 
   847   000FB5                     ACTCON          equ	4021	;# 
   848   000FB5                     STCON           equ	4021	;# 
   849   000FB6                     ECCP1AS         equ	4022	;# 
   850   000FB7                     PWM1CON         equ	4023	;# 
   851   000FB7                     ECCP1DEL        equ	4023	;# 
   852   000FB8                     BAUDCON1        equ	4024	;# 
   853   000FB8                     BAUDCON         equ	4024	;# 
   854   000FB8                     BAUDCTL         equ	4024	;# 
   855   000FB9                     PSTR1CON        equ	4025	;# 
   856   000FBA                     T2CON           equ	4026	;# 
   857   000FBB                     PR2             equ	4027	;# 
   858   000FBC                     TMR2            equ	4028	;# 
   859   000FBD                     CCP1CON         equ	4029	;# 
   860   000FBD                     ECCP1CON        equ	4029	;# 
   861   000FBE                     CCPR1           equ	4030	;# 
   862   000FBE                     CCPR1L          equ	4030	;# 
   863   000FBF                     CCPR1H          equ	4031	;# 
   864   000FC0                     ADCON2          equ	4032	;# 
   865   000FC1                     ADCON1          equ	4033	;# 
   866   000FC2                     ADCON0          equ	4034	;# 
   867   000FC3                     ADRESL          equ	4035	;# 
   868   000FC4                     ADRESH          equ	4036	;# 
   869   000FC5                     SSP1CON2        equ	4037	;# 
   870   000FC5                     SSPCON2         equ	4037	;# 
   871   000FC6                     SSP1CON1        equ	4038	;# 
   872   000FC6                     SSPCON          equ	4038	;# 
   873   000FC6                     SSPCON1         equ	4038	;# 
   874   000FC7                     SSP1STAT        equ	4039	;# 
   875   000FC7                     SSPSTAT         equ	4039	;# 
   876   000FC8                     SSP1ADD         equ	4040	;# 
   877   000FC8                     SSPADD          equ	4040	;# 
   878   000FC9                     SSP1BUF         equ	4041	;# 
   879   000FC9                     SSPBUF          equ	4041	;# 
   880   000FCA                     SSP1MSK         equ	4042	;# 
   881   000FCA                     SSPMSK          equ	4042	;# 
   882   000FCB                     SSP1CON3        equ	4043	;# 
   883   000FCB                     SSPCON3         equ	4043	;# 
   884   000FCC                     T1GCON          equ	4044	;# 
   885   000FCD                     T1CON           equ	4045	;# 
   886   000FCE                     TMR1            equ	4046	;# 
   887   000FCE                     TMR1L           equ	4046	;# 
   888   000FCF                     TMR1H           equ	4047	;# 
   889   000FD0                     RCON            equ	4048	;# 
   890   000FD1                     WDTCON          equ	4049	;# 
   891   000FD2                     OSCCON2         equ	4050	;# 
   892   000FD3                     OSCCON          equ	4051	;# 
   893   000FD5                     T0CON           equ	4053	;# 
   894   000FD6                     TMR0            equ	4054	;# 
   895   000FD6                     TMR0L           equ	4054	;# 
   896   000FD7                     TMR0H           equ	4055	;# 
   897   000FD8                     STATUS          equ	4056	;# 
   898   000FD9                     FSR2            equ	4057	;# 
   899   000FD9                     FSR2L           equ	4057	;# 
   900   000FDA                     FSR2H           equ	4058	;# 
   901   000FDB                     PLUSW2          equ	4059	;# 
   902   000FDC                     PREINC2         equ	4060	;# 
   903   000FDD                     POSTDEC2        equ	4061	;# 
   904   000FDE                     POSTINC2        equ	4062	;# 
   905   000FDF                     INDF2           equ	4063	;# 
   906   000FE0                     BSR             equ	4064	;# 
   907   000FE1                     FSR1            equ	4065	;# 
   908   000FE1                     FSR1L           equ	4065	;# 
   909   000FE2                     FSR1H           equ	4066	;# 
   910   000FE3                     PLUSW1          equ	4067	;# 
   911   000FE4                     PREINC1         equ	4068	;# 
   912   000FE5                     POSTDEC1        equ	4069	;# 
   913   000FE6                     POSTINC1        equ	4070	;# 
   914   000FE7                     INDF1           equ	4071	;# 
   915   000FE8                     WREG            equ	4072	;# 
   916   000FE9                     FSR0            equ	4073	;# 
   917   000FE9                     FSR0L           equ	4073	;# 
   918   000FEA                     FSR0H           equ	4074	;# 
   919   000FEB                     PLUSW0          equ	4075	;# 
   920   000FEC                     PREINC0         equ	4076	;# 
   921   000FED                     POSTDEC0        equ	4077	;# 
   922   000FEE                     POSTINC0        equ	4078	;# 
   923   000FEF                     INDF0           equ	4079	;# 
   924   000FF0                     INTCON3         equ	4080	;# 
   925   000FF1                     INTCON2         equ	4081	;# 
   926   000FF2                     INTCON          equ	4082	;# 
   927   000FF3                     PROD            equ	4083	;# 
   928   000FF3                     PRODL           equ	4083	;# 
   929   000FF4                     PRODH           equ	4084	;# 
   930   000FF5                     TABLAT          equ	4085	;# 
   931   000FF6                     TBLPTR          equ	4086	;# 
   932   000FF6                     TBLPTRL         equ	4086	;# 
   933   000FF7                     TBLPTRH         equ	4087	;# 
   934   000FF8                     TBLPTRU         equ	4088	;# 
   935   000FF9                     PCLAT           equ	4089	;# 
   936   000FF9                     PC              equ	4089	;# 
   937   000FF9                     PCL             equ	4089	;# 
   938   000FFA                     PCLATH          equ	4090	;# 
   939   000FFB                     PCLATU          equ	4091	;# 
   940   000FFC                     STKPTR          equ	4092	;# 
   941   000FFD                     TOS             equ	4093	;# 
   942   000FFD                     TOSL            equ	4093	;# 
   943   000FFE                     TOSH            equ	4094	;# 
   944   000FFF                     TOSU            equ	4095	;# 
   945   000F57                     SRCON1          equ	3927	;# 
   946   000F58                     SRCON0          equ	3928	;# 
   947   000F59                     CCPTMRS         equ	3929	;# 
   948   000F5A                     VREGCON         equ	3930	;# 
   949   000F5B                     ANSELA          equ	3931	;# 
   950   000F5C                     ANSELB          equ	3932	;# 
   951   000F5D                     ANSELC          equ	3933	;# 
   952   000F60                     UCON            equ	3936	;# 
   953   000F61                     USTAT           equ	3937	;# 
   954   000F62                     UCFG            equ	3938	;# 
   955   000F63                     UADDR           equ	3939	;# 
   956   000F64                     UIE             equ	3940	;# 
   957   000F65                     UIR             equ	3941	;# 
   958   000F66                     UEIE            equ	3942	;# 
   959   000F67                     UEIR            equ	3943	;# 
   960   000F68                     UFRM            equ	3944	;# 
   961   000F68                     UFRML           equ	3944	;# 
   962   000F69                     UFRMH           equ	3945	;# 
   963   000F6A                     UEP0            equ	3946	;# 
   964   000F6B                     UEP1            equ	3947	;# 
   965   000F6C                     UEP2            equ	3948	;# 
   966   000F6D                     UEP3            equ	3949	;# 
   967   000F6E                     UEP4            equ	3950	;# 
   968   000F6F                     UEP5            equ	3951	;# 
   969   000F70                     UEP6            equ	3952	;# 
   970   000F71                     UEP7            equ	3953	;# 
   971   000F72                     UEP8            equ	3954	;# 
   972   000F73                     UEP9            equ	3955	;# 
   973   000F74                     UEP10           equ	3956	;# 
   974   000F75                     UEP11           equ	3957	;# 
   975   000F76                     UEP12           equ	3958	;# 
   976   000F77                     UEP13           equ	3959	;# 
   977   000F78                     UEP14           equ	3960	;# 
   978   000F79                     UEP15           equ	3961	;# 
   979   000F7A                     SLRCON          equ	3962	;# 
   980   000F7B                     VREFCON2        equ	3963	;# 
   981   000F7C                     VREFCON1        equ	3964	;# 
   982   000F7D                     VREFCON0        equ	3965	;# 
   983   000F7E                     PMD0            equ	3966	;# 
   984   000F7F                     PMD1            equ	3967	;# 
   985   000F80                     PORTA           equ	3968	;# 
   986   000F81                     PORTB           equ	3969	;# 
   987   000F82                     PORTC           equ	3970	;# 
   988   000F84                     PORTE           equ	3972	;# 
   989   000F85                     WPUB            equ	3973	;# 
   990   000F86                     IOCB            equ	3974	;# 
   991   000F87                     IOCC            equ	3975	;# 
   992   000F88                     CTMUICON        equ	3976	;# 
   993   000F89                     LATA            equ	3977	;# 
   994   000F8A                     LATB            equ	3978	;# 
   995   000F8B                     LATC            equ	3979	;# 
   996   000F8E                     CTMUCONL        equ	3982	;# 
   997   000F8E                     CTMUCON1        equ	3982	;# 
   998   000F8F                     CTMUCONH        equ	3983	;# 
   999   000F8F                     CTMUCON0        equ	3983	;# 
  1000   000F90                     CCPR2           equ	3984	;# 
  1001   000F90                     CCPR2L          equ	3984	;# 
  1002   000F91                     CCPR2H          equ	3985	;# 
  1003   000F92                     TRISA           equ	3986	;# 
  1004   000F92                     DDRA            equ	3986	;# 
  1005   000F93                     TRISB           equ	3987	;# 
  1006   000F93                     DDRB            equ	3987	;# 
  1007   000F94                     TRISC           equ	3988	;# 
  1008   000F94                     DDRC            equ	3988	;# 
  1009   000F97                     CCP2CON         equ	3991	;# 
  1010   000F97                     ECCP2CON        equ	3991	;# 
  1011   000F98                     CM1CON0         equ	3992	;# 
  1012   000F99                     CM2CON0         equ	3993	;# 
  1013   000F9A                     CM2CON1         equ	3994	;# 
  1014   000F9B                     OSCTUNE         equ	3995	;# 
  1015   000F9C                     HLVDCON         equ	3996	;# 
  1016   000F9D                     PIE1            equ	3997	;# 
  1017   000F9E                     PIR1            equ	3998	;# 
  1018   000F9F                     IPR1            equ	3999	;# 
  1019   000FA0                     PIE2            equ	4000	;# 
  1020   000FA1                     PIR2            equ	4001	;# 
  1021   000FA2                     IPR2            equ	4002	;# 
  1022   000FA3                     PIE3            equ	4003	;# 
  1023   000FA4                     PIR3            equ	4004	;# 
  1024   000FA5                     IPR3            equ	4005	;# 
  1025   000FA6                     EECON1          equ	4006	;# 
  1026   000FA7                     EECON2          equ	4007	;# 
  1027   000FA8                     EEDATA          equ	4008	;# 
  1028   000FA9                     EEADR           equ	4009	;# 
  1029   000FAB                     RCSTA1          equ	4011	;# 
  1030   000FAB                     RCSTA           equ	4011	;# 
  1031   000FAC                     TXSTA1          equ	4012	;# 
  1032   000FAC                     TXSTA           equ	4012	;# 
  1033   000FAD                     TXREG1          equ	4013	;# 
  1034   000FAD                     TXREG           equ	4013	;# 
  1035   000FAE                     RCREG1          equ	4014	;# 
  1036   000FAE                     RCREG           equ	4014	;# 
  1037   000FAF                     SPBRG1          equ	4015	;# 
  1038   000FAF                     SPBRG           equ	4015	;# 
  1039   000FB0                     SPBRGH1         equ	4016	;# 
  1040   000FB0                     SPBRGH          equ	4016	;# 
  1041   000FB1                     T3CON           equ	4017	;# 
  1042   000FB2                     TMR3            equ	4018	;# 
  1043   000FB2                     TMR3L           equ	4018	;# 
  1044   000FB3                     TMR3H           equ	4019	;# 
  1045   000FB4                     T3GCON          equ	4020	;# 
  1046   000FB5                     ACTCON          equ	4021	;# 
  1047   000FB5                     STCON           equ	4021	;# 
  1048   000FB6                     ECCP1AS         equ	4022	;# 
  1049   000FB7                     PWM1CON         equ	4023	;# 
  1050   000FB7                     ECCP1DEL        equ	4023	;# 
  1051   000FB8                     BAUDCON1        equ	4024	;# 
  1052   000FB8                     BAUDCON         equ	4024	;# 
  1053   000FB8                     BAUDCTL         equ	4024	;# 
  1054   000FB9                     PSTR1CON        equ	4025	;# 
  1055   000FBA                     T2CON           equ	4026	;# 
  1056   000FBB                     PR2             equ	4027	;# 
  1057   000FBC                     TMR2            equ	4028	;# 
  1058   000FBD                     CCP1CON         equ	4029	;# 
  1059   000FBD                     ECCP1CON        equ	4029	;# 
  1060   000FBE                     CCPR1           equ	4030	;# 
  1061   000FBE                     CCPR1L          equ	4030	;# 
  1062   000FBF                     CCPR1H          equ	4031	;# 
  1063   000FC0                     ADCON2          equ	4032	;# 
  1064   000FC1                     ADCON1          equ	4033	;# 
  1065   000FC2                     ADCON0          equ	4034	;# 
  1066   000FC3                     ADRESL          equ	4035	;# 
  1067   000FC4                     ADRESH          equ	4036	;# 
  1068   000FC5                     SSP1CON2        equ	4037	;# 
  1069   000FC5                     SSPCON2         equ	4037	;# 
  1070   000FC6                     SSP1CON1        equ	4038	;# 
  1071   000FC6                     SSPCON          equ	4038	;# 
  1072   000FC6                     SSPCON1         equ	4038	;# 
  1073   000FC7                     SSP1STAT        equ	4039	;# 
  1074   000FC7                     SSPSTAT         equ	4039	;# 
  1075   000FC8                     SSP1ADD         equ	4040	;# 
  1076   000FC8                     SSPADD          equ	4040	;# 
  1077   000FC9                     SSP1BUF         equ	4041	;# 
  1078   000FC9                     SSPBUF          equ	4041	;# 
  1079   000FCA                     SSP1MSK         equ	4042	;# 
  1080   000FCA                     SSPMSK          equ	4042	;# 
  1081   000FCB                     SSP1CON3        equ	4043	;# 
  1082   000FCB                     SSPCON3         equ	4043	;# 
  1083   000FCC                     T1GCON          equ	4044	;# 
  1084   000FCD                     T1CON           equ	4045	;# 
  1085   000FCE                     TMR1            equ	4046	;# 
  1086   000FCE                     TMR1L           equ	4046	;# 
  1087   000FCF                     TMR1H           equ	4047	;# 
  1088   000FD0                     RCON            equ	4048	;# 
  1089   000FD1                     WDTCON          equ	4049	;# 
  1090   000FD2                     OSCCON2         equ	4050	;# 
  1091   000FD3                     OSCCON          equ	4051	;# 
  1092   000FD5                     T0CON           equ	4053	;# 
  1093   000FD6                     TMR0            equ	4054	;# 
  1094   000FD6                     TMR0L           equ	4054	;# 
  1095   000FD7                     TMR0H           equ	4055	;# 
  1096   000FD8                     STATUS          equ	4056	;# 
  1097   000FD9                     FSR2            equ	4057	;# 
  1098   000FD9                     FSR2L           equ	4057	;# 
  1099   000FDA                     FSR2H           equ	4058	;# 
  1100   000FDB                     PLUSW2          equ	4059	;# 
  1101   000FDC                     PREINC2         equ	4060	;# 
  1102   000FDD                     POSTDEC2        equ	4061	;# 
  1103   000FDE                     POSTINC2        equ	4062	;# 
  1104   000FDF                     INDF2           equ	4063	;# 
  1105   000FE0                     BSR             equ	4064	;# 
  1106   000FE1                     FSR1            equ	4065	;# 
  1107   000FE1                     FSR1L           equ	4065	;# 
  1108   000FE2                     FSR1H           equ	4066	;# 
  1109   000FE3                     PLUSW1          equ	4067	;# 
  1110   000FE4                     PREINC1         equ	4068	;# 
  1111   000FE5                     POSTDEC1        equ	4069	;# 
  1112   000FE6                     POSTINC1        equ	4070	;# 
  1113   000FE7                     INDF1           equ	4071	;# 
  1114   000FE8                     WREG            equ	4072	;# 
  1115   000FE9                     FSR0            equ	4073	;# 
  1116   000FE9                     FSR0L           equ	4073	;# 
  1117   000FEA                     FSR0H           equ	4074	;# 
  1118   000FEB                     PLUSW0          equ	4075	;# 
  1119   000FEC                     PREINC0         equ	4076	;# 
  1120   000FED                     POSTDEC0        equ	4077	;# 
  1121   000FEE                     POSTINC0        equ	4078	;# 
  1122   000FEF                     INDF0           equ	4079	;# 
  1123   000FF0                     INTCON3         equ	4080	;# 
  1124   000FF1                     INTCON2         equ	4081	;# 
  1125   000FF2                     INTCON          equ	4082	;# 
  1126   000FF3                     PROD            equ	4083	;# 
  1127   000FF3                     PRODL           equ	4083	;# 
  1128   000FF4                     PRODH           equ	4084	;# 
  1129   000FF5                     TABLAT          equ	4085	;# 
  1130   000FF6                     TBLPTR          equ	4086	;# 
  1131   000FF6                     TBLPTRL         equ	4086	;# 
  1132   000FF7                     TBLPTRH         equ	4087	;# 
  1133   000FF8                     TBLPTRU         equ	4088	;# 
  1134   000FF9                     PCLAT           equ	4089	;# 
  1135   000FF9                     PC              equ	4089	;# 
  1136   000FF9                     PCL             equ	4089	;# 
  1137   000FFA                     PCLATH          equ	4090	;# 
  1138   000FFB                     PCLATU          equ	4091	;# 
  1139   000FFC                     STKPTR          equ	4092	;# 
  1140   000FFD                     TOS             equ	4093	;# 
  1141   000FFD                     TOSL            equ	4093	;# 
  1142   000FFE                     TOSH            equ	4094	;# 
  1143   000FFF                     TOSU            equ	4095	;# 
  1144   000F57                     SRCON1          equ	3927	;# 
  1145   000F58                     SRCON0          equ	3928	;# 
  1146   000F59                     CCPTMRS         equ	3929	;# 
  1147   000F5A                     VREGCON         equ	3930	;# 
  1148   000F5B                     ANSELA          equ	3931	;# 
  1149   000F5C                     ANSELB          equ	3932	;# 
  1150   000F5D                     ANSELC          equ	3933	;# 
  1151   000F60                     UCON            equ	3936	;# 
  1152   000F61                     USTAT           equ	3937	;# 
  1153   000F62                     UCFG            equ	3938	;# 
  1154   000F63                     UADDR           equ	3939	;# 
  1155   000F64                     UIE             equ	3940	;# 
  1156   000F65                     UIR             equ	3941	;# 
  1157   000F66                     UEIE            equ	3942	;# 
  1158   000F67                     UEIR            equ	3943	;# 
  1159   000F68                     UFRM            equ	3944	;# 
  1160   000F68                     UFRML           equ	3944	;# 
  1161   000F69                     UFRMH           equ	3945	;# 
  1162   000F6A                     UEP0            equ	3946	;# 
  1163   000F6B                     UEP1            equ	3947	;# 
  1164   000F6C                     UEP2            equ	3948	;# 
  1165   000F6D                     UEP3            equ	3949	;# 
  1166   000F6E                     UEP4            equ	3950	;# 
  1167   000F6F                     UEP5            equ	3951	;# 
  1168   000F70                     UEP6            equ	3952	;# 
  1169   000F71                     UEP7            equ	3953	;# 
  1170   000F72                     UEP8            equ	3954	;# 
  1171   000F73                     UEP9            equ	3955	;# 
  1172   000F74                     UEP10           equ	3956	;# 
  1173   000F75                     UEP11           equ	3957	;# 
  1174   000F76                     UEP12           equ	3958	;# 
  1175   000F77                     UEP13           equ	3959	;# 
  1176   000F78                     UEP14           equ	3960	;# 
  1177   000F79                     UEP15           equ	3961	;# 
  1178   000F7A                     SLRCON          equ	3962	;# 
  1179   000F7B                     VREFCON2        equ	3963	;# 
  1180   000F7C                     VREFCON1        equ	3964	;# 
  1181   000F7D                     VREFCON0        equ	3965	;# 
  1182   000F7E                     PMD0            equ	3966	;# 
  1183   000F7F                     PMD1            equ	3967	;# 
  1184   000F80                     PORTA           equ	3968	;# 
  1185   000F81                     PORTB           equ	3969	;# 
  1186   000F82                     PORTC           equ	3970	;# 
  1187   000F84                     PORTE           equ	3972	;# 
  1188   000F85                     WPUB            equ	3973	;# 
  1189   000F86                     IOCB            equ	3974	;# 
  1190   000F87                     IOCC            equ	3975	;# 
  1191   000F88                     CTMUICON        equ	3976	;# 
  1192   000F89                     LATA            equ	3977	;# 
  1193   000F8A                     LATB            equ	3978	;# 
  1194   000F8B                     LATC            equ	3979	;# 
  1195   000F8E                     CTMUCONL        equ	3982	;# 
  1196   000F8E                     CTMUCON1        equ	3982	;# 
  1197   000F8F                     CTMUCONH        equ	3983	;# 
  1198   000F8F                     CTMUCON0        equ	3983	;# 
  1199   000F90                     CCPR2           equ	3984	;# 
  1200   000F90                     CCPR2L          equ	3984	;# 
  1201   000F91                     CCPR2H          equ	3985	;# 
  1202   000F92                     TRISA           equ	3986	;# 
  1203   000F92                     DDRA            equ	3986	;# 
  1204   000F93                     TRISB           equ	3987	;# 
  1205   000F93                     DDRB            equ	3987	;# 
  1206   000F94                     TRISC           equ	3988	;# 
  1207   000F94                     DDRC            equ	3988	;# 
  1208   000F97                     CCP2CON         equ	3991	;# 
  1209   000F97                     ECCP2CON        equ	3991	;# 
  1210   000F98                     CM1CON0         equ	3992	;# 
  1211   000F99                     CM2CON0         equ	3993	;# 
  1212   000F9A                     CM2CON1         equ	3994	;# 
  1213   000F9B                     OSCTUNE         equ	3995	;# 
  1214   000F9C                     HLVDCON         equ	3996	;# 
  1215   000F9D                     PIE1            equ	3997	;# 
  1216   000F9E                     PIR1            equ	3998	;# 
  1217   000F9F                     IPR1            equ	3999	;# 
  1218   000FA0                     PIE2            equ	4000	;# 
  1219   000FA1                     PIR2            equ	4001	;# 
  1220   000FA2                     IPR2            equ	4002	;# 
  1221   000FA3                     PIE3            equ	4003	;# 
  1222   000FA4                     PIR3            equ	4004	;# 
  1223   000FA5                     IPR3            equ	4005	;# 
  1224   000FA6                     EECON1          equ	4006	;# 
  1225   000FA7                     EECON2          equ	4007	;# 
  1226   000FA8                     EEDATA          equ	4008	;# 
  1227   000FA9                     EEADR           equ	4009	;# 
  1228   000FAB                     RCSTA1          equ	4011	;# 
  1229   000FAB                     RCSTA           equ	4011	;# 
  1230   000FAC                     TXSTA1          equ	4012	;# 
  1231   000FAC                     TXSTA           equ	4012	;# 
  1232   000FAD                     TXREG1          equ	4013	;# 
  1233   000FAD                     TXREG           equ	4013	;# 
  1234   000FAE                     RCREG1          equ	4014	;# 
  1235   000FAE                     RCREG           equ	4014	;# 
  1236   000FAF                     SPBRG1          equ	4015	;# 
  1237   000FAF                     SPBRG           equ	4015	;# 
  1238   000FB0                     SPBRGH1         equ	4016	;# 
  1239   000FB0                     SPBRGH          equ	4016	;# 
  1240   000FB1                     T3CON           equ	4017	;# 
  1241   000FB2                     TMR3            equ	4018	;# 
  1242   000FB2                     TMR3L           equ	4018	;# 
  1243   000FB3                     TMR3H           equ	4019	;# 
  1244   000FB4                     T3GCON          equ	4020	;# 
  1245   000FB5                     ACTCON          equ	4021	;# 
  1246   000FB5                     STCON           equ	4021	;# 
  1247   000FB6                     ECCP1AS         equ	4022	;# 
  1248   000FB7                     PWM1CON         equ	4023	;# 
  1249   000FB7                     ECCP1DEL        equ	4023	;# 
  1250   000FB8                     BAUDCON1        equ	4024	;# 
  1251   000FB8                     BAUDCON         equ	4024	;# 
  1252   000FB8                     BAUDCTL         equ	4024	;# 
  1253   000FB9                     PSTR1CON        equ	4025	;# 
  1254   000FBA                     T2CON           equ	4026	;# 
  1255   000FBB                     PR2             equ	4027	;# 
  1256   000FBC                     TMR2            equ	4028	;# 
  1257   000FBD                     CCP1CON         equ	4029	;# 
  1258   000FBD                     ECCP1CON        equ	4029	;# 
  1259   000FBE                     CCPR1           equ	4030	;# 
  1260   000FBE                     CCPR1L          equ	4030	;# 
  1261   000FBF                     CCPR1H          equ	4031	;# 
  1262   000FC0                     ADCON2          equ	4032	;# 
  1263   000FC1                     ADCON1          equ	4033	;# 
  1264   000FC2                     ADCON0          equ	4034	;# 
  1265   000FC3                     ADRESL          equ	4035	;# 
  1266   000FC4                     ADRESH          equ	4036	;# 
  1267   000FC5                     SSP1CON2        equ	4037	;# 
  1268   000FC5                     SSPCON2         equ	4037	;# 
  1269   000FC6                     SSP1CON1        equ	4038	;# 
  1270   000FC6                     SSPCON          equ	4038	;# 
  1271   000FC6                     SSPCON1         equ	4038	;# 
  1272   000FC7                     SSP1STAT        equ	4039	;# 
  1273   000FC7                     SSPSTAT         equ	4039	;# 
  1274   000FC8                     SSP1ADD         equ	4040	;# 
  1275   000FC8                     SSPADD          equ	4040	;# 
  1276   000FC9                     SSP1BUF         equ	4041	;# 
  1277   000FC9                     SSPBUF          equ	4041	;# 
  1278   000FCA                     SSP1MSK         equ	4042	;# 
  1279   000FCA                     SSPMSK          equ	4042	;# 
  1280   000FCB                     SSP1CON3        equ	4043	;# 
  1281   000FCB                     SSPCON3         equ	4043	;# 
  1282   000FCC                     T1GCON          equ	4044	;# 
  1283   000FCD                     T1CON           equ	4045	;# 
  1284   000FCE                     TMR1            equ	4046	;# 
  1285   000FCE                     TMR1L           equ	4046	;# 
  1286   000FCF                     TMR1H           equ	4047	;# 
  1287   000FD0                     RCON            equ	4048	;# 
  1288   000FD1                     WDTCON          equ	4049	;# 
  1289   000FD2                     OSCCON2         equ	4050	;# 
  1290   000FD3                     OSCCON          equ	4051	;# 
  1291   000FD5                     T0CON           equ	4053	;# 
  1292   000FD6                     TMR0            equ	4054	;# 
  1293   000FD6                     TMR0L           equ	4054	;# 
  1294   000FD7                     TMR0H           equ	4055	;# 
  1295   000FD8                     STATUS          equ	4056	;# 
  1296   000FD9                     FSR2            equ	4057	;# 
  1297   000FD9                     FSR2L           equ	4057	;# 
  1298   000FDA                     FSR2H           equ	4058	;# 
  1299   000FDB                     PLUSW2          equ	4059	;# 
  1300   000FDC                     PREINC2         equ	4060	;# 
  1301   000FDD                     POSTDEC2        equ	4061	;# 
  1302   000FDE                     POSTINC2        equ	4062	;# 
  1303   000FDF                     INDF2           equ	4063	;# 
  1304   000FE0                     BSR             equ	4064	;# 
  1305   000FE1                     FSR1            equ	4065	;# 
  1306   000FE1                     FSR1L           equ	4065	;# 
  1307   000FE2                     FSR1H           equ	4066	;# 
  1308   000FE3                     PLUSW1          equ	4067	;# 
  1309   000FE4                     PREINC1         equ	4068	;# 
  1310   000FE5                     POSTDEC1        equ	4069	;# 
  1311   000FE6                     POSTINC1        equ	4070	;# 
  1312   000FE7                     INDF1           equ	4071	;# 
  1313   000FE8                     WREG            equ	4072	;# 
  1314   000FE9                     FSR0            equ	4073	;# 
  1315   000FE9                     FSR0L           equ	4073	;# 
  1316   000FEA                     FSR0H           equ	4074	;# 
  1317   000FEB                     PLUSW0          equ	4075	;# 
  1318   000FEC                     PREINC0         equ	4076	;# 
  1319   000FED                     POSTDEC0        equ	4077	;# 
  1320   000FEE                     POSTINC0        equ	4078	;# 
  1321   000FEF                     INDF0           equ	4079	;# 
  1322   000FF0                     INTCON3         equ	4080	;# 
  1323   000FF1                     INTCON2         equ	4081	;# 
  1324   000FF2                     INTCON          equ	4082	;# 
  1325   000FF3                     PROD            equ	4083	;# 
  1326   000FF3                     PRODL           equ	4083	;# 
  1327   000FF4                     PRODH           equ	4084	;# 
  1328   000FF5                     TABLAT          equ	4085	;# 
  1329   000FF6                     TBLPTR          equ	4086	;# 
  1330   000FF6                     TBLPTRL         equ	4086	;# 
  1331   000FF7                     TBLPTRH         equ	4087	;# 
  1332   000FF8                     TBLPTRU         equ	4088	;# 
  1333   000FF9                     PCLAT           equ	4089	;# 
  1334   000FF9                     PC              equ	4089	;# 
  1335   000FF9                     PCL             equ	4089	;# 
  1336   000FFA                     PCLATH          equ	4090	;# 
  1337   000FFB                     PCLATU          equ	4091	;# 
  1338   000FFC                     STKPTR          equ	4092	;# 
  1339   000FFD                     TOS             equ	4093	;# 
  1340   000FFD                     TOSL            equ	4093	;# 
  1341   000FFE                     TOSH            equ	4094	;# 
  1342   000FFF                     TOSU            equ	4095	;# 
  1343   000F57                     SRCON1          equ	3927	;# 
  1344   000F58                     SRCON0          equ	3928	;# 
  1345   000F59                     CCPTMRS         equ	3929	;# 
  1346   000F5A                     VREGCON         equ	3930	;# 
  1347   000F5B                     ANSELA          equ	3931	;# 
  1348   000F5C                     ANSELB          equ	3932	;# 
  1349   000F5D                     ANSELC          equ	3933	;# 
  1350   000F60                     UCON            equ	3936	;# 
  1351   000F61                     USTAT           equ	3937	;# 
  1352   000F62                     UCFG            equ	3938	;# 
  1353   000F63                     UADDR           equ	3939	;# 
  1354   000F64                     UIE             equ	3940	;# 
  1355   000F65                     UIR             equ	3941	;# 
  1356   000F66                     UEIE            equ	3942	;# 
  1357   000F67                     UEIR            equ	3943	;# 
  1358   000F68                     UFRM            equ	3944	;# 
  1359   000F68                     UFRML           equ	3944	;# 
  1360   000F69                     UFRMH           equ	3945	;# 
  1361   000F6A                     UEP0            equ	3946	;# 
  1362   000F6B                     UEP1            equ	3947	;# 
  1363   000F6C                     UEP2            equ	3948	;# 
  1364   000F6D                     UEP3            equ	3949	;# 
  1365   000F6E                     UEP4            equ	3950	;# 
  1366   000F6F                     UEP5            equ	3951	;# 
  1367   000F70                     UEP6            equ	3952	;# 
  1368   000F71                     UEP7            equ	3953	;# 
  1369   000F72                     UEP8            equ	3954	;# 
  1370   000F73                     UEP9            equ	3955	;# 
  1371   000F74                     UEP10           equ	3956	;# 
  1372   000F75                     UEP11           equ	3957	;# 
  1373   000F76                     UEP12           equ	3958	;# 
  1374   000F77                     UEP13           equ	3959	;# 
  1375   000F78                     UEP14           equ	3960	;# 
  1376   000F79                     UEP15           equ	3961	;# 
  1377   000F7A                     SLRCON          equ	3962	;# 
  1378   000F7B                     VREFCON2        equ	3963	;# 
  1379   000F7C                     VREFCON1        equ	3964	;# 
  1380   000F7D                     VREFCON0        equ	3965	;# 
  1381   000F7E                     PMD0            equ	3966	;# 
  1382   000F7F                     PMD1            equ	3967	;# 
  1383   000F80                     PORTA           equ	3968	;# 
  1384   000F81                     PORTB           equ	3969	;# 
  1385   000F82                     PORTC           equ	3970	;# 
  1386   000F84                     PORTE           equ	3972	;# 
  1387   000F85                     WPUB            equ	3973	;# 
  1388   000F86                     IOCB            equ	3974	;# 
  1389   000F87                     IOCC            equ	3975	;# 
  1390   000F88                     CTMUICON        equ	3976	;# 
  1391   000F89                     LATA            equ	3977	;# 
  1392   000F8A                     LATB            equ	3978	;# 
  1393   000F8B                     LATC            equ	3979	;# 
  1394   000F8E                     CTMUCONL        equ	3982	;# 
  1395   000F8E                     CTMUCON1        equ	3982	;# 
  1396   000F8F                     CTMUCONH        equ	3983	;# 
  1397   000F8F                     CTMUCON0        equ	3983	;# 
  1398   000F90                     CCPR2           equ	3984	;# 
  1399   000F90                     CCPR2L          equ	3984	;# 
  1400   000F91                     CCPR2H          equ	3985	;# 
  1401   000F92                     TRISA           equ	3986	;# 
  1402   000F92                     DDRA            equ	3986	;# 
  1403   000F93                     TRISB           equ	3987	;# 
  1404   000F93                     DDRB            equ	3987	;# 
  1405   000F94                     TRISC           equ	3988	;# 
  1406   000F94                     DDRC            equ	3988	;# 
  1407   000F97                     CCP2CON         equ	3991	;# 
  1408   000F97                     ECCP2CON        equ	3991	;# 
  1409   000F98                     CM1CON0         equ	3992	;# 
  1410   000F99                     CM2CON0         equ	3993	;# 
  1411   000F9A                     CM2CON1         equ	3994	;# 
  1412   000F9B                     OSCTUNE         equ	3995	;# 
  1413   000F9C                     HLVDCON         equ	3996	;# 
  1414   000F9D                     PIE1            equ	3997	;# 
  1415   000F9E                     PIR1            equ	3998	;# 
  1416   000F9F                     IPR1            equ	3999	;# 
  1417   000FA0                     PIE2            equ	4000	;# 
  1418   000FA1                     PIR2            equ	4001	;# 
  1419   000FA2                     IPR2            equ	4002	;# 
  1420   000FA3                     PIE3            equ	4003	;# 
  1421   000FA4                     PIR3            equ	4004	;# 
  1422   000FA5                     IPR3            equ	4005	;# 
  1423   000FA6                     EECON1          equ	4006	;# 
  1424   000FA7                     EECON2          equ	4007	;# 
  1425   000FA8                     EEDATA          equ	4008	;# 
  1426   000FA9                     EEADR           equ	4009	;# 
  1427   000FAB                     RCSTA1          equ	4011	;# 
  1428   000FAB                     RCSTA           equ	4011	;# 
  1429   000FAC                     TXSTA1          equ	4012	;# 
  1430   000FAC                     TXSTA           equ	4012	;# 
  1431   000FAD                     TXREG1          equ	4013	;# 
  1432   000FAD                     TXREG           equ	4013	;# 
  1433   000FAE                     RCREG1          equ	4014	;# 
  1434   000FAE                     RCREG           equ	4014	;# 
  1435   000FAF                     SPBRG1          equ	4015	;# 
  1436   000FAF                     SPBRG           equ	4015	;# 
  1437   000FB0                     SPBRGH1         equ	4016	;# 
  1438   000FB0                     SPBRGH          equ	4016	;# 
  1439   000FB1                     T3CON           equ	4017	;# 
  1440   000FB2                     TMR3            equ	4018	;# 
  1441   000FB2                     TMR3L           equ	4018	;# 
  1442   000FB3                     TMR3H           equ	4019	;# 
  1443   000FB4                     T3GCON          equ	4020	;# 
  1444   000FB5                     ACTCON          equ	4021	;# 
  1445   000FB5                     STCON           equ	4021	;# 
  1446   000FB6                     ECCP1AS         equ	4022	;# 
  1447   000FB7                     PWM1CON         equ	4023	;# 
  1448   000FB7                     ECCP1DEL        equ	4023	;# 
  1449   000FB8                     BAUDCON1        equ	4024	;# 
  1450   000FB8                     BAUDCON         equ	4024	;# 
  1451   000FB8                     BAUDCTL         equ	4024	;# 
  1452   000FB9                     PSTR1CON        equ	4025	;# 
  1453   000FBA                     T2CON           equ	4026	;# 
  1454   000FBB                     PR2             equ	4027	;# 
  1455   000FBC                     TMR2            equ	4028	;# 
  1456   000FBD                     CCP1CON         equ	4029	;# 
  1457   000FBD                     ECCP1CON        equ	4029	;# 
  1458   000FBE                     CCPR1           equ	4030	;# 
  1459   000FBE                     CCPR1L          equ	4030	;# 
  1460   000FBF                     CCPR1H          equ	4031	;# 
  1461   000FC0                     ADCON2          equ	4032	;# 
  1462   000FC1                     ADCON1          equ	4033	;# 
  1463   000FC2                     ADCON0          equ	4034	;# 
  1464   000FC3                     ADRESL          equ	4035	;# 
  1465   000FC4                     ADRESH          equ	4036	;# 
  1466   000FC5                     SSP1CON2        equ	4037	;# 
  1467   000FC5                     SSPCON2         equ	4037	;# 
  1468   000FC6                     SSP1CON1        equ	4038	;# 
  1469   000FC6                     SSPCON          equ	4038	;# 
  1470   000FC6                     SSPCON1         equ	4038	;# 
  1471   000FC7                     SSP1STAT        equ	4039	;# 
  1472   000FC7                     SSPSTAT         equ	4039	;# 
  1473   000FC8                     SSP1ADD         equ	4040	;# 
  1474   000FC8                     SSPADD          equ	4040	;# 
  1475   000FC9                     SSP1BUF         equ	4041	;# 
  1476   000FC9                     SSPBUF          equ	4041	;# 
  1477   000FCA                     SSP1MSK         equ	4042	;# 
  1478   000FCA                     SSPMSK          equ	4042	;# 
  1479   000FCB                     SSP1CON3        equ	4043	;# 
  1480   000FCB                     SSPCON3         equ	4043	;# 
  1481   000FCC                     T1GCON          equ	4044	;# 
  1482   000FCD                     T1CON           equ	4045	;# 
  1483   000FCE                     TMR1            equ	4046	;# 
  1484   000FCE                     TMR1L           equ	4046	;# 
  1485   000FCF                     TMR1H           equ	4047	;# 
  1486   000FD0                     RCON            equ	4048	;# 
  1487   000FD1                     WDTCON          equ	4049	;# 
  1488   000FD2                     OSCCON2         equ	4050	;# 
  1489   000FD3                     OSCCON          equ	4051	;# 
  1490   000FD5                     T0CON           equ	4053	;# 
  1491   000FD6                     TMR0            equ	4054	;# 
  1492   000FD6                     TMR0L           equ	4054	;# 
  1493   000FD7                     TMR0H           equ	4055	;# 
  1494   000FD8                     STATUS          equ	4056	;# 
  1495   000FD9                     FSR2            equ	4057	;# 
  1496   000FD9                     FSR2L           equ	4057	;# 
  1497   000FDA                     FSR2H           equ	4058	;# 
  1498   000FDB                     PLUSW2          equ	4059	;# 
  1499   000FDC                     PREINC2         equ	4060	;# 
  1500   000FDD                     POSTDEC2        equ	4061	;# 
  1501   000FDE                     POSTINC2        equ	4062	;# 
  1502   000FDF                     INDF2           equ	4063	;# 
  1503   000FE0                     BSR             equ	4064	;# 
  1504   000FE1                     FSR1            equ	4065	;# 
  1505   000FE1                     FSR1L           equ	4065	;# 
  1506   000FE2                     FSR1H           equ	4066	;# 
  1507   000FE3                     PLUSW1          equ	4067	;# 
  1508   000FE4                     PREINC1         equ	4068	;# 
  1509   000FE5                     POSTDEC1        equ	4069	;# 
  1510   000FE6                     POSTINC1        equ	4070	;# 
  1511   000FE7                     INDF1           equ	4071	;# 
  1512   000FE8                     WREG            equ	4072	;# 
  1513   000FE9                     FSR0            equ	4073	;# 
  1514   000FE9                     FSR0L           equ	4073	;# 
  1515   000FEA                     FSR0H           equ	4074	;# 
  1516   000FEB                     PLUSW0          equ	4075	;# 
  1517   000FEC                     PREINC0         equ	4076	;# 
  1518   000FED                     POSTDEC0        equ	4077	;# 
  1519   000FEE                     POSTINC0        equ	4078	;# 
  1520   000FEF                     INDF0           equ	4079	;# 
  1521   000FF0                     INTCON3         equ	4080	;# 
  1522   000FF1                     INTCON2         equ	4081	;# 
  1523   000FF2                     INTCON          equ	4082	;# 
  1524   000FF3                     PROD            equ	4083	;# 
  1525   000FF3                     PRODL           equ	4083	;# 
  1526   000FF4                     PRODH           equ	4084	;# 
  1527   000FF5                     TABLAT          equ	4085	;# 
  1528   000FF6                     TBLPTR          equ	4086	;# 
  1529   000FF6                     TBLPTRL         equ	4086	;# 
  1530   000FF7                     TBLPTRH         equ	4087	;# 
  1531   000FF8                     TBLPTRU         equ	4088	;# 
  1532   000FF9                     PCLAT           equ	4089	;# 
  1533   000FF9                     PC              equ	4089	;# 
  1534   000FF9                     PCL             equ	4089	;# 
  1535   000FFA                     PCLATH          equ	4090	;# 
  1536   000FFB                     PCLATU          equ	4091	;# 
  1537   000FFC                     STKPTR          equ	4092	;# 
  1538   000FFD                     TOS             equ	4093	;# 
  1539   000FFD                     TOSL            equ	4093	;# 
  1540   000FFE                     TOSH            equ	4094	;# 
  1541   000FFF                     TOSU            equ	4095	;# 
  1542                           
  1543                           	psect	smallconst
  1544   000800                     __psmallconst:
  1545                           	callstack 0
  1546   000800  00                 	db	0
  1547   000801                     _i2c1_fsmStateTable:
  1548                           	callstack 0
  1549   000801  EC                 	db	low _I2C1_DO_IDLE
  1550   000802  12                 	db	high _I2C1_DO_IDLE
  1551   000803  C6                 	db	low _I2C1_DO_SEND_ADR_READ
  1552   000804  12                 	db	high _I2C1_DO_SEND_ADR_READ
  1553   000805  B6                 	db	low _I2C1_DO_SEND_ADR_WRITE
  1554   000806  12                 	db	high _I2C1_DO_SEND_ADR_WRITE
  1555   000807  DE                 	db	low _I2C1_DO_TX
  1556   000808  09                 	db	high _I2C1_DO_TX
  1557   000809  64                 	db	low _I2C1_DO_RX
  1558   00080A  0D                 	db	high _I2C1_DO_RX
  1559   00080B  D6                 	db	low _I2C1_DO_RCEN
  1560   00080C  12                 	db	high _I2C1_DO_RCEN
  1561   00080D  08                 	db	low _I2C1_DO_TX_EMPTY
  1562   00080E  0E                 	db	high _I2C1_DO_TX_EMPTY
  1563   00080F  26                 	db	low _I2C1_DO_SEND_RESTART_READ
  1564   000810  13                 	db	high _I2C1_DO_SEND_RESTART_READ
  1565   000811  1E                 	db	low _I2C1_DO_SEND_RESTART_WRITE
  1566   000812  13                 	db	high _I2C1_DO_SEND_RESTART_WRITE
  1567   000813  16                 	db	low _I2C1_DO_SEND_RESTART
  1568   000814  13                 	db	high _I2C1_DO_SEND_RESTART
  1569   000815  0E                 	db	low _I2C1_DO_SEND_STOP
  1570   000816  13                 	db	high _I2C1_DO_SEND_STOP
  1571   000817  06                 	db	low _I2C1_DO_RX_ACK
  1572   000818  13                 	db	high _I2C1_DO_RX_ACK
  1573   000819  FE                 	db	low _I2C1_DO_RX_NACK_STOP
  1574   00081A  12                 	db	high _I2C1_DO_RX_NACK_STOP
  1575   00081B  F6                 	db	low _I2C1_DO_RX_NACK_RESTART
  1576   00081C  12                 	db	high _I2C1_DO_RX_NACK_RESTART
  1577   00081D  E2                 	db	low _I2C1_DO_RESET
  1578   00081E  12                 	db	high _I2C1_DO_RESET
  1579   00081F  82                 	db	low _I2C1_DO_ADDRESS_NACK
  1580   000820  0E                 	db	high _I2C1_DO_ADDRESS_NACK
  1581   000821                     __end_of_i2c1_fsmStateTable:
  1582                           	callstack 0
  1583   000F5C                     _ANSELB         set	3932
  1584   000F81                     _PORTBbits      set	3969
  1585   000FC7                     _SSP1STATbits   set	4039
  1586   000FC5                     _SSP1CON2bits   set	4037
  1587   000FC9                     _SSP1BUF        set	4041
  1588   000FC6                     _SSP1CON1bits   set	4038
  1589   000FC8                     _SSP1ADD        set	4040
  1590   000FC5                     _SSP1CON2       set	4037
  1591   000FC6                     _SSP1CON1       set	4038
  1592   000FC7                     _SSP1STAT       set	4039
  1593   000F9E                     _PIR1bits       set	3998
  1594   000F9D                     _PIE1bits       set	3997
  1595   000FA1                     _PIR2bits       set	4001
  1596   000FA0                     _PIE2bits       set	4000
  1597   000FD0                     _RCONbits       set	4048
  1598   000FB5                     _ACTCON         set	4021
  1599   000F9B                     _OSCTUNE        set	3995
  1600   000FD2                     _OSCCON2        set	4050
  1601   000FD3                     _OSCCON         set	4051
  1602   000FF2                     _INTCONbits     set	4082
  1603   000FF1                     _INTCON2bits    set	4081
  1604   000F85                     _WPUBbits       set	3973
  1605   000F93                     _TRISB          set	3987
  1606   000F8B                     _LATC           set	3979
  1607   000F8A                     _LATB           set	3978
  1608   000F89                     _LATA           set	3977
  1609   007E97                     _PLLRDY         set	32407
  1610   000821                     STR_1:
  1611   000821  25                 	db	37
  1612   000822  64                 	db	100	;'d'
  1613   000823  00                 	db	0
  1614   000824  00                 	db	0	; dummy byte at the end
  1615   000002                     __activetblptr  equ	2
  1616                           
  1617                           ; #config settings
  1618                           
  1619                           	psect	cinit
  1620   0010C2                     __pcinit:
  1621                           	callstack 0
  1622   0010C2                     start_initialization:
  1623                           	callstack 0
  1624   0010C2                     __initialization:
  1625                           	callstack 0
  1626                           
  1627                           ; Clear objects allocated to BANK0 (62 bytes)
  1628   0010C2  EE00  F060         	lfsr	0,__pbssBANK0
  1629   0010C6  0E3E               	movlw	62
  1630   0010C8                     clear_0:
  1631   0010C8  6AEE               	clrf	postinc0,c
  1632   0010CA  06E8               	decf	wreg,f,c
  1633   0010CC  E1FD               	bnz	clear_0
  1634                           
  1635                           ; Clear objects allocated to COMRAM (9 bytes)
  1636   0010CE  EE00  F040         	lfsr	0,__pbssCOMRAM
  1637   0010D2  0E09               	movlw	9
  1638   0010D4                     clear_1:
  1639   0010D4  6AEE               	clrf	postinc0,c
  1640   0010D6  06E8               	decf	wreg,f,c
  1641   0010D8  E1FD               	bnz	clear_1
  1642   0010DA                     end_of_initialization:
  1643                           	callstack 0
  1644   0010DA                     __end_of__initialization:
  1645                           	callstack 0
  1646   0010DA  9049               	bcf	int$flags,0,c	;clear compiler interrupt flag (level 1)
  1647   0010DC  9249               	bcf	int$flags,1,c	;clear compiler interrupt flag (level 2)
  1648   0010DE  0E00               	movlw	low (__Lmediumconst shr (0+16))
  1649   0010E0  6EF8               	movwf	tblptru,c
  1650   0010E2  0100               	movlb	0
  1651   0010E4  EF5E  F006         	goto	_main	;jump to C main() function
  1652                           
  1653                           	psect	bssCOMRAM
  1654   000040                     __pbssCOMRAM:
  1655                           	callstack 0
  1656   000040                     _width:
  1657                           	callstack 0
  1658   000040                     	ds	2
  1659   000042                     _prec:
  1660                           	callstack 0
  1661   000042                     	ds	2
  1662   000044                     _MSSP1_InterruptHandler:
  1663                           	callstack 0
  1664   000044                     	ds	2
  1665   000046                     _flags:
  1666                           	callstack 0
  1667   000046                     	ds	1
  1668   000047                     _display_cursor_blink:
  1669                           	callstack 0
  1670   000047                     	ds	1
  1671   000048                     _pcf_port:
  1672                           	callstack 0
  1673   000048                     	ds	1
  1674                           
  1675                           	psect	bssBANK0
  1676   000060                     __pbssBANK0:
  1677                           	callstack 0
  1678   000060                     _dbuf:
  1679                           	callstack 0
  1680   000060                     	ds	32
  1681   000080                     _I2C1_Status:
  1682                           	callstack 0
  1683   000080                     	ds	30
  1684                           
  1685                           	psect	cstackBANK0
  1686   00009E                     __pcstackBANK0:
  1687                           	callstack 0
  1688   00009E                     ??_main:
  1689                           
  1690                           ; 1 bytes @ 0x0
  1691   00009E                     	ds	2
  1692   0000A0                     main@Contadorstr:
  1693                           	callstack 0
  1694                           
  1695                           ; 10 bytes @ 0x2
  1696   0000A0                     	ds	10
  1697   0000AA                     main@Contador:
  1698                           	callstack 0
  1699                           
  1700                           ; 2 bytes @ 0xC
  1701   0000AA                     	ds	2
  1702   0000AC                     main@PulsadorE:
  1703                           	callstack 0
  1704                           
  1705                           ; 2 bytes @ 0xE
  1706   0000AC                     	ds	2
  1707                           
  1708                           	psect	cstackCOMRAM
  1709   000001                     __pcstackCOMRAM:
  1710                           	callstack 0
  1711   000001                     I2C1_MasterSendTxData@data:
  1712                           	callstack 0
  1713   000001                     I2C1_SetBuffer@buffer:
  1714                           	callstack 0
  1715   000001                     I2C1_SetCallback@cb:
  1716                           	callstack 0
  1717   000001                     
  1718                           ; 1 bytes @ 0x0
  1719   000001                     	ds	1
  1720   000002                     
  1721                           ; 1 bytes @ 0x1
  1722   000002                     	ds	1
  1723   000003                     I2C1_SetCallback@ptr:
  1724                           	callstack 0
  1725   000003                     I2C1_SetBuffer@bufferSize:
  1726                           	callstack 0
  1727                           
  1728                           ; 2 bytes @ 0x2
  1729   000003                     	ds	1
  1730   000004                     I2C1_SetCallback@idx:
  1731                           	callstack 0
  1732   000004                     
  1733                           ; 1 bytes @ 0x3
  1734   000004                     	ds	1
  1735   000005                     I2C1_SetDataCompleteCallback@cb:
  1736                           	callstack 0
  1737   000005                     
  1738                           ; 1 bytes @ 0x4
  1739   000005                     	ds	2
  1740   000007                     I2C1_SetDataCompleteCallback@ptr:
  1741                           	callstack 0
  1742                           
  1743                           ; 1 bytes @ 0x6
  1744   000007                     	ds	1
  1745   000008                     rd1RegCompleteHandler@ptr:
  1746                           	callstack 0
  1747   000008                     rd2RegCompleteHandler@ptr:
  1748                           	callstack 0
  1749   000008                     wr1RegCompleteHandler@ptr:
  1750                           	callstack 0
  1751   000008                     wr2RegCompleteHandler@ptr:
  1752                           	callstack 0
  1753   000008                     rdBlkRegCompleteHandler@ptr:
  1754                           	callstack 0
  1755   000008                     wr1RegCompleteHandler@i2c_simple_master$F670@p:
  1756                           	callstack 0
  1757   000008                     rd1RegCompleteHandler@i2c_simple_master$F680@p:
  1758                           	callstack 0
  1759   000008                     rd2RegCompleteHandler@i2c_simple_master$F688@p:
  1760                           	callstack 0
  1761   000008                     wr2RegCompleteHandler@i2c_simple_master$F694@p:
  1762                           	callstack 0
  1763   000008                     rdBlkRegCompleteHandler@i2c_simple_master$F700@p:
  1764                           	callstack 0
  1765   000008                     I2C1_CallbackReturnReset@funPtr:
  1766                           	callstack 0
  1767   000008                     
  1768                           ; 1 bytes @ 0x7
  1769   000008                     	ds	1
  1770   000009                     ??_rdBlkRegCompleteHandler:
  1771   000009                     ??_rdBlkRegCompleteHandler@i2c_simple_master$F700:
  1772                           
  1773                           ; 1 bytes @ 0x8
  1774   000009                     	ds	1
  1775   00000A                     ??_I2C1_DO_TX:
  1776   00000A                     ??_I2C1_DO_RX:
  1777   00000A                     ??_I2C1_DO_TX_EMPTY:
  1778   00000A                     ??_I2C1_DO_ADDRESS_NACK:
  1779                           
  1780                           ; 1 bytes @ 0x9
  1781   00000A                     	ds	2
  1782   00000C                     ??_I2C1_MasterFsm:
  1783                           
  1784                           ; 1 bytes @ 0xB
  1785   00000C                     	ds	1
  1786   00000D                     ??_INTERRUPT_InterruptManager:
  1787                           
  1788                           ; 1 bytes @ 0xC
  1789   00000D                     	ds	10
  1790   000017                     ?___awdiv:
  1791                           	callstack 0
  1792   000017                     ?___awmod:
  1793                           	callstack 0
  1794   000017                     ___awdiv@dividend:
  1795                           	callstack 0
  1796   000017                     ___awmod@dividend:
  1797                           	callstack 0
  1798   000017                     fputc@c:
  1799                           	callstack 0
  1800   000017                     
  1801                           ; 1 bytes @ 0x16
  1802   000017                     	ds	2
  1803   000019                     fputc@fp:
  1804                           	callstack 0
  1805   000019                     ___awdiv@divisor:
  1806                           	callstack 0
  1807   000019                     ___awmod@divisor:
  1808                           	callstack 0
  1809                           
  1810                           ; 2 bytes @ 0x18
  1811   000019                     	ds	1
  1812   00001A                     ??_fputc:
  1813                           
  1814                           ; 1 bytes @ 0x19
  1815   00001A                     	ds	1
  1816   00001B                     ___awdiv@counter:
  1817                           	callstack 0
  1818   00001B                     ___awmod@counter:
  1819                           	callstack 0
  1820   00001B                     
  1821                           ; 1 bytes @ 0x1A
  1822   00001B                     	ds	1
  1823   00001C                     ___awdiv@sign:
  1824                           	callstack 0
  1825   00001C                     ___awmod@sign:
  1826                           	callstack 0
  1827                           
  1828                           ; 1 bytes @ 0x1B
  1829   00001C                     	ds	1
  1830   00001D                     ?_abs:
  1831                           	callstack 0
  1832   00001D                     ___awdiv@quotient:
  1833                           	callstack 0
  1834   00001D                     abs@a:
  1835                           	callstack 0
  1836                           
  1837                           ; 2 bytes @ 0x1C
  1838   00001D                     	ds	2
  1839   00001F                     ??_abs:
  1840                           
  1841                           ; 1 bytes @ 0x1E
  1842   00001F                     	ds	2
  1843   000021                     vfpfcnvrt@fp:
  1844                           	callstack 0
  1845                           
  1846                           ; 1 bytes @ 0x20
  1847   000021                     	ds	1
  1848   000022                     vfpfcnvrt@fmt:
  1849                           	callstack 0
  1850                           
  1851                           ; 1 bytes @ 0x21
  1852   000022                     	ds	1
  1853   000023                     vfpfcnvrt@ap:
  1854                           	callstack 0
  1855                           
  1856                           ; 1 bytes @ 0x22
  1857   000023                     	ds	1
  1858   000024                     ??_vfpfcnvrt:
  1859                           
  1860                           ; 1 bytes @ 0x23
  1861   000024                     	ds	1
  1862   000025                     vfpfcnvrt@done:
  1863                           	callstack 0
  1864                           
  1865                           ; 1 bytes @ 0x24
  1866   000025                     	ds	1
  1867   000026                     vfpfcnvrt@cp:
  1868                           	callstack 0
  1869                           
  1870                           ; 1 bytes @ 0x25
  1871   000026                     	ds	1
  1872   000027                     vfpfcnvrt@convarg:
  1873                           	callstack 0
  1874                           
  1875                           ; 4 bytes @ 0x26
  1876   000027                     	ds	4
  1877   00002B                     vfpfcnvrt@c:
  1878                           	callstack 0
  1879                           
  1880                           ; 1 bytes @ 0x2A
  1881   00002B                     	ds	1
  1882   00002C                     ?_vfprintf:
  1883                           	callstack 0
  1884   00002C                     vfprintf@fp:
  1885                           	callstack 0
  1886                           
  1887                           ; 1 bytes @ 0x2B
  1888   00002C                     	ds	1
  1889   00002D                     vfprintf@fmt:
  1890                           	callstack 0
  1891                           
  1892                           ; 1 bytes @ 0x2C
  1893   00002D                     	ds	1
  1894   00002E                     vfprintf@ap:
  1895                           	callstack 0
  1896                           
  1897                           ; 1 bytes @ 0x2D
  1898   00002E                     	ds	1
  1899   00002F                     vfprintf@cfmt:
  1900                           	callstack 0
  1901   00002F                     
  1902                           ; 1 bytes @ 0x2E
  1903   00002F                     	ds	1
  1904   000030                     ?_sprintf:
  1905                           	callstack 0
  1906   000030                     sprintf@s:
  1907                           	callstack 0
  1908                           
  1909                           ; 1 bytes @ 0x2F
  1910   000030                     	ds	1
  1911   000031                     sprintf@fmt:
  1912                           	callstack 0
  1913                           
  1914                           ; 1 bytes @ 0x30
  1915   000031                     	ds	3
  1916   000034                     sprintf@ap:
  1917                           	callstack 0
  1918   000034                     
  1919                           ; 1 bytes @ 0x33
  1920   000034                     	ds	1
  1921   000035                     sprintf@f:
  1922                           	callstack 0
  1923                           
  1924                           ; 11 bytes @ 0x34
  1925   000035                     	ds	11
  1926                           
  1927 ;;
  1928 ;;Main: autosize = 0, tempsize = 2, incstack = 0, save=0
  1929 ;;
  1930 ;; *************** function _main *****************
  1931 ;; Defined at:
  1932 ;;		line 53 in file "main.c"
  1933 ;; Parameters:    Size  Location     Type
  1934 ;;		None
  1935 ;; Auto vars:     Size  Location     Type
  1936 ;;  Contadorstr    10    2[BANK0 ] unsigned char [10]
  1937 ;;  PulsadorE       2   14[BANK0 ] int 
  1938 ;;  Contador        2   12[BANK0 ] int 
  1939 ;; Return value:  Size  Location     Type
  1940 ;;                  1    wreg      void 
  1941 ;; Registers used:
  1942 ;;		wreg, fsr1l, fsr1h, fsr2l, fsr2h, status,2, status,0, tblptrl, tblptrh, tblptru, cstack
  1943 ;; Tracked objects:
  1944 ;;		On entry : 0/0
  1945 ;;		On exit  : 0/0
  1946 ;;		Unchanged: 0/0
  1947 ;; Data sizes:     COMRAM   BANK0   BANK1   BANK2   BANK3   BANK4   BANK5   BANK6   BANK7
  1948 ;;      Params:         0       0       0       0       0       0       0       0       0
  1949 ;;      Locals:         0      14       0       0       0       0       0       0       0
  1950 ;;      Temps:          0       2       0       0       0       0       0       0       0
  1951 ;;      Totals:         0      16       0       0       0       0       0       0       0
  1952 ;;Total ram usage:       16 bytes
  1953 ;; Hardware stack levels required when called: 12
  1954 ;; This function calls:
  1955 ;;		_SYSTEM_Initialize
  1956 ;;		_sprintf
  1957 ;; This function is called by:
  1958 ;;		Startup code after reset
  1959 ;; This function uses a non-reentrant model
  1960 ;;
  1961                           
  1962                           	psect	text0
  1963   000CBC                     __ptext0:
  1964                           	callstack 0
  1965   000CBC                     _main:
  1966                           	callstack 19
  1967   000CBC                     
  1968                           ;main.c: 55:     char Contadorstr[10];;main.c: 56:     int Contador=0;
  1969   000CBC  0E00               	movlw	0
  1970   000CBE  0100               	movlb	0	; () banked
  1971   000CC0  6FAB               	movwf	(main@Contador+1)& (0+255),b
  1972   000CC2  0E00               	movlw	0
  1973   000CC4  6FAA               	movwf	main@Contador& (0+255),b
  1974                           
  1975                           ;main.c: 57:     int PulsadorE=0;
  1976   000CC6  0E00               	movlw	0
  1977   000CC8  6FAD               	movwf	(main@PulsadorE+1)& (0+255),b
  1978   000CCA  0E00               	movlw	0
  1979   000CCC  6FAC               	movwf	main@PulsadorE& (0+255),b
  1980   000CCE                     
  1981                           ; BSR set to: 0
  1982                           ;main.c: 59:     SYSTEM_Initialize();
  1983   000CCE  EC4A  F009         	call	_SYSTEM_Initialize	;wreg free
  1984   000CD2                     
  1985                           ;main.c: 66:     (INTCONbits.GIE = 1);
  1986   000CD2  8EF2               	bsf	242,7,c	;volatile
  1987   000CD4                     
  1988                           ;main.c: 72:     (INTCONbits.PEIE = 1);
  1989   000CD4  8CF2               	bsf	242,6,c	;volatile
  1990   000CD6                     
  1991                           ;main.c: 76:     _delay((unsigned long)((500)*(48000000/4000.0)));
  1992   000CD6  0E1F               	movlw	31
  1993   000CD8  0100               	movlb	0	; () banked
  1994   000CDA  6F9F               	movwf	(??_main+1)& (0+255),b
  1995   000CDC  0E71               	movlw	113
  1996   000CDE  6F9E               	movwf	??_main& (0+255),b
  1997   000CE0  0E1E               	movlw	30
  1998   000CE2                     u1907:
  1999   000CE2  2EE8               	decfsz	wreg,f,c
  2000   000CE4  D7FE               	bra	u1907
  2001   000CE6  2F9E               	decfsz	??_main& (0+255),f,b
  2002   000CE8  D7FC               	bra	u1907
  2003   000CEA  2F9F               	decfsz	(??_main+1)& (0+255),f,b
  2004   000CEC  D7FA               	bra	u1907
  2005   000CEE  0000               	nop	
  2006   000CF0                     l3882:
  2007                           
  2008                           ;main.c: 79:     {;main.c: 81:         if(PORTBbits.RB0 == 0 && PulsadorE == 0){
  2009   000CF0  B081               	btfsc	129,0,c	;volatile
  2010   000CF2  EF7D  F006         	goto	u1861
  2011   000CF6  EF7F  F006         	goto	u1860
  2012   000CFA                     u1861:
  2013   000CFA  EF8D  F006         	goto	l3888
  2014   000CFE                     u1860:
  2015   000CFE  0100               	movlb	0	; () banked
  2016   000D00  51AC               	movf	main@PulsadorE& (0+255),w,b
  2017   000D02  11AD               	iorwf	(main@PulsadorE+1)& (0+255),w,b
  2018   000D04  A4D8               	btfss	status,2,c
  2019   000D06  EF87  F006         	goto	u1871
  2020   000D0A  EF89  F006         	goto	u1870
  2021   000D0E                     u1871:
  2022   000D0E  EF8D  F006         	goto	l3888
  2023   000D12                     u1870:
  2024   000D12                     
  2025                           ; BSR set to: 0
  2026                           ;main.c: 82:             PulsadorE=1;
  2027   000D12  0E00               	movlw	0
  2028   000D14  6FAD               	movwf	(main@PulsadorE+1)& (0+255),b
  2029   000D16  0E01               	movlw	1
  2030   000D18  6FAC               	movwf	main@PulsadorE& (0+255),b
  2031   000D1A                     l3888:
  2032                           
  2033                           ;main.c: 85:         if(PulsadorE == 1 && PORTBbits.RB0==1){
  2034   000D1A  0100               	movlb	0	; () banked
  2035   000D1C  05AC               	decf	main@PulsadorE& (0+255),w,b
  2036   000D1E  11AD               	iorwf	(main@PulsadorE+1)& (0+255),w,b
  2037   000D20  A4D8               	btfss	status,2,c
  2038   000D22  EF95  F006         	goto	u1881
  2039   000D26  EF97  F006         	goto	u1880
  2040   000D2A                     u1881:
  2041   000D2A  EF78  F006         	goto	l3882
  2042   000D2E                     u1880:
  2043   000D2E                     
  2044                           ; BSR set to: 0
  2045   000D2E  A081               	btfss	129,0,c	;volatile
  2046   000D30  EF9C  F006         	goto	u1891
  2047   000D34  EF9E  F006         	goto	u1890
  2048   000D38                     u1891:
  2049   000D38  EF78  F006         	goto	l3882
  2050   000D3C                     u1890:
  2051   000D3C                     
  2052                           ; BSR set to: 0
  2053                           ;main.c: 86:             PulsadorE = 0;
  2054   000D3C  0E00               	movlw	0
  2055   000D3E  6FAD               	movwf	(main@PulsadorE+1)& (0+255),b
  2056   000D40  0E00               	movlw	0
  2057   000D42  6FAC               	movwf	main@PulsadorE& (0+255),b
  2058   000D44                     
  2059                           ; BSR set to: 0
  2060                           ;main.c: 87:             Contador++;
  2061   000D44  4BAA               	infsnz	main@Contador& (0+255),f,b
  2062   000D46  2BAB               	incf	(main@Contador+1)& (0+255),f,b
  2063   000D48                     
  2064                           ; BSR set to: 0
  2065                           ;main.c: 88:             sprintf(Contadorstr,"%d",Contador);
  2066   000D48  0EA0               	movlw	low main@Contadorstr
  2067   000D4A  6E30               	movwf	sprintf@s^0,c
  2068   000D4C  0E21               	movlw	low STR_1
  2069   000D4E  6E31               	movwf	sprintf@fmt^0,c
  2070   000D50  C0AA  F032         	movff	main@Contador,?_sprintf+2
  2071   000D54  C0AB  F033         	movff	main@Contador+1,?_sprintf+3
  2072   000D58  EC2D  F008         	call	_sprintf	;wreg free
  2073   000D5C  EF78  F006         	goto	l3882
  2074   000D60  EF63  F000         	goto	start
  2075   000D64                     __end_of_main:
  2076                           	callstack 0
  2077                           
  2078 ;; *************** function _sprintf *****************
  2079 ;; Defined at:
  2080 ;;		line 9 in file "C:\Program Files\Microchip\xc8\v2.50\pic\sources\c99\common\nf_sprintf.c"
  2081 ;; Parameters:    Size  Location     Type
  2082 ;;  s               1   47[COMRAM] PTR unsigned char 
  2083 ;;		 -> main@Contadorstr(10), 
  2084 ;;  fmt             1   48[COMRAM] PTR const unsigned char 
  2085 ;;		 -> STR_1(3), 
  2086 ;; Auto vars:     Size  Location     Type
  2087 ;;  f              11   52[COMRAM] struct _IO_FILE
  2088 ;;  ret             2    0        int 
  2089 ;;  ap              1   51[COMRAM] PTR void [1]
  2090 ;;		 -> ?_sprintf(2), 
  2091 ;; Return value:  Size  Location     Type
  2092 ;;                  2   47[COMRAM] int 
  2093 ;; Registers used:
  2094 ;;		wreg, fsr1l, fsr1h, fsr2l, fsr2h, status,2, status,0, tblptrl, tblptrh, tblptru, cstack
  2095 ;; Tracked objects:
  2096 ;;		On entry : 0/0
  2097 ;;		On exit  : 0/0
  2098 ;;		Unchanged: 0/0
  2099 ;; Data sizes:     COMRAM   BANK0   BANK1   BANK2   BANK3   BANK4   BANK5   BANK6   BANK7
  2100 ;;      Params:         4       0       0       0       0       0       0       0       0
  2101 ;;      Locals:        12       0       0       0       0       0       0       0       0
  2102 ;;      Temps:          0       0       0       0       0       0       0       0       0
  2103 ;;      Totals:        16       0       0       0       0       0       0       0       0
  2104 ;;Total ram usage:       16 bytes
  2105 ;; Hardware stack levels used: 1
  2106 ;; Hardware stack levels required when called: 11
  2107 ;; This function calls:
  2108 ;;		_vfprintf
  2109 ;; This function is called by:
  2110 ;;		_main
  2111 ;; This function uses a non-reentrant model
  2112 ;;
  2113                           
  2114                           	psect	text1
  2115   00105A                     __ptext1:
  2116                           	callstack 0
  2117   00105A                     _sprintf:
  2118                           	callstack 19
  2119   00105A  0E32               	movlw	low (?_sprintf+2)
  2120   00105C  6E34               	movwf	sprintf@ap^0,c
  2121   00105E  C030  F035         	movff	sprintf@s,sprintf@f
  2122   001062  0E00               	movlw	0
  2123   001064  6E38               	movwf	(sprintf@f+3)^0,c
  2124   001066  0E00               	movlw	0
  2125   001068  6E37               	movwf	(sprintf@f+2)^0,c
  2126   00106A  0E00               	movlw	0
  2127   00106C  6E3F               	movwf	(sprintf@f+10)^0,c
  2128   00106E  0E00               	movlw	0
  2129   001070  6E3E               	movwf	(sprintf@f+9)^0,c
  2130   001072  0E35               	movlw	low sprintf@f
  2131   001074  6E2C               	movwf	vfprintf@fp^0,c
  2132   001076  C031  F02D         	movff	sprintf@fmt,vfprintf@fmt
  2133   00107A  0E34               	movlw	low sprintf@ap
  2134   00107C  6E2E               	movwf	vfprintf@ap^0,c
  2135   00107E  ECD4  F007         	call	_vfprintf	;wreg free
  2136   001082  5030               	movf	sprintf@s^0,w,c
  2137   001084  2437               	addwf	(sprintf@f+2)^0,w,c
  2138   001086  6ED9               	movwf	fsr2l,c
  2139   001088  6ADA               	clrf	fsr2h,c
  2140   00108A  6ADF               	clrf	indf2,c
  2141   00108C  0012               	return		;funcret
  2142   00108E                     __end_of_sprintf:
  2143                           	callstack 0
  2144                           
  2145 ;; *************** function _vfprintf *****************
  2146 ;; Defined at:
  2147 ;;		line 1817 in file "C:\Program Files\Microchip\xc8\v2.50\pic\sources\c99\common\doprnt.c"
  2148 ;; Parameters:    Size  Location     Type
  2149 ;;  fp              1   43[COMRAM] PTR struct _IO_FILE
  2150 ;;		 -> sprintf@f(11), 
  2151 ;;  fmt             1   44[COMRAM] PTR const unsigned char 
  2152 ;;		 -> STR_1(3), 
  2153 ;;  ap              1   45[COMRAM] PTR PTR void 
  2154 ;;		 -> sprintf@ap(1), 
  2155 ;; Auto vars:     Size  Location     Type
  2156 ;;  cfmt            1   46[COMRAM] PTR unsigned char 
  2157 ;;		 -> STR_1(3), 
  2158 ;; Return value:  Size  Location     Type
  2159 ;;                  2   43[COMRAM] int 
  2160 ;; Registers used:
  2161 ;;		wreg, fsr1l, fsr1h, fsr2l, fsr2h, status,2, status,0, tblptrl, tblptrh, tblptru, cstack
  2162 ;; Tracked objects:
  2163 ;;		On entry : 0/0
  2164 ;;		On exit  : 0/0
  2165 ;;		Unchanged: 0/0
  2166 ;; Data sizes:     COMRAM   BANK0   BANK1   BANK2   BANK3   BANK4   BANK5   BANK6   BANK7
  2167 ;;      Params:         3       0       0       0       0       0       0       0       0
  2168 ;;      Locals:         1       0       0       0       0       0       0       0       0
  2169 ;;      Temps:          0       0       0       0       0       0       0       0       0
  2170 ;;      Totals:         4       0       0       0       0       0       0       0       0
  2171 ;;Total ram usage:        4 bytes
  2172 ;; Hardware stack levels used: 1
  2173 ;; Hardware stack levels required when called: 10
  2174 ;; This function calls:
  2175 ;;		_vfpfcnvrt
  2176 ;; This function is called by:
  2177 ;;		_sprintf
  2178 ;; This function uses a non-reentrant model
  2179 ;;
  2180                           
  2181                           	psect	text2
  2182   000FA8                     __ptext2:
  2183                           	callstack 0
  2184   000FA8                     _vfprintf:
  2185                           	callstack 19
  2186   000FA8                     
  2187                           ;C:\Program Files\Microchip\xc8\v2.50\pic\sources\c99\common\doprnt.c: 1817: int vfprint
      +                          f(FILE *fp, const char *fmt, va_list ap);C:\Program Files\Microchip\xc8\v2.50\pic\source
      +                          s\c99\common\doprnt.c: 1818: {;C:\Program Files\Microchip\xc8\v2.50\pic\sources\c99\comm
      +                          on\doprnt.c: 1820:     char *cfmt;;C:\Program Files\Microchip\xc8\v2.50\pic\sources\c99\
      +                          common\doprnt.c: 1822:     cfmt = (char *)fmt;
  2188   000FA8  C02D  F02F         	movff	vfprintf@fmt,vfprintf@cfmt
  2189                           
  2190                           ;C:\Program Files\Microchip\xc8\v2.50\pic\sources\c99\common\doprnt.c: 1826:     while (
      +                          *cfmt) {
  2191   000FAC  EFE0  F007         	goto	l3338
  2192   000FB0                     l3336:
  2193                           
  2194                           ;C:\Program Files\Microchip\xc8\v2.50\pic\sources\c99\common\doprnt.c: 1830:    vfpfcnvr
      +                          t(fp, &cfmt, ap);
  2195   000FB0  C02C  F021         	movff	vfprintf@fp,vfpfcnvrt@fp
  2196   000FB4  0E2F               	movlw	low vfprintf@cfmt
  2197   000FB6  6E22               	movwf	vfpfcnvrt@fmt^0,c
  2198   000FB8  C02E  F023         	movff	vfprintf@ap,vfpfcnvrt@ap
  2199   000FBC  EC13  F004         	call	_vfpfcnvrt	;wreg free
  2200   000FC0                     l3338:
  2201                           
  2202                           ;C:\Program Files\Microchip\xc8\v2.50\pic\sources\c99\common\doprnt.c: 1826:     while (
      +                          *cfmt) {
  2203   000FC0  C02F  FFF6         	movff	vfprintf@cfmt,tblptrl
  2204   000FC4                     	if	1	;There is more than 1 active tblptr byte
  2205   000FC4  0E08               	movlw	high __smallconst
  2206   000FC6  6EF7               	movwf	tblptrh,c
  2207   000FC8                     	endif
  2208   000FC8                     	if	0	;tblptru may be non-zero
  2209   000FC8                     	endif
  2210   000FC8                     	if	0	;tblptru may be non-zero
  2211   000FC8                     	endif
  2212   000FC8  0008               	tblrd		*
  2213   000FCA  50F5               	movf	tablat,w,c
  2214   000FCC  0900               	iorlw	0
  2215   000FCE  A4D8               	btfss	status,2,c
  2216   000FD0  EFEC  F007         	goto	u1421
  2217   000FD4  EFEE  F007         	goto	u1420
  2218   000FD8                     u1421:
  2219   000FD8  EFD8  F007         	goto	l3336
  2220   000FDC                     u1420:
  2221   000FDC                     
  2222                           ;C:\Program Files\Microchip\xc8\v2.50\pic\sources\c99\common\doprnt.c: 1835:  return 0;
  2223   000FDC  0E00               	movlw	0
  2224   000FDE  6E2D               	movwf	(?_vfprintf+1)^0,c
  2225   000FE0  0E00               	movlw	0
  2226   000FE2  6E2C               	movwf	?_vfprintf^0,c
  2227   000FE4  0012               	return		;funcret
  2228   000FE6                     __end_of_vfprintf:
  2229                           	callstack 0
  2230                           
  2231 ;; *************** function _vfpfcnvrt *****************
  2232 ;; Defined at:
  2233 ;;		line 1177 in file "C:\Program Files\Microchip\xc8\v2.50\pic\sources\c99\common\doprnt.c"
  2234 ;; Parameters:    Size  Location     Type
  2235 ;;  fp              1   32[COMRAM] PTR struct _IO_FILE
  2236 ;;		 -> sprintf@f(11), 
  2237 ;;  fmt             1   33[COMRAM] PTR PTR unsigned char 
  2238 ;;		 -> vfprintf@cfmt(1), 
  2239 ;;  ap              1   34[COMRAM] PTR PTR void 
  2240 ;;		 -> sprintf@ap(1), 
  2241 ;; Auto vars:     Size  Location     Type
  2242 ;;  convarg         4   38[COMRAM] struct .
  2243 ;;  c               1   42[COMRAM] unsigned char 
  2244 ;;  cp              1   37[COMRAM] PTR unsigned char 
  2245 ;;		 -> STR_1(3), 
  2246 ;;  done            1   36[COMRAM] _Bool 
  2247 ;; Return value:  Size  Location     Type
  2248 ;;                  1    wreg      void 
  2249 ;; Registers used:
  2250 ;;		wreg, fsr1l, fsr1h, fsr2l, fsr2h, status,2, status,0, tblptrl, tblptrh, tblptru, cstack
  2251 ;; Tracked objects:
  2252 ;;		On entry : 0/0
  2253 ;;		On exit  : 0/0
  2254 ;;		Unchanged: 0/0
  2255 ;; Data sizes:     COMRAM   BANK0   BANK1   BANK2   BANK3   BANK4   BANK5   BANK6   BANK7
  2256 ;;      Params:         3       0       0       0       0       0       0       0       0
  2257 ;;      Locals:         7       0       0       0       0       0       0       0       0
  2258 ;;      Temps:          1       0       0       0       0       0       0       0       0
  2259 ;;      Totals:        11       0       0       0       0       0       0       0       0
  2260 ;;Total ram usage:       11 bytes
  2261 ;; Hardware stack levels used: 1
  2262 ;; Hardware stack levels required when called: 9
  2263 ;; This function calls:
  2264 ;;		___awdiv
  2265 ;;		___awmod
  2266 ;;		_abs
  2267 ;;		_fputc
  2268 ;; This function is called by:
  2269 ;;		_vfprintf
  2270 ;; This function uses a non-reentrant model
  2271 ;;
  2272                           
  2273                           	psect	text3
  2274   000826                     __ptext3:
  2275                           	callstack 0
  2276   000826                     _vfpfcnvrt:
  2277                           	callstack 19
  2278   000826                     
  2279                           ;C:\Program Files\Microchip\xc8\v2.50\pic\sources\c99\common\doprnt.c: 1177: vfpfcnvrt(F
      +                          ILE *fp, char *fmt[], va_list ap);C:\Program Files\Microchip\xc8\v2.50\pic\sources\c99\c
      +                          ommon\doprnt.c: 1178: {;C:\Program Files\Microchip\xc8\v2.50\pic\sources\c99\common\dopr
      +                          nt.c: 1179:     char c, *cp;;C:\Program Files\Microchip\xc8\v2.50\pic\sources\c99\common
      +                          \doprnt.c: 1180:     _Bool done;;C:\Program Files\Microchip\xc8\v2.50\pic\sources\c99\co
      +                          mmon\doprnt.c: 1188:  } convarg;;C:\Program Files\Microchip\xc8\v2.50\pic\sources\c99\co
      +                          mmon\doprnt.c: 1201:     if ((*fmt)[0] == '%') {
  2280   000826  5022               	movf	vfpfcnvrt@fmt^0,w,c
  2281   000828  6ED9               	movwf	fsr2l,c
  2282   00082A  6ADA               	clrf	fsr2h,c
  2283   00082C  CFDF FFF6          	movff	indf2,tblptrl
  2284   000830                     	if	1	;There is more than 1 active tblptr byte
  2285   000830  0E08               	movlw	high __smallconst
  2286   000832  6EF7               	movwf	tblptrh,c
  2287   000834                     	endif
  2288   000834                     	if	0	;tblptru may be non-zero
  2289   000834                     	endif
  2290   000834                     	if	0	;tblptru may be non-zero
  2291   000834                     	endif
  2292   000834  0008               	tblrd		*
  2293   000836  50F5               	movf	tablat,w,c
  2294   000838  0A25               	xorlw	37
  2295   00083A  A4D8               	btfss	status,2,c
  2296   00083C  EF22  F004         	goto	u1261
  2297   000840  EF24  F004         	goto	u1260
  2298   000844                     u1261:
  2299   000844  EFDD  F004         	goto	l3276
  2300   000848                     u1260:
  2301   000848                     
  2302                           ;C:\Program Files\Microchip\xc8\v2.50\pic\sources\c99\common\doprnt.c: 1202:         ++*
      +                          fmt;
  2303   000848  5022               	movf	vfpfcnvrt@fmt^0,w,c
  2304   00084A  6ED9               	movwf	fsr2l,c
  2305   00084C  6ADA               	clrf	fsr2h,c
  2306   00084E  2ADF               	incf	indf2,f,c
  2307   000850                     
  2308                           ;C:\Program Files\Microchip\xc8\v2.50\pic\sources\c99\common\doprnt.c: 1204:         fla
      +                          gs = width = 0;
  2309   000850  0E00               	movlw	0
  2310   000852  6E41               	movwf	(_width+1)^0,c
  2311   000854  0E00               	movlw	0
  2312   000856  6E40               	movwf	_width^0,c
  2313   000858  C040  F046         	movff	_width,_flags
  2314   00085C                     
  2315                           ;C:\Program Files\Microchip\xc8\v2.50\pic\sources\c99\common\doprnt.c: 1205:         pre
      +                          c = -1;
  2316   00085C  6842               	setf	_prec^0,c
  2317   00085E  6843               	setf	(_prec+1)^0,c
  2318   000860                     
  2319                           ;C:\Program Files\Microchip\xc8\v2.50\pic\sources\c99\common\doprnt.c: 1291:   cp = *fmt
      +                          ;
  2320   000860  5022               	movf	vfpfcnvrt@fmt^0,w,c
  2321   000862  6ED9               	movwf	fsr2l,c
  2322   000864  6ADA               	clrf	fsr2h,c
  2323   000866  50DF               	movf	indf2,w,c
  2324   000868  6E26               	movwf	vfpfcnvrt@cp^0,c
  2325   00086A                     
  2326                           ;C:\Program Files\Microchip\xc8\v2.50\pic\sources\c99\common\doprnt.c: 1361:   if (*cp =
      +                          = 'd' || *cp == 'i') {
  2327   00086A  C026  FFF6         	movff	vfpfcnvrt@cp,tblptrl
  2328   00086E                     	if	1	;There is more than 1 active tblptr byte
  2329   00086E  0E08               	movlw	high __smallconst
  2330   000870  6EF7               	movwf	tblptrh,c
  2331   000872                     	endif
  2332   000872                     	if	0	;tblptru may be non-zero
  2333   000872                     	endif
  2334   000872                     	if	0	;tblptru may be non-zero
  2335   000872                     	endif
  2336   000872  0008               	tblrd		*
  2337   000874  50F5               	movf	tablat,w,c
  2338   000876  0A64               	xorlw	100
  2339   000878  B4D8               	btfsc	status,2,c
  2340   00087A  EF41  F004         	goto	u1271
  2341   00087E  EF43  F004         	goto	u1270
  2342   000882                     u1271:
  2343   000882  EF51  F004         	goto	l3246
  2344   000886                     u1270:
  2345   000886  C026  FFF6         	movff	vfpfcnvrt@cp,tblptrl
  2346   00088A                     	if	1	;There is more than 1 active tblptr byte
  2347   00088A  0E08               	movlw	high __smallconst
  2348   00088C  6EF7               	movwf	tblptrh,c
  2349   00088E                     	endif
  2350   00088E                     	if	0	;tblptru may be non-zero
  2351   00088E                     	endif
  2352   00088E                     	if	0	;tblptru may be non-zero
  2353   00088E                     	endif
  2354   00088E  0008               	tblrd		*
  2355   000890  50F5               	movf	tablat,w,c
  2356   000892  0A69               	xorlw	105
  2357   000894  A4D8               	btfss	status,2,c
  2358   000896  EF4F  F004         	goto	u1281
  2359   00089A  EF51  F004         	goto	u1280
  2360   00089E                     u1281:
  2361   00089E  EFD7  F004         	goto	l3272
  2362   0008A2                     u1280:
  2363   0008A2                     l3246:
  2364                           
  2365                           ;C:\Program Files\Microchip\xc8\v2.50\pic\sources\c99\common\doprnt.c: 1404:    convarg.
      +                          sint = (vfpf_sint_t)(int)(*(int *)__va_arg(*(int **)ap, (int)0));
  2366   0008A2  5023               	movf	vfpfcnvrt@ap^0,w,c
  2367   0008A4  6ED9               	movwf	fsr2l,c
  2368   0008A6  6ADA               	clrf	fsr2h,c
  2369   0008A8  0E02               	movlw	2
  2370   0008AA  26DF               	addwf	indf2,f,c
  2371   0008AC  5CDF               	subwf	indf2,w,c
  2372   0008AE  6ED9               	movwf	fsr2l,c
  2373   0008B0  6ADA               	clrf	fsr2h,c
  2374   0008B2  CFDE F027          	movff	postinc2,vfpfcnvrt@convarg
  2375   0008B6  CFDE F028          	movff	postinc2,vfpfcnvrt@convarg+1
  2376   0008BA                     
  2377                           ;C:\Program Files\Microchip\xc8\v2.50\pic\sources\c99\common\doprnt.c: 1406:    *fmt = c
      +                          p+1;
  2378   0008BA  5022               	movf	vfpfcnvrt@fmt^0,w,c
  2379   0008BC  6ED9               	movwf	fsr2l,c
  2380   0008BE  6ADA               	clrf	fsr2h,c
  2381   0008C0  2826               	incf	vfpfcnvrt@cp^0,w,c
  2382   0008C2  6EDF               	movwf	indf2,c
  2383   0008C4                     
  2384                           ;C:\Program Files\Microchip\xc8\v2.50\pic\sources\c99\common\doprnt.c: 1408:    c = size
      +                          of(dbuf);
  2385   0008C4  0E20               	movlw	32
  2386   0008C6  6E2B               	movwf	vfpfcnvrt@c^0,c
  2387                           
  2388                           ;C:\Program Files\Microchip\xc8\v2.50\pic\sources\c99\common\doprnt.c: 1409:    done = c
      +                          onvarg.sint < 0;
  2389   0008C8  BE28               	btfsc	(vfpfcnvrt@convarg+1)^0,7,c
  2390   0008CA  EF69  F004         	goto	u1291
  2391   0008CE  EF6C  F004         	goto	u1290
  2392   0008D2                     u1291:
  2393   0008D2  0E01               	movlw	1
  2394   0008D4  EF6D  F004         	goto	u1300
  2395   0008D8                     u1290:
  2396   0008D8  0E00               	movlw	0
  2397   0008DA                     u1300:
  2398   0008DA  6E25               	movwf	vfpfcnvrt@done^0,c
  2399   0008DC                     l3252:
  2400                           
  2401                           ;C:\Program Files\Microchip\xc8\v2.50\pic\sources\c99\common\doprnt.c: 1411:     dbuf[--
      +                          c] = abs(convarg.sint % 10) + '0';
  2402   0008DC  062B               	decf	vfpfcnvrt@c^0,f,c
  2403   0008DE  502B               	movf	vfpfcnvrt@c^0,w,c
  2404   0008E0  0F60               	addlw	low _dbuf
  2405   0008E2  6ED9               	movwf	fsr2l,c
  2406   0008E4  6ADA               	clrf	fsr2h,c
  2407   0008E6  C027  F017         	movff	vfpfcnvrt@convarg,___awmod@dividend
  2408   0008EA  C028  F018         	movff	vfpfcnvrt@convarg+1,___awmod@dividend+1
  2409   0008EE  0E00               	movlw	0
  2410   0008F0  6E1A               	movwf	(___awmod@divisor+1)^0,c
  2411   0008F2  0E0A               	movlw	10
  2412   0008F4  6E19               	movwf	___awmod@divisor^0,c
  2413   0008F6  ECB2  F005         	call	___awmod	;wreg free
  2414   0008FA  C017  F01D         	movff	?___awmod,abs@a
  2415   0008FE  C018  F01E         	movff	?___awmod+1,abs@a+1
  2416   000902  EC47  F008         	call	_abs	;wreg free
  2417   000906  501D               	movf	?_abs^0,w,c
  2418   000908  0F30               	addlw	48
  2419   00090A  6EDF               	movwf	indf2,c
  2420   00090C                     
  2421                           ;C:\Program Files\Microchip\xc8\v2.50\pic\sources\c99\common\doprnt.c: 1412:     convarg
      +                          .sint /= 10;
  2422   00090C  C027  F017         	movff	vfpfcnvrt@convarg,___awdiv@dividend
  2423   000910  C028  F018         	movff	vfpfcnvrt@convarg+1,___awdiv@dividend+1
  2424   000914  0E00               	movlw	0
  2425   000916  6E1A               	movwf	(___awdiv@divisor+1)^0,c
  2426   000918  0E0A               	movlw	10
  2427   00091A  6E19               	movwf	___awdiv@divisor^0,c
  2428   00091C  EC51  F005         	call	___awdiv	;wreg free
  2429   000920  C017  F027         	movff	?___awdiv,vfpfcnvrt@convarg
  2430   000924  C018  F028         	movff	?___awdiv+1,vfpfcnvrt@convarg+1
  2431   000928                     
  2432                           ;C:\Program Files\Microchip\xc8\v2.50\pic\sources\c99\common\doprnt.c: 1416:    } while 
      +                          (convarg.sint != 0 && c != 0);
  2433   000928  5027               	movf	vfpfcnvrt@convarg^0,w,c
  2434   00092A  1028               	iorwf	(vfpfcnvrt@convarg+1)^0,w,c
  2435   00092C  B4D8               	btfsc	status,2,c
  2436   00092E  EF9B  F004         	goto	u1311
  2437   000932  EF9D  F004         	goto	u1310
  2438   000936                     u1311:
  2439   000936  EFA5  F004         	goto	l3260
  2440   00093A                     u1310:
  2441   00093A  502B               	movf	vfpfcnvrt@c^0,w,c
  2442   00093C  A4D8               	btfss	status,2,c
  2443   00093E  EFA3  F004         	goto	u1321
  2444   000942  EFA5  F004         	goto	u1320
  2445   000946                     u1321:
  2446   000946  EF6E  F004         	goto	l3252
  2447   00094A                     u1320:
  2448   00094A                     l3260:
  2449                           
  2450                           ;C:\Program Files\Microchip\xc8\v2.50\pic\sources\c99\common\doprnt.c: 1417:    if (c !=
      +                           0 && done) {
  2451   00094A  502B               	movf	vfpfcnvrt@c^0,w,c
  2452   00094C  B4D8               	btfsc	status,2,c
  2453   00094E  EFAB  F004         	goto	u1331
  2454   000952  EFAD  F004         	goto	u1330
  2455   000956                     u1331:
  2456   000956  EFCC  F004         	goto	l3270
  2457   00095A                     u1330:
  2458   00095A  5025               	movf	vfpfcnvrt@done^0,w,c
  2459   00095C  B4D8               	btfsc	status,2,c
  2460   00095E  EFB3  F004         	goto	u1341
  2461   000962  EFB5  F004         	goto	u1340
  2462   000966                     u1341:
  2463   000966  EFCC  F004         	goto	l3270
  2464   00096A                     u1340:
  2465   00096A                     
  2466                           ;C:\Program Files\Microchip\xc8\v2.50\pic\sources\c99\common\doprnt.c: 1418:     dbuf[--
      +                          c] = '-';
  2467   00096A  062B               	decf	vfpfcnvrt@c^0,f,c
  2468   00096C  502B               	movf	vfpfcnvrt@c^0,w,c
  2469   00096E  0F60               	addlw	low _dbuf
  2470   000970  6ED9               	movwf	fsr2l,c
  2471   000972  6ADA               	clrf	fsr2h,c
  2472   000974  0E2D               	movlw	45
  2473   000976  6EDF               	movwf	indf2,c
  2474   000978  EFCC  F004         	goto	l3270
  2475   00097C                     l3266:
  2476                           
  2477                           ;C:\Program Files\Microchip\xc8\v2.50\pic\sources\c99\common\doprnt.c: 1424:     fputc(d
      +                          buf[c++], fp);
  2478   00097C  502B               	movf	vfpfcnvrt@c^0,w,c
  2479   00097E  0F60               	addlw	low _dbuf
  2480   000980  6ED9               	movwf	fsr2l,c
  2481   000982  6ADA               	clrf	fsr2h,c
  2482   000984  50DF               	movf	indf2,w,c
  2483   000986  6E24               	movwf	??_vfpfcnvrt^0,c
  2484   000988  5024               	movf	??_vfpfcnvrt^0,w,c
  2485   00098A  6E17               	movwf	fputc@c^0,c
  2486   00098C  6A18               	clrf	(fputc@c+1)^0,c
  2487   00098E  C021  F019         	movff	vfpfcnvrt@fp,fputc@fp
  2488   000992  EC09  F006         	call	_fputc	;wreg free
  2489   000996  2A2B               	incf	vfpfcnvrt@c^0,f,c
  2490   000998                     l3270:
  2491                           
  2492                           ;C:\Program Files\Microchip\xc8\v2.50\pic\sources\c99\common\doprnt.c: 1423:    while (c
      +                           != sizeof(dbuf)) {
  2493   000998  0E20               	movlw	32
  2494   00099A  182B               	xorwf	vfpfcnvrt@c^0,w,c
  2495   00099C  A4D8               	btfss	status,2,c
  2496   00099E  EFD3  F004         	goto	u1351
  2497   0009A2  EFD5  F004         	goto	u1350
  2498   0009A6                     u1351:
  2499   0009A6  EFBE  F004         	goto	l3266
  2500   0009AA                     u1350:
  2501   0009AA  EFEE  F004         	goto	l1476
  2502   0009AE                     l3272:
  2503                           
  2504                           ;C:\Program Files\Microchip\xc8\v2.50\pic\sources\c99\common\doprnt.c: 1806:         ++*
      +                          fmt;
  2505   0009AE  5022               	movf	vfpfcnvrt@fmt^0,w,c
  2506   0009B0  6ED9               	movwf	fsr2l,c
  2507   0009B2  6ADA               	clrf	fsr2h,c
  2508   0009B4  2ADF               	incf	indf2,f,c
  2509   0009B6  EFEE  F004         	goto	l1476
  2510   0009BA                     l3276:
  2511                           
  2512                           ;C:\Program Files\Microchip\xc8\v2.50\pic\sources\c99\common\doprnt.c: 1811:     fputc((
      +                          int)(*fmt)[0], fp);
  2513   0009BA  5022               	movf	vfpfcnvrt@fmt^0,w,c
  2514   0009BC  6ED9               	movwf	fsr2l,c
  2515   0009BE  6ADA               	clrf	fsr2h,c
  2516   0009C0  CFDF FFF6          	movff	indf2,tblptrl
  2517   0009C4                     	if	1	;There is more than 1 active tblptr byte
  2518   0009C4  0E08               	movlw	high __smallconst
  2519   0009C6  6EF7               	movwf	tblptrh,c
  2520   0009C8                     	endif
  2521   0009C8                     	if	0	;tblptru may be non-zero
  2522   0009C8                     	endif
  2523   0009C8                     	if	0	;tblptru may be non-zero
  2524   0009C8                     	endif
  2525   0009C8  0008               	tblrd		*
  2526   0009CA  50F5               	movf	tablat,w,c
  2527   0009CC  6E17               	movwf	fputc@c^0,c
  2528   0009CE  6A18               	clrf	(fputc@c+1)^0,c
  2529   0009D0  C021  F019         	movff	vfpfcnvrt@fp,fputc@fp
  2530   0009D4  EC09  F006         	call	_fputc	;wreg free
  2531   0009D8  EFD7  F004         	goto	l3272
  2532   0009DC                     l1476:
  2533   0009DC  0012               	return		;funcret
  2534   0009DE                     __end_of_vfpfcnvrt:
  2535                           	callstack 0
  2536                           
  2537 ;; *************** function _fputc *****************
  2538 ;; Defined at:
  2539 ;;		line 8 in file "C:\Program Files\Microchip\xc8\v2.50\pic\sources\c99\common\nf_fputc.c"
  2540 ;; Parameters:    Size  Location     Type
  2541 ;;  c               2   22[COMRAM] int 
  2542 ;;  fp              1   24[COMRAM] PTR struct _IO_FILE
  2543 ;;		 -> sprintf@f(11), 
  2544 ;; Auto vars:     Size  Location     Type
  2545 ;;		None
  2546 ;; Return value:  Size  Location     Type
  2547 ;;                  2   22[COMRAM] int 
  2548 ;; Registers used:
  2549 ;;		wreg, fsr1l, fsr1h, fsr2l, fsr2h, status,2, status,0, cstack
  2550 ;; Tracked objects:
  2551 ;;		On entry : 0/0
  2552 ;;		On exit  : 0/0
  2553 ;;		Unchanged: 0/0
  2554 ;; Data sizes:     COMRAM   BANK0   BANK1   BANK2   BANK3   BANK4   BANK5   BANK6   BANK7
  2555 ;;      Params:         3       0       0       0       0       0       0       0       0
  2556 ;;      Locals:         0       0       0       0       0       0       0       0       0
  2557 ;;      Temps:          5       0       0       0       0       0       0       0       0
  2558 ;;      Totals:         8       0       0       0       0       0       0       0       0
  2559 ;;Total ram usage:        8 bytes
  2560 ;; Hardware stack levels used: 1
  2561 ;; Hardware stack levels required when called: 8
  2562 ;; This function calls:
  2563 ;;		_putch
  2564 ;; This function is called by:
  2565 ;;		_vfpfcnvrt
  2566 ;; This function uses a non-reentrant model
  2567 ;;
  2568                           
  2569                           	psect	text4
  2570   000C12                     __ptext4:
  2571                           	callstack 0
  2572   000C12                     _fputc:
  2573                           	callstack 19
  2574   000C12  5019               	movf	fputc@fp^0,w,c
  2575   000C14  B4D8               	btfsc	status,2,c
  2576   000C16  EF0F  F006         	goto	u1121
  2577   000C1A  EF11  F006         	goto	u1120
  2578   000C1E                     u1121:
  2579   000C1E  EF19  F006         	goto	l2994
  2580   000C22                     u1120:
  2581   000C22  5019               	movf	fputc@fp^0,w,c
  2582   000C24  A4D8               	btfss	status,2,c
  2583   000C26  EF17  F006         	goto	u1131
  2584   000C2A  EF19  F006         	goto	u1130
  2585   000C2E                     u1131:
  2586   000C2E  EF1E  F006         	goto	l2996
  2587   000C32                     u1130:
  2588   000C32                     l2994:
  2589   000C32  5017               	movf	fputc@c^0,w,c
  2590   000C34  ECB6  F009         	call	_putch
  2591   000C38  EF5D  F006         	goto	l1501
  2592   000C3C                     l2996:
  2593   000C3C  5019               	movf	fputc@fp^0,w,c
  2594   000C3E  6ED9               	movwf	fsr2l,c
  2595   000C40  6ADA               	clrf	fsr2h,c
  2596   000C42  0E09               	movlw	9
  2597   000C44  26D9               	addwf	fsr2l,f,c
  2598   000C46  50DE               	movf	postinc2,w,c
  2599   000C48  10DE               	iorwf	postinc2,w,c
  2600   000C4A  B4D8               	btfsc	status,2,c
  2601   000C4C  EF2A  F006         	goto	u1141
  2602   000C50  EF2C  F006         	goto	u1140
  2603   000C54                     u1141:
  2604   000C54  EF45  F006         	goto	l3000
  2605   000C58                     u1140:
  2606   000C58  5019               	movf	fputc@fp^0,w,c
  2607   000C5A  6ED9               	movwf	fsr2l,c
  2608   000C5C  6ADA               	clrf	fsr2h,c
  2609   000C5E  0E09               	movlw	9
  2610   000C60  26D9               	addwf	fsr2l,f,c
  2611   000C62  5019               	movf	fputc@fp^0,w,c
  2612   000C64  6EE1               	movwf	fsr1l,c
  2613   000C66  6AE2               	clrf	fsr1h,c
  2614   000C68  0E02               	movlw	2
  2615   000C6A  26E1               	addwf	fsr1l,f,c
  2616   000C6C  50DE               	movf	postinc2,w,c
  2617   000C6E  5CE6               	subwf	postinc1,w,c
  2618   000C70  50E6               	movf	postinc1,w,c
  2619   000C72  0A80               	xorlw	128
  2620   000C74  6E1E               	movwf	(??_fputc+4)^0,c
  2621   000C76  50DE               	movf	postinc2,w,c
  2622   000C78  0A80               	xorlw	128
  2623   000C7A  581E               	subwfb	(??_fputc+4)^0,w,c
  2624   000C7C  B0D8               	btfsc	status,0,c
  2625   000C7E  EF43  F006         	goto	u1151
  2626   000C82  EF45  F006         	goto	u1150
  2627   000C86                     u1151:
  2628   000C86  EF5D  F006         	goto	l1501
  2629   000C8A                     u1150:
  2630   000C8A                     l3000:
  2631   000C8A  5019               	movf	fputc@fp^0,w,c
  2632   000C8C  6ED9               	movwf	fsr2l,c
  2633   000C8E  6ADA               	clrf	fsr2h,c
  2634   000C90  0E02               	movlw	2
  2635   000C92  26D9               	addwf	fsr2l,f,c
  2636   000C94  50DF               	movf	indf2,w,c
  2637   000C96  6E1A               	movwf	??_fputc^0,c
  2638   000C98  5019               	movf	fputc@fp^0,w,c
  2639   000C9A  6ED9               	movwf	fsr2l,c
  2640   000C9C  6ADA               	clrf	fsr2h,c
  2641   000C9E  50DF               	movf	indf2,w,c
  2642   000CA0  241A               	addwf	??_fputc^0,w,c
  2643   000CA2  6ED9               	movwf	fsr2l,c
  2644   000CA4  6ADA               	clrf	fsr2h,c
  2645   000CA6  C017  FFDF         	movff	fputc@c,indf2
  2646   000CAA  5019               	movf	fputc@fp^0,w,c
  2647   000CAC  6ED9               	movwf	fsr2l,c
  2648   000CAE  6ADA               	clrf	fsr2h,c
  2649   000CB0  0E02               	movlw	2
  2650   000CB2  26D9               	addwf	fsr2l,f,c
  2651   000CB4  2ADE               	incf	postinc2,f,c
  2652   000CB6  0E00               	movlw	0
  2653   000CB8  22DD               	addwfc	postdec2,f,c
  2654   000CBA                     l1501:
  2655   000CBA  0012               	return		;funcret
  2656   000CBC                     __end_of_fputc:
  2657                           	callstack 0
  2658                           
  2659 ;; *************** function _putch *****************
  2660 ;; Defined at:
  2661 ;;		line 7 in file "C:\Program Files\Microchip\xc8\v2.50\pic\sources\c99\common\putch.c"
  2662 ;; Parameters:    Size  Location     Type
  2663 ;;  c               1    wreg     unsigned char 
  2664 ;; Auto vars:     Size  Location     Type
  2665 ;;  c               1    0[COMRAM] unsigned char 
  2666 ;; Return value:  Size  Location     Type
  2667 ;;                  1    wreg      void 
  2668 ;; Registers used:
  2669 ;;		wreg
  2670 ;; Tracked objects:
  2671 ;;		On entry : 0/0
  2672 ;;		On exit  : 0/0
  2673 ;;		Unchanged: 0/0
  2674 ;; Data sizes:     COMRAM   BANK0   BANK1   BANK2   BANK3   BANK4   BANK5   BANK6   BANK7
  2675 ;;      Params:         0       0       0       0       0       0       0       0       0
  2676 ;;      Locals:         0       0       0       0       0       0       0       0       0
  2677 ;;      Temps:          0       0       0       0       0       0       0       0       0
  2678 ;;      Totals:         0       0       0       0       0       0       0       0       0
  2679 ;;Total ram usage:        0 bytes
  2680 ;; Hardware stack levels used: 1
  2681 ;; Hardware stack levels required when called: 7
  2682 ;; This function calls:
  2683 ;;		Nothing
  2684 ;; This function is called by:
  2685 ;;		_fputc
  2686 ;; This function uses a non-reentrant model
  2687 ;;
  2688                           
  2689                           	psect	text5
  2690   00136C                     __ptext5:
  2691                           	callstack 0
  2692   00136C                     _putch:
  2693                           	callstack 19
  2694   00136C  0012               	return		;funcret
  2695   00136E                     __end_of_putch:
  2696                           	callstack 0
  2697                           
  2698 ;; *************** function _abs *****************
  2699 ;; Defined at:
  2700 ;;		line 1 in file "C:\Program Files\Microchip\xc8\v2.50\pic\sources\c99\common\abs.c"
  2701 ;; Parameters:    Size  Location     Type
  2702 ;;  a               2   28[COMRAM] int 
  2703 ;; Auto vars:     Size  Location     Type
  2704 ;;		None
  2705 ;; Return value:  Size  Location     Type
  2706 ;;                  2   28[COMRAM] int 
  2707 ;; Registers used:
  2708 ;;		wreg, status,2, status,0
  2709 ;; Tracked objects:
  2710 ;;		On entry : 0/0
  2711 ;;		On exit  : 0/0
  2712 ;;		Unchanged: 0/0
  2713 ;; Data sizes:     COMRAM   BANK0   BANK1   BANK2   BANK3   BANK4   BANK5   BANK6   BANK7
  2714 ;;      Params:         2       0       0       0       0       0       0       0       0
  2715 ;;      Locals:         0       0       0       0       0       0       0       0       0
  2716 ;;      Temps:          2       0       0       0       0       0       0       0       0
  2717 ;;      Totals:         4       0       0       0       0       0       0       0       0
  2718 ;;Total ram usage:        4 bytes
  2719 ;; Hardware stack levels used: 1
  2720 ;; Hardware stack levels required when called: 7
  2721 ;; This function calls:
  2722 ;;		Nothing
  2723 ;; This function is called by:
  2724 ;;		_vfpfcnvrt
  2725 ;; This function uses a non-reentrant model
  2726 ;;
  2727                           
  2728                           	psect	text6
  2729   00108E                     __ptext6:
  2730                           	callstack 0
  2731   00108E                     _abs:
  2732                           	callstack 20
  2733   00108E  BE1E               	btfsc	(abs@a+1)^0,7,c
  2734   001090  EF4C  F008         	goto	u1161
  2735   001094  EF4E  F008         	goto	u1160
  2736   001098                     u1161:
  2737   001098  EF54  F008         	goto	l1486
  2738   00109C                     u1160:
  2739   00109C  C01D  F01D         	movff	abs@a,?_abs
  2740   0010A0  C01E  F01E         	movff	abs@a+1,?_abs+1
  2741   0010A4  EF60  F008         	goto	l1489
  2742   0010A8                     l1486:
  2743   0010A8  C01D  F01F         	movff	abs@a,??_abs
  2744   0010AC  C01E  F020         	movff	abs@a+1,??_abs+1
  2745   0010B0  1E1F               	comf	??_abs^0,f,c
  2746   0010B2  1E20               	comf	(??_abs+1)^0,f,c
  2747   0010B4  4A1F               	infsnz	??_abs^0,f,c
  2748   0010B6  2A20               	incf	(??_abs+1)^0,f,c
  2749   0010B8  C01F  F01D         	movff	??_abs,?_abs
  2750   0010BC  C020  F01E         	movff	??_abs+1,?_abs+1
  2751   0010C0                     l1489:
  2752   0010C0  0012               	return		;funcret
  2753   0010C2                     __end_of_abs:
  2754                           	callstack 0
  2755                           
  2756 ;; *************** function ___awmod *****************
  2757 ;; Defined at:
  2758 ;;		line 7 in file "C:\Program Files\Microchip\xc8\v2.50\pic\sources\c99\common\awmod.c"
  2759 ;; Parameters:    Size  Location     Type
  2760 ;;  dividend        2   22[COMRAM] int 
  2761 ;;  divisor         2   24[COMRAM] int 
  2762 ;; Auto vars:     Size  Location     Type
  2763 ;;  sign            1   27[COMRAM] unsigned char 
  2764 ;;  counter         1   26[COMRAM] unsigned char 
  2765 ;; Return value:  Size  Location     Type
  2766 ;;                  2   22[COMRAM] int 
  2767 ;; Registers used:
  2768 ;;		wreg, status,2, status,0
  2769 ;; Tracked objects:
  2770 ;;		On entry : 0/0
  2771 ;;		On exit  : 0/0
  2772 ;;		Unchanged: 0/0
  2773 ;; Data sizes:     COMRAM   BANK0   BANK1   BANK2   BANK3   BANK4   BANK5   BANK6   BANK7
  2774 ;;      Params:         4       0       0       0       0       0       0       0       0
  2775 ;;      Locals:         2       0       0       0       0       0       0       0       0
  2776 ;;      Temps:          0       0       0       0       0       0       0       0       0
  2777 ;;      Totals:         6       0       0       0       0       0       0       0       0
  2778 ;;Total ram usage:        6 bytes
  2779 ;; Hardware stack levels used: 1
  2780 ;; Hardware stack levels required when called: 7
  2781 ;; This function calls:
  2782 ;;		Nothing
  2783 ;; This function is called by:
  2784 ;;		_vfpfcnvrt
  2785 ;; This function uses a non-reentrant model
  2786 ;;
  2787                           
  2788                           	psect	text7
  2789   000B64                     __ptext7:
  2790                           	callstack 0
  2791   000B64                     ___awmod:
  2792                           	callstack 20
  2793   000B64  6A1C               	clrf	___awmod@sign^0,c
  2794   000B66  BE18               	btfsc	(___awmod@dividend+1)^0,7,c
  2795   000B68  EFBA  F005         	goto	u1060
  2796   000B6C  EFB8  F005         	goto	u1061
  2797   000B70                     u1061:
  2798   000B70  EFC0  F005         	goto	l2962
  2799   000B74                     u1060:
  2800   000B74  6C17               	negf	___awmod@dividend^0,c
  2801   000B76  1E18               	comf	(___awmod@dividend+1)^0,f,c
  2802   000B78  B0D8               	btfsc	status,0,c
  2803   000B7A  2A18               	incf	(___awmod@dividend+1)^0,f,c
  2804   000B7C  0E01               	movlw	1
  2805   000B7E  6E1C               	movwf	___awmod@sign^0,c
  2806   000B80                     l2962:
  2807   000B80  BE1A               	btfsc	(___awmod@divisor+1)^0,7,c
  2808   000B82  EFC7  F005         	goto	u1070
  2809   000B86  EFC5  F005         	goto	u1071
  2810   000B8A                     u1071:
  2811   000B8A  EFCB  F005         	goto	l2966
  2812   000B8E                     u1070:
  2813   000B8E  6C19               	negf	___awmod@divisor^0,c
  2814   000B90  1E1A               	comf	(___awmod@divisor+1)^0,f,c
  2815   000B92  B0D8               	btfsc	status,0,c
  2816   000B94  2A1A               	incf	(___awmod@divisor+1)^0,f,c
  2817   000B96                     l2966:
  2818   000B96  5019               	movf	___awmod@divisor^0,w,c
  2819   000B98  101A               	iorwf	(___awmod@divisor+1)^0,w,c
  2820   000B9A  B4D8               	btfsc	status,2,c
  2821   000B9C  EFD2  F005         	goto	u1081
  2822   000BA0  EFD4  F005         	goto	u1080
  2823   000BA4                     u1081:
  2824   000BA4  EFF8  F005         	goto	l2982
  2825   000BA8                     u1080:
  2826   000BA8  0E01               	movlw	1
  2827   000BAA  6E1B               	movwf	___awmod@counter^0,c
  2828   000BAC  EFDC  F005         	goto	l2972
  2829   000BB0                     l2970:
  2830   000BB0  90D8               	bcf	status,0,c
  2831   000BB2  3619               	rlcf	___awmod@divisor^0,f,c
  2832   000BB4  361A               	rlcf	(___awmod@divisor+1)^0,f,c
  2833   000BB6  2A1B               	incf	___awmod@counter^0,f,c
  2834   000BB8                     l2972:
  2835   000BB8  AE1A               	btfss	(___awmod@divisor+1)^0,7,c
  2836   000BBA  EFE1  F005         	goto	u1091
  2837   000BBE  EFE3  F005         	goto	u1090
  2838   000BC2                     u1091:
  2839   000BC2  EFD8  F005         	goto	l2970
  2840   000BC6                     u1090:
  2841   000BC6                     l2974:
  2842   000BC6  5019               	movf	___awmod@divisor^0,w,c
  2843   000BC8  5C17               	subwf	___awmod@dividend^0,w,c
  2844   000BCA  501A               	movf	(___awmod@divisor+1)^0,w,c
  2845   000BCC  5818               	subwfb	(___awmod@dividend+1)^0,w,c
  2846   000BCE  A0D8               	btfss	status,0,c
  2847   000BD0  EFEC  F005         	goto	u1101
  2848   000BD4  EFEE  F005         	goto	u1100
  2849   000BD8                     u1101:
  2850   000BD8  EFF2  F005         	goto	l2978
  2851   000BDC                     u1100:
  2852   000BDC  5019               	movf	___awmod@divisor^0,w,c
  2853   000BDE  5E17               	subwf	___awmod@dividend^0,f,c
  2854   000BE0  501A               	movf	(___awmod@divisor+1)^0,w,c
  2855   000BE2  5A18               	subwfb	(___awmod@dividend+1)^0,f,c
  2856   000BE4                     l2978:
  2857   000BE4  90D8               	bcf	status,0,c
  2858   000BE6  321A               	rrcf	(___awmod@divisor+1)^0,f,c
  2859   000BE8  3219               	rrcf	___awmod@divisor^0,f,c
  2860   000BEA  2E1B               	decfsz	___awmod@counter^0,f,c
  2861   000BEC  EFE3  F005         	goto	l2974
  2862   000BF0                     l2982:
  2863   000BF0  501C               	movf	___awmod@sign^0,w,c
  2864   000BF2  B4D8               	btfsc	status,2,c
  2865   000BF4  EFFE  F005         	goto	u1111
  2866   000BF8  EF00  F006         	goto	u1110
  2867   000BFC                     u1111:
  2868   000BFC  EF04  F006         	goto	l2986
  2869   000C00                     u1110:
  2870   000C00  6C17               	negf	___awmod@dividend^0,c
  2871   000C02  1E18               	comf	(___awmod@dividend+1)^0,f,c
  2872   000C04  B0D8               	btfsc	status,0,c
  2873   000C06  2A18               	incf	(___awmod@dividend+1)^0,f,c
  2874   000C08                     l2986:
  2875   000C08  C017  F017         	movff	___awmod@dividend,?___awmod
  2876   000C0C  C018  F018         	movff	___awmod@dividend+1,?___awmod+1
  2877   000C10  0012               	return		;funcret
  2878   000C12                     __end_of___awmod:
  2879                           	callstack 0
  2880                           
  2881 ;; *************** function ___awdiv *****************
  2882 ;; Defined at:
  2883 ;;		line 7 in file "C:\Program Files\Microchip\xc8\v2.50\pic\sources\c99\common\awdiv.c"
  2884 ;; Parameters:    Size  Location     Type
  2885 ;;  dividend        2   22[COMRAM] int 
  2886 ;;  divisor         2   24[COMRAM] int 
  2887 ;; Auto vars:     Size  Location     Type
  2888 ;;  quotient        2   28[COMRAM] int 
  2889 ;;  sign            1   27[COMRAM] unsigned char 
  2890 ;;  counter         1   26[COMRAM] unsigned char 
  2891 ;; Return value:  Size  Location     Type
  2892 ;;                  2   22[COMRAM] int 
  2893 ;; Registers used:
  2894 ;;		wreg, status,2, status,0
  2895 ;; Tracked objects:
  2896 ;;		On entry : 0/0
  2897 ;;		On exit  : 0/0
  2898 ;;		Unchanged: 0/0
  2899 ;; Data sizes:     COMRAM   BANK0   BANK1   BANK2   BANK3   BANK4   BANK5   BANK6   BANK7
  2900 ;;      Params:         4       0       0       0       0       0       0       0       0
  2901 ;;      Locals:         4       0       0       0       0       0       0       0       0
  2902 ;;      Temps:          0       0       0       0       0       0       0       0       0
  2903 ;;      Totals:         8       0       0       0       0       0       0       0       0
  2904 ;;Total ram usage:        8 bytes
  2905 ;; Hardware stack levels used: 1
  2906 ;; Hardware stack levels required when called: 7
  2907 ;; This function calls:
  2908 ;;		Nothing
  2909 ;; This function is called by:
  2910 ;;		_vfpfcnvrt
  2911 ;; This function uses a non-reentrant model
  2912 ;;
  2913                           
  2914                           	psect	text8
  2915   000AA2                     __ptext8:
  2916                           	callstack 0
  2917   000AA2                     ___awdiv:
  2918                           	callstack 20
  2919   000AA2  6A1C               	clrf	___awdiv@sign^0,c
  2920   000AA4  BE1A               	btfsc	(___awdiv@divisor+1)^0,7,c
  2921   000AA6  EF59  F005         	goto	u1000
  2922   000AAA  EF57  F005         	goto	u1001
  2923   000AAE                     u1001:
  2924   000AAE  EF5F  F005         	goto	l2918
  2925   000AB2                     u1000:
  2926   000AB2  6C19               	negf	___awdiv@divisor^0,c
  2927   000AB4  1E1A               	comf	(___awdiv@divisor+1)^0,f,c
  2928   000AB6  B0D8               	btfsc	status,0,c
  2929   000AB8  2A1A               	incf	(___awdiv@divisor+1)^0,f,c
  2930   000ABA  0E01               	movlw	1
  2931   000ABC  6E1C               	movwf	___awdiv@sign^0,c
  2932   000ABE                     l2918:
  2933   000ABE  BE18               	btfsc	(___awdiv@dividend+1)^0,7,c
  2934   000AC0  EF66  F005         	goto	u1010
  2935   000AC4  EF64  F005         	goto	u1011
  2936   000AC8                     u1011:
  2937   000AC8  EF6C  F005         	goto	l2924
  2938   000ACC                     u1010:
  2939   000ACC  6C17               	negf	___awdiv@dividend^0,c
  2940   000ACE  1E18               	comf	(___awdiv@dividend+1)^0,f,c
  2941   000AD0  B0D8               	btfsc	status,0,c
  2942   000AD2  2A18               	incf	(___awdiv@dividend+1)^0,f,c
  2943   000AD4  0E01               	movlw	1
  2944   000AD6  1A1C               	xorwf	___awdiv@sign^0,f,c
  2945   000AD8                     l2924:
  2946   000AD8  0E00               	movlw	0
  2947   000ADA  6E1E               	movwf	(___awdiv@quotient+1)^0,c
  2948   000ADC  0E00               	movlw	0
  2949   000ADE  6E1D               	movwf	___awdiv@quotient^0,c
  2950   000AE0  5019               	movf	___awdiv@divisor^0,w,c
  2951   000AE2  101A               	iorwf	(___awdiv@divisor+1)^0,w,c
  2952   000AE4  B4D8               	btfsc	status,2,c
  2953   000AE6  EF77  F005         	goto	u1021
  2954   000AEA  EF79  F005         	goto	u1020
  2955   000AEE                     u1021:
  2956   000AEE  EFA1  F005         	goto	l2946
  2957   000AF2                     u1020:
  2958   000AF2  0E01               	movlw	1
  2959   000AF4  6E1B               	movwf	___awdiv@counter^0,c
  2960   000AF6  EF81  F005         	goto	l2932
  2961   000AFA                     l2930:
  2962   000AFA  90D8               	bcf	status,0,c
  2963   000AFC  3619               	rlcf	___awdiv@divisor^0,f,c
  2964   000AFE  361A               	rlcf	(___awdiv@divisor+1)^0,f,c
  2965   000B00  2A1B               	incf	___awdiv@counter^0,f,c
  2966   000B02                     l2932:
  2967   000B02  AE1A               	btfss	(___awdiv@divisor+1)^0,7,c
  2968   000B04  EF86  F005         	goto	u1031
  2969   000B08  EF88  F005         	goto	u1030
  2970   000B0C                     u1031:
  2971   000B0C  EF7D  F005         	goto	l2930
  2972   000B10                     u1030:
  2973   000B10                     l2934:
  2974   000B10  90D8               	bcf	status,0,c
  2975   000B12  361D               	rlcf	___awdiv@quotient^0,f,c
  2976   000B14  361E               	rlcf	(___awdiv@quotient+1)^0,f,c
  2977   000B16  5019               	movf	___awdiv@divisor^0,w,c
  2978   000B18  5C17               	subwf	___awdiv@dividend^0,w,c
  2979   000B1A  501A               	movf	(___awdiv@divisor+1)^0,w,c
  2980   000B1C  5818               	subwfb	(___awdiv@dividend+1)^0,w,c
  2981   000B1E  A0D8               	btfss	status,0,c
  2982   000B20  EF94  F005         	goto	u1041
  2983   000B24  EF96  F005         	goto	u1040
  2984   000B28                     u1041:
  2985   000B28  EF9B  F005         	goto	l2942
  2986   000B2C                     u1040:
  2987   000B2C  5019               	movf	___awdiv@divisor^0,w,c
  2988   000B2E  5E17               	subwf	___awdiv@dividend^0,f,c
  2989   000B30  501A               	movf	(___awdiv@divisor+1)^0,w,c
  2990   000B32  5A18               	subwfb	(___awdiv@dividend+1)^0,f,c
  2991   000B34  801D               	bsf	___awdiv@quotient^0,0,c
  2992   000B36                     l2942:
  2993   000B36  90D8               	bcf	status,0,c
  2994   000B38  321A               	rrcf	(___awdiv@divisor+1)^0,f,c
  2995   000B3A  3219               	rrcf	___awdiv@divisor^0,f,c
  2996   000B3C  2E1B               	decfsz	___awdiv@counter^0,f,c
  2997   000B3E  EF88  F005         	goto	l2934
  2998   000B42                     l2946:
  2999   000B42  501C               	movf	___awdiv@sign^0,w,c
  3000   000B44  B4D8               	btfsc	status,2,c
  3001   000B46  EFA7  F005         	goto	u1051
  3002   000B4A  EFA9  F005         	goto	u1050
  3003   000B4E                     u1051:
  3004   000B4E  EFAD  F005         	goto	l2950
  3005   000B52                     u1050:
  3006   000B52  6C1D               	negf	___awdiv@quotient^0,c
  3007   000B54  1E1E               	comf	(___awdiv@quotient+1)^0,f,c
  3008   000B56  B0D8               	btfsc	status,0,c
  3009   000B58  2A1E               	incf	(___awdiv@quotient+1)^0,f,c
  3010   000B5A                     l2950:
  3011   000B5A  C01D  F017         	movff	___awdiv@quotient,?___awdiv
  3012   000B5E  C01E  F018         	movff	___awdiv@quotient+1,?___awdiv+1
  3013   000B62  0012               	return		;funcret
  3014   000B64                     __end_of___awdiv:
  3015                           	callstack 0
  3016                           
  3017 ;; *************** function _SYSTEM_Initialize *****************
  3018 ;; Defined at:
  3019 ;;		line 50 in file "mcc_generated_files/mcc.c"
  3020 ;; Parameters:    Size  Location     Type
  3021 ;;		None
  3022 ;; Auto vars:     Size  Location     Type
  3023 ;;		None
  3024 ;; Return value:  Size  Location     Type
  3025 ;;                  1    wreg      void 
  3026 ;; Registers used:
  3027 ;;		wreg, status,2, cstack
  3028 ;; Tracked objects:
  3029 ;;		On entry : 0/0
  3030 ;;		On exit  : 0/0
  3031 ;;		Unchanged: 0/0
  3032 ;; Data sizes:     COMRAM   BANK0   BANK1   BANK2   BANK3   BANK4   BANK5   BANK6   BANK7
  3033 ;;      Params:         0       0       0       0       0       0       0       0       0
  3034 ;;      Locals:         0       0       0       0       0       0       0       0       0
  3035 ;;      Temps:          0       0       0       0       0       0       0       0       0
  3036 ;;      Totals:         0       0       0       0       0       0       0       0       0
  3037 ;;Total ram usage:        0 bytes
  3038 ;; Hardware stack levels used: 1
  3039 ;; Hardware stack levels required when called: 8
  3040 ;; This function calls:
  3041 ;;		_I2C1_Initialize
  3042 ;;		_INTERRUPT_Initialize
  3043 ;;		_OSCILLATOR_Initialize
  3044 ;;		_PIN_MANAGER_Initialize
  3045 ;; This function is called by:
  3046 ;;		_main
  3047 ;; This function uses a non-reentrant model
  3048 ;;
  3049                           
  3050                           	psect	text9
  3051   001294                     __ptext9:
  3052                           	callstack 0
  3053   001294                     _SYSTEM_Initialize:
  3054                           	callstack 22
  3055   001294                     
  3056                           ;mcc_generated_files/mcc.c: 53:     INTERRUPT_Initialize();
  3057   001294  ECA4  F009         	call	_INTERRUPT_Initialize	;wreg free
  3058   001298                     
  3059                           ;mcc_generated_files/mcc.c: 54:     I2C1_Initialize();
  3060   001298  EC53  F009         	call	_I2C1_Initialize	;wreg free
  3061   00129C                     
  3062                           ;mcc_generated_files/mcc.c: 55:     PIN_MANAGER_Initialize();
  3063   00129C  EC2C  F009         	call	_PIN_MANAGER_Initialize	;wreg free
  3064   0012A0                     
  3065                           ;mcc_generated_files/mcc.c: 56:     OSCILLATOR_Initialize();
  3066   0012A0  EC1E  F009         	call	_OSCILLATOR_Initialize	;wreg free
  3067   0012A4  0012               	return		;funcret
  3068   0012A6                     __end_of_SYSTEM_Initialize:
  3069                           	callstack 0
  3070                           
  3071 ;; *************** function _PIN_MANAGER_Initialize *****************
  3072 ;; Defined at:
  3073 ;;		line 55 in file "mcc_generated_files/pin_manager.c"
  3074 ;; Parameters:    Size  Location     Type
  3075 ;;		None
  3076 ;; Auto vars:     Size  Location     Type
  3077 ;;		None
  3078 ;; Return value:  Size  Location     Type
  3079 ;;                  1    wreg      void 
  3080 ;; Registers used:
  3081 ;;		wreg, status,2
  3082 ;; Tracked objects:
  3083 ;;		On entry : 0/0
  3084 ;;		On exit  : 0/0
  3085 ;;		Unchanged: 0/0
  3086 ;; Data sizes:     COMRAM   BANK0   BANK1   BANK2   BANK3   BANK4   BANK5   BANK6   BANK7
  3087 ;;      Params:         0       0       0       0       0       0       0       0       0
  3088 ;;      Locals:         0       0       0       0       0       0       0       0       0
  3089 ;;      Temps:          0       0       0       0       0       0       0       0       0
  3090 ;;      Totals:         0       0       0       0       0       0       0       0       0
  3091 ;;Total ram usage:        0 bytes
  3092 ;; Hardware stack levels used: 1
  3093 ;; Hardware stack levels required when called: 7
  3094 ;; This function calls:
  3095 ;;		Nothing
  3096 ;; This function is called by:
  3097 ;;		_SYSTEM_Initialize
  3098 ;; This function uses a non-reentrant model
  3099 ;;
  3100                           
  3101                           	psect	text10
  3102   001258                     __ptext10:
  3103                           	callstack 0
  3104   001258                     _PIN_MANAGER_Initialize:
  3105                           	callstack 22
  3106   001258                     
  3107                           ;mcc_generated_files/pin_manager.c: 60:     LATA = 0x00;
  3108   001258  6A89               	clrf	137,c	;volatile
  3109                           
  3110                           ;mcc_generated_files/pin_manager.c: 61:     LATB = 0x00;
  3111   00125A  6A8A               	clrf	138,c	;volatile
  3112                           
  3113                           ;mcc_generated_files/pin_manager.c: 62:     LATC = 0x00;
  3114   00125C  6A8B               	clrf	139,c	;volatile
  3115   00125E                     
  3116                           ;mcc_generated_files/pin_manager.c: 68:     TRISB = 0x03;
  3117   00125E  0E03               	movlw	3
  3118   001260  6E93               	movwf	147,c	;volatile
  3119   001262                     
  3120                           ;mcc_generated_files/pin_manager.c: 75:     ANSELB = 0x00;
  3121   001262  010F               	movlb	15	; () banked
  3122   001264  6B5C               	clrf	92,b	;volatile
  3123   001266                     
  3124                           ; BSR set to: 15
  3125                           ;mcc_generated_files/pin_manager.c: 81:     WPUBbits.WPUB0 = 1;
  3126   001266  8085               	bsf	133,0,c	;volatile
  3127   001268                     
  3128                           ; BSR set to: 15
  3129                           ;mcc_generated_files/pin_manager.c: 82:     INTCON2bits.nRBPU = 0;
  3130   001268  9EF1               	bcf	241,7,c	;volatile
  3131   00126A                     
  3132                           ; BSR set to: 15
  3133   00126A  0012               	return		;funcret
  3134   00126C                     __end_of_PIN_MANAGER_Initialize:
  3135                           	callstack 0
  3136                           
  3137 ;; *************** function _OSCILLATOR_Initialize *****************
  3138 ;; Defined at:
  3139 ;;		line 59 in file "mcc_generated_files/mcc.c"
  3140 ;; Parameters:    Size  Location     Type
  3141 ;;		None
  3142 ;; Auto vars:     Size  Location     Type
  3143 ;;		None
  3144 ;; Return value:  Size  Location     Type
  3145 ;;                  1    wreg      void 
  3146 ;; Registers used:
  3147 ;;		wreg, status,2
  3148 ;; Tracked objects:
  3149 ;;		On entry : 0/0
  3150 ;;		On exit  : 0/0
  3151 ;;		Unchanged: 0/0
  3152 ;; Data sizes:     COMRAM   BANK0   BANK1   BANK2   BANK3   BANK4   BANK5   BANK6   BANK7
  3153 ;;      Params:         0       0       0       0       0       0       0       0       0
  3154 ;;      Locals:         0       0       0       0       0       0       0       0       0
  3155 ;;      Temps:          0       0       0       0       0       0       0       0       0
  3156 ;;      Totals:         0       0       0       0       0       0       0       0       0
  3157 ;;Total ram usage:        0 bytes
  3158 ;; Hardware stack levels used: 1
  3159 ;; Hardware stack levels required when called: 7
  3160 ;; This function calls:
  3161 ;;		Nothing
  3162 ;; This function is called by:
  3163 ;;		_SYSTEM_Initialize
  3164 ;; This function uses a non-reentrant model
  3165 ;;
  3166                           
  3167                           	psect	text11
  3168   00123C                     __ptext11:
  3169                           	callstack 0
  3170   00123C                     _OSCILLATOR_Initialize:
  3171                           	callstack 22
  3172   00123C                     
  3173                           ;mcc_generated_files/mcc.c: 62:     OSCCON = 0x70;
  3174   00123C  0E70               	movlw	112
  3175   00123E  6ED3               	movwf	211,c	;volatile
  3176   001240                     
  3177                           ;mcc_generated_files/mcc.c: 64:     OSCCON2 = 0x00;
  3178   001240  6AD2               	clrf	210,c	;volatile
  3179                           
  3180                           ;mcc_generated_files/mcc.c: 66:     OSCTUNE = 0x80;
  3181   001242  0E80               	movlw	128
  3182   001244  6E9B               	movwf	155,c	;volatile
  3183   001246                     
  3184                           ;mcc_generated_files/mcc.c: 68:     ACTCON = 0x00;
  3185   001246  6AB5               	clrf	181,c	;volatile
  3186   001248                     l152:
  3187                           
  3188                           ;mcc_generated_files/mcc.c: 70:     while(PLLRDY == 0)
  3189   001248  AED2               	btfss	4050,7,c	;volatile
  3190   00124A  EF29  F009         	goto	u1361
  3191   00124E  EF2B  F009         	goto	u1360
  3192   001252                     u1361:
  3193   001252  EF24  F009         	goto	l152
  3194   001256                     u1360:
  3195   001256  0012               	return		;funcret
  3196   001258                     __end_of_OSCILLATOR_Initialize:
  3197                           	callstack 0
  3198                           
  3199 ;; *************** function _INTERRUPT_Initialize *****************
  3200 ;; Defined at:
  3201 ;;		line 52 in file "mcc_generated_files/interrupt_manager.c"
  3202 ;; Parameters:    Size  Location     Type
  3203 ;;		None
  3204 ;; Auto vars:     Size  Location     Type
  3205 ;;		None
  3206 ;; Return value:  Size  Location     Type
  3207 ;;                  1    wreg      void 
  3208 ;; Registers used:
  3209 ;;		None
  3210 ;; Tracked objects:
  3211 ;;		On entry : 0/0
  3212 ;;		On exit  : 0/0
  3213 ;;		Unchanged: 0/0
  3214 ;; Data sizes:     COMRAM   BANK0   BANK1   BANK2   BANK3   BANK4   BANK5   BANK6   BANK7
  3215 ;;      Params:         0       0       0       0       0       0       0       0       0
  3216 ;;      Locals:         0       0       0       0       0       0       0       0       0
  3217 ;;      Temps:          0       0       0       0       0       0       0       0       0
  3218 ;;      Totals:         0       0       0       0       0       0       0       0       0
  3219 ;;Total ram usage:        0 bytes
  3220 ;; Hardware stack levels used: 1
  3221 ;; Hardware stack levels required when called: 7
  3222 ;; This function calls:
  3223 ;;		Nothing
  3224 ;; This function is called by:
  3225 ;;		_SYSTEM_Initialize
  3226 ;; This function uses a non-reentrant model
  3227 ;;
  3228                           
  3229                           	psect	text12
  3230   001348                     __ptext12:
  3231                           	callstack 0
  3232   001348                     _INTERRUPT_Initialize:
  3233                           	callstack 22
  3234   001348                     
  3235                           ;mcc_generated_files/interrupt_manager.c: 55:     RCONbits.IPEN = 0;
  3236   001348  9ED0               	bcf	208,7,c	;volatile
  3237   00134A  0012               	return		;funcret
  3238   00134C                     __end_of_INTERRUPT_Initialize:
  3239                           	callstack 0
  3240                           
  3241 ;; *************** function _I2C1_Initialize *****************
  3242 ;; Defined at:
  3243 ;;		line 167 in file "mcc_generated_files/i2c1_master.c"
  3244 ;; Parameters:    Size  Location     Type
  3245 ;;		None
  3246 ;; Auto vars:     Size  Location     Type
  3247 ;;		None
  3248 ;; Return value:  Size  Location     Type
  3249 ;;                  1    wreg      void 
  3250 ;; Registers used:
  3251 ;;		wreg, status,2
  3252 ;; Tracked objects:
  3253 ;;		On entry : 0/0
  3254 ;;		On exit  : 0/0
  3255 ;;		Unchanged: 0/0
  3256 ;; Data sizes:     COMRAM   BANK0   BANK1   BANK2   BANK3   BANK4   BANK5   BANK6   BANK7
  3257 ;;      Params:         0       0       0       0       0       0       0       0       0
  3258 ;;      Locals:         0       0       0       0       0       0       0       0       0
  3259 ;;      Temps:          0       0       0       0       0       0       0       0       0
  3260 ;;      Totals:         0       0       0       0       0       0       0       0       0
  3261 ;;Total ram usage:        0 bytes
  3262 ;; Hardware stack levels used: 1
  3263 ;; Hardware stack levels required when called: 7
  3264 ;; This function calls:
  3265 ;;		Nothing
  3266 ;; This function is called by:
  3267 ;;		_SYSTEM_Initialize
  3268 ;; This function uses a non-reentrant model
  3269 ;;
  3270                           
  3271                           	psect	text13
  3272   0012A6                     __ptext13:
  3273                           	callstack 0
  3274   0012A6                     _I2C1_Initialize:
  3275                           	callstack 22
  3276   0012A6                     
  3277                           ;mcc_generated_files/i2c1_master.c: 169:     SSP1STAT = 0x00;
  3278   0012A6  6AC7               	clrf	199,c	;volatile
  3279   0012A8                     
  3280                           ;mcc_generated_files/i2c1_master.c: 170:     SSP1CON1 = 0x08;
  3281   0012A8  0E08               	movlw	8
  3282   0012AA  6EC6               	movwf	198,c	;volatile
  3283   0012AC                     
  3284                           ;mcc_generated_files/i2c1_master.c: 171:     SSP1CON2 = 0x00;
  3285   0012AC  6AC5               	clrf	197,c	;volatile
  3286                           
  3287                           ;mcc_generated_files/i2c1_master.c: 172:     SSP1ADD = 0x77;
  3288   0012AE  0E77               	movlw	119
  3289   0012B0  6EC8               	movwf	200,c	;volatile
  3290   0012B2                     
  3291                           ;mcc_generated_files/i2c1_master.c: 173:     SSP1CON1bits.SSPEN = 0;
  3292   0012B2  9AC6               	bcf	198,5,c	;volatile
  3293   0012B4  0012               	return		;funcret
  3294   0012B6                     __end_of_I2C1_Initialize:
  3295                           	callstack 0
  3296                           
  3297 ;; *************** function _INTERRUPT_InterruptManager *****************
  3298 ;; Defined at:
  3299 ;;		line 58 in file "mcc_generated_files/interrupt_manager.c"
  3300 ;; Parameters:    Size  Location     Type
  3301 ;;		None
  3302 ;; Auto vars:     Size  Location     Type
  3303 ;;		None
  3304 ;; Return value:  Size  Location     Type
  3305 ;;                  1    wreg      void 
  3306 ;; Registers used:
  3307 ;;		wreg, fsr2l, fsr2h, status,2, status,0, pcl, pclath, pclatu, tosl, tblptrl, tblptrh, tblptru, prodl, prodh, cstack
  3308 ;; Tracked objects:
  3309 ;;		On entry : 0/0
  3310 ;;		On exit  : 0/0
  3311 ;;		Unchanged: 0/0
  3312 ;; Data sizes:     COMRAM   BANK0   BANK1   BANK2   BANK3   BANK4   BANK5   BANK6   BANK7
  3313 ;;      Params:         0       0       0       0       0       0       0       0       0
  3314 ;;      Locals:         0       0       0       0       0       0       0       0       0
  3315 ;;      Temps:         10       0       0       0       0       0       0       0       0
  3316 ;;      Totals:        10       0       0       0       0       0       0       0       0
  3317 ;;Total ram usage:       10 bytes
  3318 ;; Hardware stack levels used: 1
  3319 ;; Hardware stack levels required when called: 6
  3320 ;; This function calls:
  3321 ;;		NULL
  3322 ;;		_I2C1_MasterIsr
  3323 ;; This function is called by:
  3324 ;;		Interrupt level 2
  3325 ;; This function uses a non-reentrant model
  3326 ;;
  3327                           
  3328                           	psect	intcode
  3329   000008                     __pintcode:
  3330                           	callstack 0
  3331   000008                     _INTERRUPT_InterruptManager:
  3332                           	callstack 19
  3333                           
  3334                           ;incstack = 0
  3335   000008  8249               	bsf	int$flags,1,c	;set compiler interrupt flag (level 2)
  3336   00000A  CFFA F00D          	movff	pclath,??_INTERRUPT_InterruptManager
  3337   00000E  CFFB F00E          	movff	pclatu,??_INTERRUPT_InterruptManager+1
  3338   000012  CFD9 F00F          	movff	fsr2l,??_INTERRUPT_InterruptManager+2
  3339   000016  CFDA F010          	movff	fsr2h,??_INTERRUPT_InterruptManager+3
  3340   00001A  CFF3 F011          	movff	prodl,??_INTERRUPT_InterruptManager+4
  3341   00001E  CFF4 F012          	movff	prodh,??_INTERRUPT_InterruptManager+5
  3342   000022  CFF6 F013          	movff	tblptrl,??_INTERRUPT_InterruptManager+6
  3343   000026  CFF7 F014          	movff	tblptrh,??_INTERRUPT_InterruptManager+7
  3344   00002A  CFF8 F015          	movff	tblptru,??_INTERRUPT_InterruptManager+8
  3345   00002E  CFF5 F016          	movff	tablat,??_INTERRUPT_InterruptManager+9
  3346   000032                     
  3347                           ;mcc_generated_files/interrupt_manager.c: 61:     if(INTCONbits.PEIE == 1)
  3348   000032  ACF2               	btfss	242,6,c	;volatile
  3349   000034  EF1E  F000         	goto	i2u157_41
  3350   000038  EF20  F000         	goto	i2u157_40
  3351   00003C                     i2u157_41:
  3352   00003C  EF4D  F000         	goto	i2l183
  3353   000040                     i2u157_40:
  3354   000040                     
  3355                           ;mcc_generated_files/interrupt_manager.c: 62:     {;mcc_generated_files/interrupt_manage
      +                          r.c: 63:         if(PIE2bits.BCL1IE == 1 && PIR2bits.BCL1IF == 1)
  3356   000040  A6A0               	btfss	160,3,c	;volatile
  3357   000042  EF25  F000         	goto	i2u158_41
  3358   000046  EF27  F000         	goto	i2u158_40
  3359   00004A                     i2u158_41:
  3360   00004A  EF3D  F000         	goto	i2l178
  3361   00004E                     i2u158_40:
  3362   00004E  A6A1               	btfss	161,3,c	;volatile
  3363   000050  EF2C  F000         	goto	i2u159_41
  3364   000054  EF2E  F000         	goto	i2u159_40
  3365   000058                     i2u159_41:
  3366   000058  EF3D  F000         	goto	i2l178
  3367   00005C                     i2u159_40:
  3368   00005C                     i2l3520:
  3369                           
  3370                           ;mcc_generated_files/interrupt_manager.c: 64:         {;mcc_generated_files/interrupt_ma
      +                          nager.c: 65:             MSSP1_InterruptHandler();
  3371   00005C  D802               	call	i2u160_48
  3372   00005E  EF3B  F000         	goto	i2u160_49
  3373   000062                     i2u160_48:
  3374   000062  0005               	push	
  3375   000064  6EFA               	movwf	pclath,c
  3376   000066  5044               	movf	_MSSP1_InterruptHandler^0,w,c
  3377   000068  6EFD               	movwf	tosl,c
  3378   00006A  5045               	movf	(_MSSP1_InterruptHandler+1)^0,w,c
  3379   00006C  6EFE               	movwf	tosh,c
  3380   00006E  50F8               	movf	tblptru,w,c
  3381   000070  6EFF               	movwf	tosu,c
  3382   000072  50FA               	movf	pclath,w,c
  3383   000074  0012               	return		;indir
  3384   000076                     i2u160_49:
  3385                           
  3386                           ;mcc_generated_files/interrupt_manager.c: 66:         }
  3387   000076  EF4D  F000         	goto	i2l183
  3388   00007A                     i2l178:
  3389   00007A  A69D               	btfss	157,3,c	;volatile
  3390   00007C  EF42  F000         	goto	i2u161_41
  3391   000080  EF44  F000         	goto	i2u161_40
  3392   000084                     i2u161_41:
  3393   000084  EF4D  F000         	goto	i2l179
  3394   000088                     i2u161_40:
  3395   000088  A69E               	btfss	158,3,c	;volatile
  3396   00008A  EF49  F000         	goto	i2u162_41
  3397   00008E  EF4B  F000         	goto	i2u162_40
  3398   000092                     i2u162_41:
  3399   000092  EF4D  F000         	goto	i2l179
  3400   000096                     i2u162_40:
  3401   000096  EF2E  F000         	goto	i2l3520
  3402   00009A                     i2l179:
  3403   00009A                     i2l183:
  3404   00009A  C016  FFF5         	movff	??_INTERRUPT_InterruptManager+9,tablat
  3405   00009E  C015  FFF8         	movff	??_INTERRUPT_InterruptManager+8,tblptru
  3406   0000A2  C014  FFF7         	movff	??_INTERRUPT_InterruptManager+7,tblptrh
  3407   0000A6  C013  FFF6         	movff	??_INTERRUPT_InterruptManager+6,tblptrl
  3408   0000AA  C012  FFF4         	movff	??_INTERRUPT_InterruptManager+5,prodh
  3409   0000AE  C011  FFF3         	movff	??_INTERRUPT_InterruptManager+4,prodl
  3410   0000B2  C010  FFDA         	movff	??_INTERRUPT_InterruptManager+3,fsr2h
  3411   0000B6  C00F  FFD9         	movff	??_INTERRUPT_InterruptManager+2,fsr2l
  3412   0000BA  C00E  FFFB         	movff	??_INTERRUPT_InterruptManager+1,pclatu
  3413   0000BE  C00D  FFFA         	movff	??_INTERRUPT_InterruptManager,pclath
  3414   0000C2  9249               	bcf	int$flags,1,c	;clear compiler interrupt flag (level 2)
  3415   0000C4  0011               	retfie		f
  3416   0000C6                     __end_of_INTERRUPT_InterruptManager:
  3417                           	callstack 0
  3418                           
  3419 ;; *************** function _I2C1_MasterIsr *****************
  3420 ;; Defined at:
  3421 ;;		line 318 in file "mcc_generated_files/i2c1_master.c"
  3422 ;; Parameters:    Size  Location     Type
  3423 ;;		None
  3424 ;; Auto vars:     Size  Location     Type
  3425 ;;		None
  3426 ;; Return value:  Size  Location     Type
  3427 ;;                  1    wreg      void 
  3428 ;; Registers used:
  3429 ;;		wreg, fsr2l, fsr2h, status,2, status,0, pcl, pclath, pclatu, tosl, tblptrl, tblptrh, tblptru, prodl, prodh, cstack
  3430 ;; Tracked objects:
  3431 ;;		On entry : 0/0
  3432 ;;		On exit  : 0/0
  3433 ;;		Unchanged: 0/0
  3434 ;; Data sizes:     COMRAM   BANK0   BANK1   BANK2   BANK3   BANK4   BANK5   BANK6   BANK7
  3435 ;;      Params:         0       0       0       0       0       0       0       0       0
  3436 ;;      Locals:         0       0       0       0       0       0       0       0       0
  3437 ;;      Temps:          0       0       0       0       0       0       0       0       0
  3438 ;;      Totals:         0       0       0       0       0       0       0       0       0
  3439 ;;Total ram usage:        0 bytes
  3440 ;; Hardware stack levels used: 1
  3441 ;; Hardware stack levels required when called: 5
  3442 ;; This function calls:
  3443 ;;		_I2C1_MasterFsm
  3444 ;; This function is called by:
  3445 ;;		_I2C1_Open
  3446 ;;		_INTERRUPT_InterruptManager
  3447 ;; This function uses a non-reentrant model
  3448 ;;
  3449                           
  3450                           	psect	text15
  3451   001336                     __ptext15:
  3452                           	callstack 0
  3453   001336                     _I2C1_MasterIsr:
  3454                           	callstack 19
  3455   001336                     
  3456                           ;mcc_generated_files/i2c1_master.c: 320:     I2C1_MasterFsm();
  3457   001336  EC75  F007         	call	_I2C1_MasterFsm	;wreg free
  3458   00133A  0012               	return		;funcret
  3459   00133C                     __end_of_I2C1_MasterIsr:
  3460                           	callstack 0
  3461                           
  3462 ;; *************** function _I2C1_MasterFsm *****************
  3463 ;; Defined at:
  3464 ;;		line 323 in file "mcc_generated_files/i2c1_master.c"
  3465 ;; Parameters:    Size  Location     Type
  3466 ;;		None
  3467 ;; Auto vars:     Size  Location     Type
  3468 ;;		None
  3469 ;; Return value:  Size  Location     Type
  3470 ;;                  1    wreg      void 
  3471 ;; Registers used:
  3472 ;;		wreg, fsr2l, fsr2h, status,2, status,0, pcl, pclath, pclatu, tosl, tblptrl, tblptrh, tblptru, prodl, prodh, cstack
  3473 ;; Tracked objects:
  3474 ;;		On entry : 0/0
  3475 ;;		On exit  : 0/0
  3476 ;;		Unchanged: 0/0
  3477 ;; Data sizes:     COMRAM   BANK0   BANK1   BANK2   BANK3   BANK4   BANK5   BANK6   BANK7
  3478 ;;      Params:         0       0       0       0       0       0       0       0       0
  3479 ;;      Locals:         0       0       0       0       0       0       0       0       0
  3480 ;;      Temps:          1       0       0       0       0       0       0       0       0
  3481 ;;      Totals:         1       0       0       0       0       0       0       0       0
  3482 ;;Total ram usage:        1 bytes
  3483 ;; Hardware stack levels used: 1
  3484 ;; Hardware stack levels required when called: 4
  3485 ;; This function calls:
  3486 ;;		_I2C1_DO_ADDRESS_NACK
  3487 ;;		_I2C1_DO_IDLE
  3488 ;;		_I2C1_DO_RCEN
  3489 ;;		_I2C1_DO_RESET
  3490 ;;		_I2C1_DO_RX
  3491 ;;		_I2C1_DO_RX_ACK
  3492 ;;		_I2C1_DO_RX_NACK_RESTART
  3493 ;;		_I2C1_DO_RX_NACK_STOP
  3494 ;;		_I2C1_DO_SEND_ADR_READ
  3495 ;;		_I2C1_DO_SEND_ADR_WRITE
  3496 ;;		_I2C1_DO_SEND_RESTART
  3497 ;;		_I2C1_DO_SEND_RESTART_READ
  3498 ;;		_I2C1_DO_SEND_RESTART_WRITE
  3499 ;;		_I2C1_DO_SEND_STOP
  3500 ;;		_I2C1_DO_TX
  3501 ;;		_I2C1_DO_TX_EMPTY
  3502 ;;		_I2C1_MasterClearIrq
  3503 ;;		_I2C1_MasterIsNack
  3504 ;; This function is called by:
  3505 ;;		_I2C1_MasterIsr
  3506 ;; This function uses a non-reentrant model
  3507 ;;
  3508                           
  3509                           	psect	text16
  3510   000EEA                     __ptext16:
  3511                           	callstack 0
  3512   000EEA                     _I2C1_MasterFsm:
  3513                           	callstack 19
  3514   000EEA                     
  3515                           ;mcc_generated_files/i2c1_master.c: 325:     I2C1_MasterClearIrq();
  3516   000EEA  ECA6  F009         	call	_I2C1_MasterClearIrq	;wreg free
  3517   000EEE                     
  3518                           ;mcc_generated_files/i2c1_master.c: 327:     if(I2C1_Status.addressNackCheck && I2C1_Mas
      +                          terIsNack())
  3519   000EEE  0100               	movlb	0	; () banked
  3520   000EF0  A19D               	btfss	(_I2C1_Status+29)& (0+255),0,b
  3521   000EF2  EF7D  F007         	goto	i2u139_41
  3522   000EF6  EF7F  F007         	goto	i2u139_40
  3523   000EFA                     i2u139_41:
  3524   000EFA  EF8C  F007         	goto	i2l3328
  3525   000EFE                     i2u139_40:
  3526   000EFE                     
  3527                           ; BSR set to: 0
  3528   000EFE  EC36  F009         	call	_I2C1_MasterIsNack	;wreg free
  3529   000F02  0900               	iorlw	0
  3530   000F04  B4D8               	btfsc	status,2,c
  3531   000F06  EF87  F007         	goto	i2u140_41
  3532   000F0A  EF89  F007         	goto	i2u140_40
  3533   000F0E                     i2u140_41:
  3534   000F0E  EF8C  F007         	goto	i2l3328
  3535   000F12                     i2u140_40:
  3536   000F12                     
  3537                           ;mcc_generated_files/i2c1_master.c: 328:     {;mcc_generated_files/i2c1_master.c: 329:  
      +                                 I2C1_Status.state = I2C1_ADDRESS_NACK;
  3538   000F12  0E0F               	movlw	15
  3539   000F14  0100               	movlb	0	; () banked
  3540   000F16  6F9B               	movwf	(_I2C1_Status+27)& (0+255),b
  3541   000F18                     i2l3328:
  3542                           
  3543                           ;mcc_generated_files/i2c1_master.c: 331:     I2C1_Status.state = i2c1_fsmStateTable[I2C1
      +                          _Status.state]();
  3544   000F18  0100               	movlb	0	; () banked
  3545   000F1A  519B               	movf	(_I2C1_Status+27)& (0+255),w,b
  3546   000F1C  0D02               	mullw	2
  3547   000F1E  50F3               	movf	243,w,c
  3548   000F20  0F01               	addlw	low _i2c1_fsmStateTable
  3549   000F22  6E0C               	movwf	??_I2C1_MasterFsm^0,c
  3550   000F24  C00C  FFF6         	movff	??_I2C1_MasterFsm,tblptrl
  3551   000F28                     	if	1	;There is more than 1 active tblptr byte
  3552   000F28  0E08               	movlw	high __smallconst
  3553   000F2A  6EF7               	movwf	tblptrh,c
  3554   000F2C                     	endif
  3555   000F2C                     	if	0	;tblptru may be non-zero
  3556   000F2C                     	endif
  3557   000F2C                     	if	0	;tblptru may be non-zero
  3558   000F2C                     	endif
  3559   000F2C  D802               	call	i2u141_48
  3560   000F2E  EFA5  F007         	goto	i2u141_49
  3561   000F32                     i2u141_48:
  3562   000F32  0005               	push	
  3563   000F34  6EFA               	movwf	pclath,c
  3564   000F36  0009               	tblrd		*+
  3565   000F38  50F5               	movf	tablat,w,c
  3566   000F3A  6EFD               	movwf	tosl,c
  3567   000F3C  0009               	tblrd		*+
  3568   000F3E  50F5               	movf	tablat,w,c
  3569   000F40  6EFE               	movwf	tosh,c
  3570   000F42  50F8               	movf	tblptru,w,c
  3571   000F44  6EFF               	movwf	tosu,c
  3572   000F46  50FA               	movf	pclath,w,c
  3573   000F48  0012               	return		;indir
  3574   000F4A                     i2u141_49:
  3575   000F4A  0100               	movlb	0	; () banked
  3576   000F4C  6F9B               	movwf	(_I2C1_Status+27)& (0+255),b
  3577   000F4E                     
  3578                           ; BSR set to: 0
  3579   000F4E  0012               	return		;funcret
  3580   000F50                     __end_of_I2C1_MasterFsm:
  3581                           	callstack 0
  3582                           
  3583 ;; *************** function _I2C1_MasterClearIrq *****************
  3584 ;; Defined at:
  3585 ;;		line 642 in file "mcc_generated_files/i2c1_master.c"
  3586 ;; Parameters:    Size  Location     Type
  3587 ;;		None
  3588 ;; Auto vars:     Size  Location     Type
  3589 ;;		None
  3590 ;; Return value:  Size  Location     Type
  3591 ;;                  1    wreg      void 
  3592 ;; Registers used:
  3593 ;;		None
  3594 ;; Tracked objects:
  3595 ;;		On entry : 0/0
  3596 ;;		On exit  : 0/0
  3597 ;;		Unchanged: 0/0
  3598 ;; Data sizes:     COMRAM   BANK0   BANK1   BANK2   BANK3   BANK4   BANK5   BANK6   BANK7
  3599 ;;      Params:         0       0       0       0       0       0       0       0       0
  3600 ;;      Locals:         0       0       0       0       0       0       0       0       0
  3601 ;;      Temps:          0       0       0       0       0       0       0       0       0
  3602 ;;      Totals:         0       0       0       0       0       0       0       0       0
  3603 ;;Total ram usage:        0 bytes
  3604 ;; Hardware stack levels used: 1
  3605 ;; This function calls:
  3606 ;;		Nothing
  3607 ;; This function is called by:
  3608 ;;		_I2C1_MasterFsm
  3609 ;;		_I2C1_Open
  3610 ;;		_I2C1_Close
  3611 ;; This function uses a non-reentrant model
  3612 ;;
  3613                           
  3614                           	psect	text17
  3615   00134C                     __ptext17:
  3616                           	callstack 0
  3617   00134C                     _I2C1_MasterClearIrq:
  3618                           	callstack 22
  3619   00134C                     
  3620                           ;mcc_generated_files/i2c1_master.c: 644:     PIR1bits.SSP1IF = 0;
  3621   00134C  969E               	bcf	158,3,c	;volatile
  3622   00134E  0012               	return		;funcret
  3623   001350                     __end_of_I2C1_MasterClearIrq:
  3624                           	callstack 0
  3625                           
  3626 ;; *************** function _I2C1_DO_ADDRESS_NACK *****************
  3627 ;; Defined at:
  3628 ;;		line 501 in file "mcc_generated_files/i2c1_master.c"
  3629 ;; Parameters:    Size  Location     Type
  3630 ;;		None
  3631 ;; Auto vars:     Size  Location     Type
  3632 ;;		None
  3633 ;; Return value:  Size  Location     Type
  3634 ;;                  1    wreg      enum E5014
  3635 ;; Registers used:
  3636 ;;		wreg, fsr2l, fsr2h, status,2, status,0, pcl, pclath, pclatu, tosl, prodl, prodh, cstack
  3637 ;; Tracked objects:
  3638 ;;		On entry : 0/0
  3639 ;;		On exit  : 0/0
  3640 ;;		Unchanged: 0/0
  3641 ;; Data sizes:     COMRAM   BANK0   BANK1   BANK2   BANK3   BANK4   BANK5   BANK6   BANK7
  3642 ;;      Params:         0       0       0       0       0       0       0       0       0
  3643 ;;      Locals:         0       0       0       0       0       0       0       0       0
  3644 ;;      Temps:          2       0       0       0       0       0       0       0       0
  3645 ;;      Totals:         2       0       0       0       0       0       0       0       0
  3646 ;;Total ram usage:        2 bytes
  3647 ;; Hardware stack levels used: 1
  3648 ;; Hardware stack levels required when called: 3
  3649 ;; This function calls:
  3650 ;;		NULL
  3651 ;;		_I2C1_CallbackReturnReset
  3652 ;;		_I2C1_CallbackReturnStop
  3653 ;;		_I2C1_DO_SEND_RESTART
  3654 ;;		_I2C1_DO_SEND_STOP
  3655 ;;		_rd1RegCompleteHandler
  3656 ;;		_rd1RegCompleteHandler@i2c_simple_master$F680
  3657 ;;		_rd2RegCompleteHandler
  3658 ;;		_rd2RegCompleteHandler@i2c_simple_master$F688
  3659 ;;		_rdBlkRegCompleteHandler
  3660 ;;		_rdBlkRegCompleteHandler@i2c_simple_master$F700
  3661 ;;		_wr1RegCompleteHandler
  3662 ;;		_wr1RegCompleteHandler@i2c_simple_master$F670
  3663 ;;		_wr2RegCompleteHandler
  3664 ;;		_wr2RegCompleteHandler@i2c_simple_master$F694
  3665 ;; This function is called by:
  3666 ;;		_I2C1_MasterFsm
  3667 ;; This function uses a non-reentrant model
  3668 ;;
  3669                           
  3670                           	psect	text18
  3671   000E82                     __ptext18:
  3672                           	callstack 0
  3673   000E82                     _I2C1_DO_ADDRESS_NACK:
  3674                           	callstack 19
  3675   000E82                     
  3676                           ;mcc_generated_files/i2c1_master.c: 503:     I2C1_Status.addressNackCheck = 0;
  3677   000E82  0100               	movlb	0	; () banked
  3678   000E84  919D               	bcf	(_I2C1_Status+29)& (0+255),0,b
  3679   000E86                     
  3680                           ; BSR set to: 0
  3681                           ;mcc_generated_files/i2c1_master.c: 504:     I2C1_Status.error = I2C1_FAIL;
  3682   000E86  0E02               	movlw	2
  3683   000E88  6F9C               	movwf	(_I2C1_Status+28)& (0+255),b
  3684                           
  3685                           ;mcc_generated_files/i2c1_master.c: 505:     switch(I2C1_Status.callbackTable[I2C1_ADDR_
      +                          NACK](I2C1_Status.callbackPayload[I2C1_ADDR_NACK]))
  3686   000E8A  EF4F  F007         	goto	i2l3226
  3687   000E8E                     i2l3216:
  3688                           
  3689                           ;mcc_generated_files/i2c1_master.c: 509:             return I2C1_DO_SEND_RESTART();
  3690   000E8E  EC8B  F009         	call	_I2C1_DO_SEND_RESTART	;wreg free
  3691   000E92  EF74  F007         	goto	i2l537
  3692   000E96                     i2l3220:
  3693                           
  3694                           ;mcc_generated_files/i2c1_master.c: 511:             return I2C1_DO_SEND_STOP();
  3695   000E96  EC87  F009         	call	_I2C1_DO_SEND_STOP	;wreg free
  3696   000E9A  EF74  F007         	goto	i2l537
  3697   000E9E                     i2l3226:
  3698                           
  3699                           ; BSR set to: 0
  3700   000E9E  C08E  F008         	movff	_I2C1_Status+14,I2C1_CallbackReturnReset@funPtr
  3701   000EA2  EE20  F084         	lfsr	2,_I2C1_Status+4
  3702   000EA6  D802               	call	i2u125_48
  3703   000EA8  EF60  F007         	goto	i2u125_49
  3704   000EAC                     i2u125_48:
  3705   000EAC  0005               	push	
  3706   000EAE  6EFA               	movwf	pclath,c
  3707   000EB0  50DE               	movf	postinc2,w,c
  3708   000EB2  6EFD               	movwf	tosl,c
  3709   000EB4  50DE               	movf	postinc2,w,c
  3710   000EB6  6EFE               	movwf	tosh,c
  3711   000EB8  50F8               	movf	tblptru,w,c
  3712   000EBA  6EFF               	movwf	tosu,c
  3713   000EBC  50FA               	movf	pclath,w,c
  3714   000EBE  0012               	return		;indir
  3715   000EC0                     i2u125_49:
  3716   000EC0  6E0A               	movwf	??_I2C1_DO_ADDRESS_NACK^0,c
  3717   000EC2  6A0B               	clrf	(??_I2C1_DO_ADDRESS_NACK+1)^0,c
  3718                           
  3719                           ; Switch on 2 bytes has been partitioned into a top level switch of size 1, and 1 sub-sw
      +                          itches
  3720                           ; Switch size 1, requested type "simple"
  3721                           ; Number of cases is 1, Range of values is 0 to 0
  3722                           ; switch strategies available:
  3723                           ; Name         Instructions Cycles
  3724                           ; simple_byte            4     3 (average)
  3725                           ;	Chosen strategy is simple_byte
  3726   000EC4  500B               	movf	(??_I2C1_DO_ADDRESS_NACK+1)^0,w,c
  3727   000EC6  0A00               	xorlw	0	; case 0
  3728   000EC8  B4D8               	btfsc	status,2,c
  3729   000ECA  EF69  F007         	goto	i2l3978
  3730   000ECE  EF4B  F007         	goto	i2l3220
  3731   000ED2                     i2l3978:
  3732                           
  3733                           ; Switch size 1, requested type "simple"
  3734                           ; Number of cases is 2, Range of values is 2 to 3
  3735                           ; switch strategies available:
  3736                           ; Name         Instructions Cycles
  3737                           ; simple_byte            7     4 (average)
  3738                           ;	Chosen strategy is simple_byte
  3739   000ED2  500A               	movf	??_I2C1_DO_ADDRESS_NACK^0,w,c
  3740   000ED4  0A02               	xorlw	2	; case 2
  3741   000ED6  B4D8               	btfsc	status,2,c
  3742   000ED8  EF47  F007         	goto	i2l3216
  3743   000EDC  0A01               	xorlw	1	; case 3
  3744   000EDE  B4D8               	btfsc	status,2,c
  3745   000EE0  EF47  F007         	goto	i2l3216
  3746   000EE4  EF4B  F007         	goto	i2l3220
  3747   000EE8                     i2l537:
  3748   000EE8  0012               	return		;funcret
  3749   000EEA                     __end_of_I2C1_DO_ADDRESS_NACK:
  3750                           	callstack 0
  3751                           
  3752 ;; *************** function _I2C1_DO_RESET *****************
  3753 ;; Defined at:
  3754 ;;		line 495 in file "mcc_generated_files/i2c1_master.c"
  3755 ;; Parameters:    Size  Location     Type
  3756 ;;		None
  3757 ;; Auto vars:     Size  Location     Type
  3758 ;;		None
  3759 ;; Return value:  Size  Location     Type
  3760 ;;                  1    wreg      enum E5014
  3761 ;; Registers used:
  3762 ;;		wreg
  3763 ;; Tracked objects:
  3764 ;;		On entry : 0/0
  3765 ;;		On exit  : 0/0
  3766 ;;		Unchanged: 0/0
  3767 ;; Data sizes:     COMRAM   BANK0   BANK1   BANK2   BANK3   BANK4   BANK5   BANK6   BANK7
  3768 ;;      Params:         0       0       0       0       0       0       0       0       0
  3769 ;;      Locals:         0       0       0       0       0       0       0       0       0
  3770 ;;      Temps:          0       0       0       0       0       0       0       0       0
  3771 ;;      Totals:         0       0       0       0       0       0       0       0       0
  3772 ;;Total ram usage:        0 bytes
  3773 ;; Hardware stack levels used: 1
  3774 ;; This function calls:
  3775 ;;		Nothing
  3776 ;; This function is called by:
  3777 ;;		_I2C1_MasterFsm
  3778 ;; This function uses a non-reentrant model
  3779 ;;
  3780                           
  3781                           	psect	text19
  3782   0012E2                     __ptext19:
  3783                           	callstack 0
  3784   0012E2                     _I2C1_DO_RESET:
  3785                           	callstack 22
  3786   0012E2                     
  3787                           ;mcc_generated_files/i2c1_master.c: 497:     I2C1_Status.busy = 0;
  3788   0012E2  0100               	movlb	0	; () banked
  3789   0012E4  939D               	bcf	(_I2C1_Status+29)& (0+255),1,b
  3790                           
  3791                           ;mcc_generated_files/i2c1_master.c: 498:     I2C1_Status.error = I2C1_NOERR;
  3792   0012E6  6B9C               	clrf	(_I2C1_Status+28)& (0+255),b
  3793   0012E8                     
  3794                           ; BSR set to: 0
  3795                           ;mcc_generated_files/i2c1_master.c: 499:     return I2C1_RESET;
  3796   0012E8  0E0E               	movlw	14
  3797   0012EA                     
  3798                           ; BSR set to: 0
  3799   0012EA  0012               	return		;funcret
  3800   0012EC                     __end_of_I2C1_DO_RESET:
  3801                           	callstack 0
  3802                           
  3803 ;; *************** function _I2C1_DO_RX_NACK_RESTART *****************
  3804 ;; Defined at:
  3805 ;;		line 489 in file "mcc_generated_files/i2c1_master.c"
  3806 ;; Parameters:    Size  Location     Type
  3807 ;;		None
  3808 ;; Auto vars:     Size  Location     Type
  3809 ;;		None
  3810 ;; Return value:  Size  Location     Type
  3811 ;;                  1    wreg      enum E5014
  3812 ;; Registers used:
  3813 ;;		wreg, cstack
  3814 ;; Tracked objects:
  3815 ;;		On entry : 0/0
  3816 ;;		On exit  : 0/0
  3817 ;;		Unchanged: 0/0
  3818 ;; Data sizes:     COMRAM   BANK0   BANK1   BANK2   BANK3   BANK4   BANK5   BANK6   BANK7
  3819 ;;      Params:         0       0       0       0       0       0       0       0       0
  3820 ;;      Locals:         0       0       0       0       0       0       0       0       0
  3821 ;;      Temps:          0       0       0       0       0       0       0       0       0
  3822 ;;      Totals:         0       0       0       0       0       0       0       0       0
  3823 ;;Total ram usage:        0 bytes
  3824 ;; Hardware stack levels used: 1
  3825 ;; Hardware stack levels required when called: 1
  3826 ;; This function calls:
  3827 ;;		_I2C1_MasterSendNack
  3828 ;; This function is called by:
  3829 ;;		_I2C1_DO_RX
  3830 ;;		_I2C1_MasterFsm
  3831 ;; This function uses a non-reentrant model
  3832 ;;
  3833                           
  3834                           	psect	text20
  3835   0012F6                     __ptext20:
  3836                           	callstack 0
  3837   0012F6                     _I2C1_DO_RX_NACK_RESTART:
  3838                           	callstack 21
  3839   0012F6                     
  3840                           ;mcc_generated_files/i2c1_master.c: 491:     I2C1_MasterSendNack();
  3841   0012F6  ECA1  F009         	call	_I2C1_MasterSendNack	;wreg free
  3842   0012FA                     
  3843                           ;mcc_generated_files/i2c1_master.c: 492:     return I2C1_SEND_RESTART;
  3844   0012FA  0E09               	movlw	9
  3845   0012FC  0012               	return		;funcret
  3846   0012FE                     __end_of_I2C1_DO_RX_NACK_RESTART:
  3847                           	callstack 0
  3848                           
  3849 ;; *************** function _I2C1_DO_RX_NACK_STOP *****************
  3850 ;; Defined at:
  3851 ;;		line 483 in file "mcc_generated_files/i2c1_master.c"
  3852 ;; Parameters:    Size  Location     Type
  3853 ;;		None
  3854 ;; Auto vars:     Size  Location     Type
  3855 ;;		None
  3856 ;; Return value:  Size  Location     Type
  3857 ;;                  1    wreg      enum E5014
  3858 ;; Registers used:
  3859 ;;		wreg, cstack
  3860 ;; Tracked objects:
  3861 ;;		On entry : 0/0
  3862 ;;		On exit  : 0/0
  3863 ;;		Unchanged: 0/0
  3864 ;; Data sizes:     COMRAM   BANK0   BANK1   BANK2   BANK3   BANK4   BANK5   BANK6   BANK7
  3865 ;;      Params:         0       0       0       0       0       0       0       0       0
  3866 ;;      Locals:         0       0       0       0       0       0       0       0       0
  3867 ;;      Temps:          0       0       0       0       0       0       0       0       0
  3868 ;;      Totals:         0       0       0       0       0       0       0       0       0
  3869 ;;Total ram usage:        0 bytes
  3870 ;; Hardware stack levels used: 1
  3871 ;; Hardware stack levels required when called: 1
  3872 ;; This function calls:
  3873 ;;		_I2C1_MasterSendNack
  3874 ;; This function is called by:
  3875 ;;		_I2C1_DO_RX
  3876 ;;		_I2C1_MasterFsm
  3877 ;; This function uses a non-reentrant model
  3878 ;;
  3879                           
  3880                           	psect	text21
  3881   0012FE                     __ptext21:
  3882                           	callstack 0
  3883   0012FE                     _I2C1_DO_RX_NACK_STOP:
  3884                           	callstack 21
  3885   0012FE                     
  3886                           ;mcc_generated_files/i2c1_master.c: 485:     I2C1_MasterSendNack();
  3887   0012FE  ECA1  F009         	call	_I2C1_MasterSendNack	;wreg free
  3888   001302                     
  3889                           ;mcc_generated_files/i2c1_master.c: 486:     return I2C1_SEND_STOP;
  3890   001302  0E0A               	movlw	10
  3891   001304  0012               	return		;funcret
  3892   001306                     __end_of_I2C1_DO_RX_NACK_STOP:
  3893                           	callstack 0
  3894                           
  3895 ;; *************** function _I2C1_DO_RX_ACK *****************
  3896 ;; Defined at:
  3897 ;;		line 476 in file "mcc_generated_files/i2c1_master.c"
  3898 ;; Parameters:    Size  Location     Type
  3899 ;;		None
  3900 ;; Auto vars:     Size  Location     Type
  3901 ;;		None
  3902 ;; Return value:  Size  Location     Type
  3903 ;;                  1    wreg      enum E5014
  3904 ;; Registers used:
  3905 ;;		wreg, cstack
  3906 ;; Tracked objects:
  3907 ;;		On entry : 0/0
  3908 ;;		On exit  : 0/0
  3909 ;;		Unchanged: 0/0
  3910 ;; Data sizes:     COMRAM   BANK0   BANK1   BANK2   BANK3   BANK4   BANK5   BANK6   BANK7
  3911 ;;      Params:         0       0       0       0       0       0       0       0       0
  3912 ;;      Locals:         0       0       0       0       0       0       0       0       0
  3913 ;;      Temps:          0       0       0       0       0       0       0       0       0
  3914 ;;      Totals:         0       0       0       0       0       0       0       0       0
  3915 ;;Total ram usage:        0 bytes
  3916 ;; Hardware stack levels used: 1
  3917 ;; Hardware stack levels required when called: 1
  3918 ;; This function calls:
  3919 ;;		_I2C1_MasterSendAck
  3920 ;; This function is called by:
  3921 ;;		_I2C1_MasterFsm
  3922 ;; This function uses a non-reentrant model
  3923 ;;
  3924                           
  3925                           	psect	text22
  3926   001306                     __ptext22:
  3927                           	callstack 0
  3928   001306                     _I2C1_DO_RX_ACK:
  3929                           	callstack 21
  3930   001306                     
  3931                           ;mcc_generated_files/i2c1_master.c: 478:     I2C1_MasterSendAck();
  3932   001306  EC9E  F009         	call	_I2C1_MasterSendAck	;wreg free
  3933   00130A                     
  3934                           ;mcc_generated_files/i2c1_master.c: 479:     return I2C1_RCEN;
  3935   00130A  0E05               	movlw	5
  3936   00130C  0012               	return		;funcret
  3937   00130E                     __end_of_I2C1_DO_RX_ACK:
  3938                           	callstack 0
  3939                           
  3940 ;; *************** function _I2C1_DO_SEND_STOP *****************
  3941 ;; Defined at:
  3942 ;;		line 470 in file "mcc_generated_files/i2c1_master.c"
  3943 ;; Parameters:    Size  Location     Type
  3944 ;;		None
  3945 ;; Auto vars:     Size  Location     Type
  3946 ;;		None
  3947 ;; Return value:  Size  Location     Type
  3948 ;;                  1    wreg      enum E5014
  3949 ;; Registers used:
  3950 ;;		wreg, cstack
  3951 ;; Tracked objects:
  3952 ;;		On entry : 0/0
  3953 ;;		On exit  : 0/0
  3954 ;;		Unchanged: 0/0
  3955 ;; Data sizes:     COMRAM   BANK0   BANK1   BANK2   BANK3   BANK4   BANK5   BANK6   BANK7
  3956 ;;      Params:         0       0       0       0       0       0       0       0       0
  3957 ;;      Locals:         0       0       0       0       0       0       0       0       0
  3958 ;;      Temps:          0       0       0       0       0       0       0       0       0
  3959 ;;      Totals:         0       0       0       0       0       0       0       0       0
  3960 ;;Total ram usage:        0 bytes
  3961 ;; Hardware stack levels used: 1
  3962 ;; Hardware stack levels required when called: 1
  3963 ;; This function calls:
  3964 ;;		_I2C1_MasterStop
  3965 ;; This function is called by:
  3966 ;;		_I2C1_DO_TX
  3967 ;;		_I2C1_DO_TX_EMPTY
  3968 ;;		_I2C1_DO_ADDRESS_NACK
  3969 ;;		_I2C1_MasterFsm
  3970 ;; This function uses a non-reentrant model
  3971 ;;
  3972                           
  3973                           	psect	text23
  3974   00130E                     __ptext23:
  3975                           	callstack 0
  3976   00130E                     _I2C1_DO_SEND_STOP:
  3977                           	callstack 20
  3978   00130E                     
  3979                           ;mcc_generated_files/i2c1_master.c: 472:     I2C1_MasterStop();
  3980   00130E  ECB2  F009         	call	_I2C1_MasterStop	;wreg free
  3981   001312                     
  3982                           ;mcc_generated_files/i2c1_master.c: 473:     return I2C1_IDLE;
  3983   001312  0E00               	movlw	0
  3984   001314  0012               	return		;funcret
  3985   001316                     __end_of_I2C1_DO_SEND_STOP:
  3986                           	callstack 0
  3987                           
  3988 ;; *************** function _I2C1_DO_SEND_RESTART *****************
  3989 ;; Defined at:
  3990 ;;		line 464 in file "mcc_generated_files/i2c1_master.c"
  3991 ;; Parameters:    Size  Location     Type
  3992 ;;		None
  3993 ;; Auto vars:     Size  Location     Type
  3994 ;;		None
  3995 ;; Return value:  Size  Location     Type
  3996 ;;                  1    wreg      enum E5014
  3997 ;; Registers used:
  3998 ;;		wreg, cstack
  3999 ;; Tracked objects:
  4000 ;;		On entry : 0/0
  4001 ;;		On exit  : 0/0
  4002 ;;		Unchanged: 0/0
  4003 ;; Data sizes:     COMRAM   BANK0   BANK1   BANK2   BANK3   BANK4   BANK5   BANK6   BANK7
  4004 ;;      Params:         0       0       0       0       0       0       0       0       0
  4005 ;;      Locals:         0       0       0       0       0       0       0       0       0
  4006 ;;      Temps:          0       0       0       0       0       0       0       0       0
  4007 ;;      Totals:         0       0       0       0       0       0       0       0       0
  4008 ;;Total ram usage:        0 bytes
  4009 ;; Hardware stack levels used: 1
  4010 ;; Hardware stack levels required when called: 1
  4011 ;; This function calls:
  4012 ;;		_I2C1_MasterEnableRestart
  4013 ;; This function is called by:
  4014 ;;		_I2C1_DO_TX_EMPTY
  4015 ;;		_I2C1_DO_ADDRESS_NACK
  4016 ;;		_I2C1_MasterFsm
  4017 ;; This function uses a non-reentrant model
  4018 ;;
  4019                           
  4020                           	psect	text24
  4021   001316                     __ptext24:
  4022                           	callstack 0
  4023   001316                     _I2C1_DO_SEND_RESTART:
  4024                           	callstack 20
  4025   001316                     
  4026                           ;mcc_generated_files/i2c1_master.c: 466:     I2C1_MasterEnableRestart();
  4027   001316  ECB4  F009         	call	_I2C1_MasterEnableRestart	;wreg free
  4028   00131A                     
  4029                           ;mcc_generated_files/i2c1_master.c: 467:     return I2C1_SEND_ADR_READ;
  4030   00131A  0E01               	movlw	1
  4031   00131C  0012               	return		;funcret
  4032   00131E                     __end_of_I2C1_DO_SEND_RESTART:
  4033                           	callstack 0
  4034                           
  4035 ;; *************** function _I2C1_DO_SEND_RESTART_WRITE *****************
  4036 ;; Defined at:
  4037 ;;		line 457 in file "mcc_generated_files/i2c1_master.c"
  4038 ;; Parameters:    Size  Location     Type
  4039 ;;		None
  4040 ;; Auto vars:     Size  Location     Type
  4041 ;;		None
  4042 ;; Return value:  Size  Location     Type
  4043 ;;                  1    wreg      enum E5014
  4044 ;; Registers used:
  4045 ;;		wreg, cstack
  4046 ;; Tracked objects:
  4047 ;;		On entry : 0/0
  4048 ;;		On exit  : 0/0
  4049 ;;		Unchanged: 0/0
  4050 ;; Data sizes:     COMRAM   BANK0   BANK1   BANK2   BANK3   BANK4   BANK5   BANK6   BANK7
  4051 ;;      Params:         0       0       0       0       0       0       0       0       0
  4052 ;;      Locals:         0       0       0       0       0       0       0       0       0
  4053 ;;      Temps:          0       0       0       0       0       0       0       0       0
  4054 ;;      Totals:         0       0       0       0       0       0       0       0       0
  4055 ;;Total ram usage:        0 bytes
  4056 ;; Hardware stack levels used: 1
  4057 ;; Hardware stack levels required when called: 1
  4058 ;; This function calls:
  4059 ;;		_I2C1_MasterEnableRestart
  4060 ;; This function is called by:
  4061 ;;		_I2C1_DO_TX
  4062 ;;		_I2C1_MasterFsm
  4063 ;; This function uses a non-reentrant model
  4064 ;;
  4065                           
  4066                           	psect	text25
  4067   00131E                     __ptext25:
  4068                           	callstack 0
  4069   00131E                     _I2C1_DO_SEND_RESTART_WRITE:
  4070                           	callstack 20
  4071   00131E                     
  4072                           ;mcc_generated_files/i2c1_master.c: 459:     I2C1_MasterEnableRestart();
  4073   00131E  ECB4  F009         	call	_I2C1_MasterEnableRestart	;wreg free
  4074   001322                     
  4075                           ;mcc_generated_files/i2c1_master.c: 460:     return I2C1_SEND_ADR_WRITE;
  4076   001322  0E02               	movlw	2
  4077   001324  0012               	return		;funcret
  4078   001326                     __end_of_I2C1_DO_SEND_RESTART_WRITE:
  4079                           	callstack 0
  4080                           
  4081 ;; *************** function _I2C1_DO_SEND_RESTART_READ *****************
  4082 ;; Defined at:
  4083 ;;		line 451 in file "mcc_generated_files/i2c1_master.c"
  4084 ;; Parameters:    Size  Location     Type
  4085 ;;		None
  4086 ;; Auto vars:     Size  Location     Type
  4087 ;;		None
  4088 ;; Return value:  Size  Location     Type
  4089 ;;                  1    wreg      enum E5014
  4090 ;; Registers used:
  4091 ;;		wreg, cstack
  4092 ;; Tracked objects:
  4093 ;;		On entry : 0/0
  4094 ;;		On exit  : 0/0
  4095 ;;		Unchanged: 0/0
  4096 ;; Data sizes:     COMRAM   BANK0   BANK1   BANK2   BANK3   BANK4   BANK5   BANK6   BANK7
  4097 ;;      Params:         0       0       0       0       0       0       0       0       0
  4098 ;;      Locals:         0       0       0       0       0       0       0       0       0
  4099 ;;      Temps:          0       0       0       0       0       0       0       0       0
  4100 ;;      Totals:         0       0       0       0       0       0       0       0       0
  4101 ;;Total ram usage:        0 bytes
  4102 ;; Hardware stack levels used: 1
  4103 ;; Hardware stack levels required when called: 1
  4104 ;; This function calls:
  4105 ;;		_I2C1_MasterEnableRestart
  4106 ;; This function is called by:
  4107 ;;		_I2C1_DO_TX
  4108 ;;		_I2C1_MasterFsm
  4109 ;; This function uses a non-reentrant model
  4110 ;;
  4111                           
  4112                           	psect	text26
  4113   001326                     __ptext26:
  4114                           	callstack 0
  4115   001326                     _I2C1_DO_SEND_RESTART_READ:
  4116                           	callstack 20
  4117   001326                     
  4118                           ;mcc_generated_files/i2c1_master.c: 453:     I2C1_MasterEnableRestart();
  4119   001326  ECB4  F009         	call	_I2C1_MasterEnableRestart	;wreg free
  4120   00132A                     
  4121                           ;mcc_generated_files/i2c1_master.c: 454:     return I2C1_SEND_ADR_READ;
  4122   00132A  0E01               	movlw	1
  4123   00132C  0012               	return		;funcret
  4124   00132E                     __end_of_I2C1_DO_SEND_RESTART_READ:
  4125                           	callstack 0
  4126                           
  4127 ;; *************** function _I2C1_DO_RCEN *****************
  4128 ;; Defined at:
  4129 ;;		line 404 in file "mcc_generated_files/i2c1_master.c"
  4130 ;; Parameters:    Size  Location     Type
  4131 ;;		None
  4132 ;; Auto vars:     Size  Location     Type
  4133 ;;		None
  4134 ;; Return value:  Size  Location     Type
  4135 ;;                  1    wreg      enum E5014
  4136 ;; Registers used:
  4137 ;;		wreg, cstack
  4138 ;; Tracked objects:
  4139 ;;		On entry : 0/0
  4140 ;;		On exit  : 0/0
  4141 ;;		Unchanged: 0/0
  4142 ;; Data sizes:     COMRAM   BANK0   BANK1   BANK2   BANK3   BANK4   BANK5   BANK6   BANK7
  4143 ;;      Params:         0       0       0       0       0       0       0       0       0
  4144 ;;      Locals:         0       0       0       0       0       0       0       0       0
  4145 ;;      Temps:          0       0       0       0       0       0       0       0       0
  4146 ;;      Totals:         0       0       0       0       0       0       0       0       0
  4147 ;;Total ram usage:        0 bytes
  4148 ;; Hardware stack levels used: 1
  4149 ;; Hardware stack levels required when called: 1
  4150 ;; This function calls:
  4151 ;;		_I2C1_MasterStartRx
  4152 ;; This function is called by:
  4153 ;;		_I2C1_MasterFsm
  4154 ;; This function uses a non-reentrant model
  4155 ;;
  4156                           
  4157                           	psect	text27
  4158   0012D6                     __ptext27:
  4159                           	callstack 0
  4160   0012D6                     _I2C1_DO_RCEN:
  4161                           	callstack 21
  4162   0012D6                     
  4163                           ;mcc_generated_files/i2c1_master.c: 406:     I2C1_Status.addressNackCheck = 0;
  4164   0012D6  0100               	movlb	0	; () banked
  4165   0012D8  919D               	bcf	(_I2C1_Status+29)& (0+255),0,b
  4166   0012DA                     
  4167                           ; BSR set to: 0
  4168                           ;mcc_generated_files/i2c1_master.c: 407:     I2C1_MasterStartRx();
  4169   0012DA  ECAC  F009         	call	_I2C1_MasterStartRx	;wreg free
  4170   0012DE                     
  4171                           ;mcc_generated_files/i2c1_master.c: 408:     return I2C1_RX;
  4172   0012DE  0E04               	movlw	4
  4173   0012E0  0012               	return		;funcret
  4174   0012E2                     __end_of_I2C1_DO_RCEN:
  4175                           	callstack 0
  4176                           
  4177 ;; *************** function _I2C1_DO_RX *****************
  4178 ;; Defined at:
  4179 ;;		line 380 in file "mcc_generated_files/i2c1_master.c"
  4180 ;; Parameters:    Size  Location     Type
  4181 ;;		None
  4182 ;; Auto vars:     Size  Location     Type
  4183 ;;		None
  4184 ;; Return value:  Size  Location     Type
  4185 ;;                  1    wreg      enum E5014
  4186 ;; Registers used:
  4187 ;;		wreg, fsr2l, fsr2h, status,2, status,0, pcl, pclath, pclatu, tosl, prodl, prodh, cstack
  4188 ;; Tracked objects:
  4189 ;;		On entry : 0/0
  4190 ;;		On exit  : 0/0
  4191 ;;		Unchanged: 0/0
  4192 ;; Data sizes:     COMRAM   BANK0   BANK1   BANK2   BANK3   BANK4   BANK5   BANK6   BANK7
  4193 ;;      Params:         0       0       0       0       0       0       0       0       0
  4194 ;;      Locals:         0       0       0       0       0       0       0       0       0
  4195 ;;      Temps:          2       0       0       0       0       0       0       0       0
  4196 ;;      Totals:         2       0       0       0       0       0       0       0       0
  4197 ;;Total ram usage:        2 bytes
  4198 ;; Hardware stack levels used: 1
  4199 ;; Hardware stack levels required when called: 3
  4200 ;; This function calls:
  4201 ;;		NULL
  4202 ;;		_I2C1_CallbackReturnReset
  4203 ;;		_I2C1_CallbackReturnStop
  4204 ;;		_I2C1_DO_RX_NACK_RESTART
  4205 ;;		_I2C1_DO_RX_NACK_STOP
  4206 ;;		_I2C1_MasterGetRxData
  4207 ;;		_I2C1_MasterSendAck
  4208 ;;		_rd1RegCompleteHandler
  4209 ;;		_rd1RegCompleteHandler@i2c_simple_master$F680
  4210 ;;		_rd2RegCompleteHandler
  4211 ;;		_rd2RegCompleteHandler@i2c_simple_master$F688
  4212 ;;		_rdBlkRegCompleteHandler
  4213 ;;		_rdBlkRegCompleteHandler@i2c_simple_master$F700
  4214 ;;		_wr1RegCompleteHandler
  4215 ;;		_wr1RegCompleteHandler@i2c_simple_master$F670
  4216 ;;		_wr2RegCompleteHandler
  4217 ;;		_wr2RegCompleteHandler@i2c_simple_master$F694
  4218 ;; This function is called by:
  4219 ;;		_I2C1_MasterFsm
  4220 ;; This function uses a non-reentrant model
  4221 ;;
  4222                           
  4223                           	psect	text28
  4224   000D64                     __ptext28:
  4225                           	callstack 0
  4226   000D64                     _I2C1_DO_RX:
  4227                           	callstack 19
  4228   000D64                     
  4229                           ;mcc_generated_files/i2c1_master.c: 382:     *I2C1_Status.data_ptr++ = I2C1_MasterGetRxD
      +                          ata();
  4230   000D64  ECAA  F009         	call	_I2C1_MasterGetRxData	;wreg free
  4231   000D68  C097  FFD9         	movff	_I2C1_Status+23,fsr2l
  4232   000D6C  C098  FFDA         	movff	_I2C1_Status+24,fsr2h
  4233   000D70  6EDF               	movwf	indf2,c
  4234   000D72  0100               	movlb	0	; () banked
  4235   000D74  4B97               	infsnz	(_I2C1_Status+23)& (0+255),f,b
  4236   000D76  2B98               	incf	(_I2C1_Status+24)& (0+255),f,b
  4237   000D78                     
  4238                           ; BSR set to: 0
  4239                           ;mcc_generated_files/i2c1_master.c: 383:     if(--I2C1_Status.data_length)
  4240   000D78  0799               	decf	(_I2C1_Status+25)& (0+255),f,b
  4241   000D7A  A0D8               	btfss	status,0,c
  4242   000D7C  079A               	decf	(_I2C1_Status+26)& (0+255),f,b
  4243   000D7E  5199               	movf	(_I2C1_Status+25)& (0+255),w,b
  4244   000D80  119A               	iorwf	(_I2C1_Status+26)& (0+255),w,b
  4245   000D82  B4D8               	btfsc	status,2,c
  4246   000D84  EFC6  F006         	goto	i2u122_41
  4247   000D88  EFC8  F006         	goto	i2u122_40
  4248   000D8C                     i2u122_41:
  4249   000D8C  EFCD  F006         	goto	i2l474
  4250   000D90                     i2u122_40:
  4251   000D90                     
  4252                           ; BSR set to: 0
  4253                           ;mcc_generated_files/i2c1_master.c: 384:     {;mcc_generated_files/i2c1_master.c: 385:  
      +                                 I2C1_MasterSendAck();
  4254   000D90  EC9E  F009         	call	_I2C1_MasterSendAck	;wreg free
  4255   000D94                     
  4256                           ;mcc_generated_files/i2c1_master.c: 386:         return I2C1_RCEN;
  4257   000D94  0E05               	movlw	5
  4258   000D96  EF03  F007         	goto	i2l475
  4259   000D9A                     i2l474:
  4260                           
  4261                           ; BSR set to: 0
  4262                           ;mcc_generated_files/i2c1_master.c: 389:     {;mcc_generated_files/i2c1_master.c: 390:  
      +                                 I2C1_Status.bufferFree = 1;
  4263   000D9A  879D               	bsf	(_I2C1_Status+29)& (0+255),3,b
  4264                           
  4265                           ;mcc_generated_files/i2c1_master.c: 391:         switch(I2C1_Status.callbackTable[I2C1_D
      +                          ATA_COMPLETE](I2C1_Status.callbackPayload[I2C1_DATA_COMPLETE]))
  4266   000D9C  EFD8  F006         	goto	i2l3162
  4267   000DA0                     i2l3152:
  4268                           
  4269                           ;mcc_generated_files/i2c1_master.c: 395:                 return I2C1_DO_RX_NACK_RESTART(
      +                          );
  4270   000DA0  EC7B  F009         	call	_I2C1_DO_RX_NACK_RESTART	;wreg free
  4271   000DA4  EF03  F007         	goto	i2l475
  4272   000DA8                     i2l3156:
  4273                           
  4274                           ;mcc_generated_files/i2c1_master.c: 399:                 return I2C1_DO_RX_NACK_STOP();
  4275   000DA8  EC7F  F009         	call	_I2C1_DO_RX_NACK_STOP	;wreg free
  4276   000DAC  EF03  F007         	goto	i2l475
  4277   000DB0                     i2l3162:
  4278                           
  4279                           ; BSR set to: 0
  4280   000DB0  C08C  F008         	movff	_I2C1_Status+12,I2C1_CallbackReturnReset@funPtr
  4281   000DB4  D802               	call	i2u123_48
  4282   000DB6  EFE7  F006         	goto	i2u123_49
  4283   000DBA                     i2u123_48:
  4284   000DBA  0005               	push	
  4285   000DBC  6EFA               	movwf	pclath,c
  4286   000DBE  5180               	movf	_I2C1_Status& (0+255),w,b
  4287   000DC0  6EFD               	movwf	tosl,c
  4288   000DC2  5181               	movf	(_I2C1_Status+1)& (0+255),w,b
  4289   000DC4  6EFE               	movwf	tosh,c
  4290   000DC6  50F8               	movf	tblptru,w,c
  4291   000DC8  6EFF               	movwf	tosu,c
  4292   000DCA  50FA               	movf	pclath,w,c
  4293   000DCC  0012               	return		;indir
  4294   000DCE                     i2u123_49:
  4295   000DCE  6E0A               	movwf	??_I2C1_DO_RX^0,c
  4296   000DD0  6A0B               	clrf	(??_I2C1_DO_RX+1)^0,c
  4297                           
  4298                           ; Switch on 2 bytes has been partitioned into a top level switch of size 1, and 1 sub-sw
      +                          itches
  4299                           ; Switch size 1, requested type "simple"
  4300                           ; Number of cases is 1, Range of values is 0 to 0
  4301                           ; switch strategies available:
  4302                           ; Name         Instructions Cycles
  4303                           ; simple_byte            4     3 (average)
  4304                           ;	Chosen strategy is simple_byte
  4305   000DD2  500B               	movf	(??_I2C1_DO_RX+1)^0,w,c
  4306   000DD4  0A00               	xorlw	0	; case 0
  4307   000DD6  B4D8               	btfsc	status,2,c
  4308   000DD8  EFF0  F006         	goto	i2l3980
  4309   000DDC  EFD4  F006         	goto	i2l3156
  4310   000DE0                     i2l3980:
  4311                           
  4312                           ; Switch size 1, requested type "simple"
  4313                           ; Number of cases is 4, Range of values is 1 to 4
  4314                           ; switch strategies available:
  4315                           ; Name         Instructions Cycles
  4316                           ; simple_byte           13     7 (average)
  4317                           ;	Chosen strategy is simple_byte
  4318   000DE0  500A               	movf	??_I2C1_DO_RX^0,w,c
  4319   000DE2  0A01               	xorlw	1	; case 1
  4320   000DE4  B4D8               	btfsc	status,2,c
  4321   000DE6  EFD4  F006         	goto	i2l3156
  4322   000DEA  0A03               	xorlw	3	; case 2
  4323   000DEC  B4D8               	btfsc	status,2,c
  4324   000DEE  EFD0  F006         	goto	i2l3152
  4325   000DF2  0A01               	xorlw	1	; case 3
  4326   000DF4  B4D8               	btfsc	status,2,c
  4327   000DF6  EFD0  F006         	goto	i2l3152
  4328   000DFA  0A07               	xorlw	7	; case 4
  4329   000DFC  B4D8               	btfsc	status,2,c
  4330   000DFE  EFD4  F006         	goto	i2l3156
  4331   000E02  EFD4  F006         	goto	i2l3156
  4332   000E06                     i2l475:
  4333   000E06  0012               	return		;funcret
  4334   000E08                     __end_of_I2C1_DO_RX:
  4335                           	callstack 0
  4336                           
  4337 ;; *************** function _I2C1_DO_TX *****************
  4338 ;; Defined at:
  4339 ;;		line 356 in file "mcc_generated_files/i2c1_master.c"
  4340 ;; Parameters:    Size  Location     Type
  4341 ;;		None
  4342 ;; Auto vars:     Size  Location     Type
  4343 ;;		None
  4344 ;; Return value:  Size  Location     Type
  4345 ;;                  1    wreg      enum E5014
  4346 ;; Registers used:
  4347 ;;		wreg, fsr2l, fsr2h, status,2, status,0, pcl, pclath, pclatu, tosl, prodl, prodh, cstack
  4348 ;; Tracked objects:
  4349 ;;		On entry : 0/0
  4350 ;;		On exit  : 0/0
  4351 ;;		Unchanged: 0/0
  4352 ;; Data sizes:     COMRAM   BANK0   BANK1   BANK2   BANK3   BANK4   BANK5   BANK6   BANK7
  4353 ;;      Params:         0       0       0       0       0       0       0       0       0
  4354 ;;      Locals:         0       0       0       0       0       0       0       0       0
  4355 ;;      Temps:          2       0       0       0       0       0       0       0       0
  4356 ;;      Totals:         2       0       0       0       0       0       0       0       0
  4357 ;;Total ram usage:        2 bytes
  4358 ;; Hardware stack levels used: 1
  4359 ;; Hardware stack levels required when called: 3
  4360 ;; This function calls:
  4361 ;;		NULL
  4362 ;;		_I2C1_CallbackReturnReset
  4363 ;;		_I2C1_CallbackReturnStop
  4364 ;;		_I2C1_DO_SEND_RESTART_READ
  4365 ;;		_I2C1_DO_SEND_RESTART_WRITE
  4366 ;;		_I2C1_DO_SEND_STOP
  4367 ;;		_I2C1_MasterIsNack
  4368 ;;		_I2C1_MasterSendTxData
  4369 ;;		_rd1RegCompleteHandler
  4370 ;;		_rd1RegCompleteHandler@i2c_simple_master$F680
  4371 ;;		_rd2RegCompleteHandler
  4372 ;;		_rd2RegCompleteHandler@i2c_simple_master$F688
  4373 ;;		_rdBlkRegCompleteHandler
  4374 ;;		_rdBlkRegCompleteHandler@i2c_simple_master$F700
  4375 ;;		_wr1RegCompleteHandler
  4376 ;;		_wr1RegCompleteHandler@i2c_simple_master$F670
  4377 ;;		_wr2RegCompleteHandler
  4378 ;;		_wr2RegCompleteHandler@i2c_simple_master$F694
  4379 ;; This function is called by:
  4380 ;;		_I2C1_MasterFsm
  4381 ;; This function uses a non-reentrant model
  4382 ;;
  4383                           
  4384                           	psect	text29
  4385   0009DE                     __ptext29:
  4386                           	callstack 0
  4387   0009DE                     _I2C1_DO_TX:
  4388                           	callstack 19
  4389   0009DE                     
  4390                           ;mcc_generated_files/i2c1_master.c: 358:     if(I2C1_MasterIsNack())
  4391   0009DE  EC36  F009         	call	_I2C1_MasterIsNack	;wreg free
  4392   0009E2  0900               	iorlw	0
  4393   0009E4  B4D8               	btfsc	status,2,c
  4394   0009E6  EFF7  F004         	goto	i2u119_41
  4395   0009EA  EFF9  F004         	goto	i2u119_40
  4396   0009EE                     i2u119_41:
  4397   0009EE  EF34  F005         	goto	i2l458
  4398   0009F2                     i2u119_40:
  4399   0009F2  EF07  F005         	goto	i2l3122
  4400   0009F6                     i2l3108:
  4401                           
  4402                           ;mcc_generated_files/i2c1_master.c: 363:                 return I2C1_DO_SEND_RESTART_REA
      +                          D();
  4403   0009F6  EC93  F009         	call	_I2C1_DO_SEND_RESTART_READ	;wreg free
  4404   0009FA  EF50  F005         	goto	i2l461
  4405   0009FE                     i2l3112:
  4406                           
  4407                           ;mcc_generated_files/i2c1_master.c: 365:                   return I2C1_DO_SEND_RESTART_W
      +                          RITE();
  4408   0009FE  EC8F  F009         	call	_I2C1_DO_SEND_RESTART_WRITE	;wreg free
  4409   000A02  EF50  F005         	goto	i2l461
  4410   000A06                     i2l3116:
  4411                           
  4412                           ;mcc_generated_files/i2c1_master.c: 369:                 return I2C1_DO_SEND_STOP();
  4413   000A06  EC87  F009         	call	_I2C1_DO_SEND_STOP	;wreg free
  4414   000A0A  EF50  F005         	goto	i2l461
  4415   000A0E                     i2l3122:
  4416   000A0E  C08F  F008         	movff	_I2C1_Status+15,I2C1_CallbackReturnReset@funPtr
  4417   000A12  EE20  F086         	lfsr	2,_I2C1_Status+6
  4418   000A16  D802               	call	i2u120_48
  4419   000A18  EF18  F005         	goto	i2u120_49
  4420   000A1C                     i2u120_48:
  4421   000A1C  0005               	push	
  4422   000A1E  6EFA               	movwf	pclath,c
  4423   000A20  50DE               	movf	postinc2,w,c
  4424   000A22  6EFD               	movwf	tosl,c
  4425   000A24  50DE               	movf	postinc2,w,c
  4426   000A26  6EFE               	movwf	tosh,c
  4427   000A28  50F8               	movf	tblptru,w,c
  4428   000A2A  6EFF               	movwf	tosu,c
  4429   000A2C  50FA               	movf	pclath,w,c
  4430   000A2E  0012               	return		;indir
  4431   000A30                     i2u120_49:
  4432   000A30  6E0A               	movwf	??_I2C1_DO_TX^0,c
  4433   000A32  6A0B               	clrf	(??_I2C1_DO_TX+1)^0,c
  4434                           
  4435                           ; Switch on 2 bytes has been partitioned into a top level switch of size 1, and 1 sub-sw
      +                          itches
  4436                           ; Switch size 1, requested type "simple"
  4437                           ; Number of cases is 1, Range of values is 0 to 0
  4438                           ; switch strategies available:
  4439                           ; Name         Instructions Cycles
  4440                           ; simple_byte            4     3 (average)
  4441                           ;	Chosen strategy is simple_byte
  4442   000A34  500B               	movf	(??_I2C1_DO_TX+1)^0,w,c
  4443   000A36  0A00               	xorlw	0	; case 0
  4444   000A38  B4D8               	btfsc	status,2,c
  4445   000A3A  EF21  F005         	goto	i2l3982
  4446   000A3E  EF03  F005         	goto	i2l3116
  4447   000A42                     i2l3982:
  4448                           
  4449                           ; Switch size 1, requested type "simple"
  4450                           ; Number of cases is 4, Range of values is 1 to 4
  4451                           ; switch strategies available:
  4452                           ; Name         Instructions Cycles
  4453                           ; simple_byte           13     7 (average)
  4454                           ;	Chosen strategy is simple_byte
  4455   000A42  500A               	movf	??_I2C1_DO_TX^0,w,c
  4456   000A44  0A01               	xorlw	1	; case 1
  4457   000A46  B4D8               	btfsc	status,2,c
  4458   000A48  EF03  F005         	goto	i2l3116
  4459   000A4C  0A03               	xorlw	3	; case 2
  4460   000A4E  B4D8               	btfsc	status,2,c
  4461   000A50  EFFB  F004         	goto	i2l3108
  4462   000A54  0A01               	xorlw	1	; case 3
  4463   000A56  B4D8               	btfsc	status,2,c
  4464   000A58  EFFF  F004         	goto	i2l3112
  4465   000A5C  0A07               	xorlw	7	; case 4
  4466   000A5E  B4D8               	btfsc	status,2,c
  4467   000A60  EF03  F005         	goto	i2l3116
  4468   000A64  EF03  F005         	goto	i2l3116
  4469   000A68                     i2l458:
  4470                           
  4471                           ;mcc_generated_files/i2c1_master.c: 373:     {;mcc_generated_files/i2c1_master.c: 374:  
      +                                 I2C1_Status.addressNackCheck = 0;
  4472   000A68  0100               	movlb	0	; () banked
  4473   000A6A  919D               	bcf	(_I2C1_Status+29)& (0+255),0,b
  4474   000A6C                     
  4475                           ; BSR set to: 0
  4476                           ;mcc_generated_files/i2c1_master.c: 375:         I2C1_MasterSendTxData(*I2C1_Status.data
      +                          _ptr++);
  4477   000A6C  C097  FFD9         	movff	_I2C1_Status+23,fsr2l
  4478   000A70  C098  FFDA         	movff	_I2C1_Status+24,fsr2h
  4479   000A74  4B97               	infsnz	(_I2C1_Status+23)& (0+255),f,b
  4480   000A76  2B98               	incf	(_I2C1_Status+24)& (0+255),f,b
  4481   000A78  50DF               	movf	indf2,w,c
  4482   000A7A  EC97  F009         	call	_I2C1_MasterSendTxData
  4483   000A7E                     
  4484                           ;mcc_generated_files/i2c1_master.c: 376:         return (--I2C1_Status.data_length)?I2C1
      +                          _TX:I2C1_TX_EMPTY;
  4485   000A7E  0100               	movlb	0	; () banked
  4486   000A80  0799               	decf	(_I2C1_Status+25)& (0+255),f,b
  4487   000A82  A0D8               	btfss	status,0,c
  4488   000A84  079A               	decf	(_I2C1_Status+26)& (0+255),f,b
  4489   000A86  5199               	movf	(_I2C1_Status+25)& (0+255),w,b
  4490   000A88  119A               	iorwf	(_I2C1_Status+26)& (0+255),w,b
  4491   000A8A  A4D8               	btfss	status,2,c
  4492   000A8C  EF4A  F005         	goto	i2u121_41
  4493   000A90  EF4C  F005         	goto	i2u121_40
  4494   000A94                     i2u121_41:
  4495   000A94  EF4F  F005         	goto	i2l3130
  4496   000A98                     i2u121_40:
  4497   000A98                     
  4498                           ; BSR set to: 0
  4499   000A98  0E06               	movlw	6
  4500   000A9A  EF50  F005         	goto	i2l461
  4501   000A9E                     i2l3130:
  4502                           
  4503                           ; BSR set to: 0
  4504   000A9E  0E03               	movlw	3
  4505   000AA0                     i2l461:
  4506   000AA0  0012               	return		;funcret
  4507   000AA2                     __end_of_I2C1_DO_TX:
  4508                           	callstack 0
  4509                           
  4510 ;; *************** function _I2C1_DO_SEND_ADR_WRITE *****************
  4511 ;; Defined at:
  4512 ;;		line 349 in file "mcc_generated_files/i2c1_master.c"
  4513 ;; Parameters:    Size  Location     Type
  4514 ;;		None
  4515 ;; Auto vars:     Size  Location     Type
  4516 ;;		None
  4517 ;; Return value:  Size  Location     Type
  4518 ;;                  1    wreg      enum E5014
  4519 ;; Registers used:
  4520 ;;		wreg, status,2, status,0, cstack
  4521 ;; Tracked objects:
  4522 ;;		On entry : 0/0
  4523 ;;		On exit  : 0/0
  4524 ;;		Unchanged: 0/0
  4525 ;; Data sizes:     COMRAM   BANK0   BANK1   BANK2   BANK3   BANK4   BANK5   BANK6   BANK7
  4526 ;;      Params:         0       0       0       0       0       0       0       0       0
  4527 ;;      Locals:         0       0       0       0       0       0       0       0       0
  4528 ;;      Temps:          0       0       0       0       0       0       0       0       0
  4529 ;;      Totals:         0       0       0       0       0       0       0       0       0
  4530 ;;Total ram usage:        0 bytes
  4531 ;; Hardware stack levels used: 1
  4532 ;; Hardware stack levels required when called: 1
  4533 ;; This function calls:
  4534 ;;		_I2C1_MasterSendTxData
  4535 ;; This function is called by:
  4536 ;;		_I2C1_MasterFsm
  4537 ;; This function uses a non-reentrant model
  4538 ;;
  4539                           
  4540                           	psect	text30
  4541   0012B6                     __ptext30:
  4542                           	callstack 0
  4543   0012B6                     _I2C1_DO_SEND_ADR_WRITE:
  4544                           	callstack 21
  4545   0012B6                     
  4546                           ;mcc_generated_files/i2c1_master.c: 351:     I2C1_Status.addressNackCheck = 1;
  4547   0012B6  0100               	movlb	0	; () banked
  4548   0012B8  819D               	bsf	(_I2C1_Status+29)& (0+255),0,b
  4549   0012BA                     
  4550                           ; BSR set to: 0
  4551                           ;mcc_generated_files/i2c1_master.c: 352:     I2C1_MasterSendTxData((uint8_t) (I2C1_Statu
      +                          s.address << 1));
  4552   0012BA  5196               	movf	(_I2C1_Status+22)& (0+255),w,b
  4553   0012BC  2596               	addwf	(_I2C1_Status+22)& (0+255),w,b
  4554   0012BE  EC97  F009         	call	_I2C1_MasterSendTxData
  4555   0012C2                     
  4556                           ;mcc_generated_files/i2c1_master.c: 353:     return I2C1_TX;
  4557   0012C2  0E03               	movlw	3
  4558   0012C4  0012               	return		;funcret
  4559   0012C6                     __end_of_I2C1_DO_SEND_ADR_WRITE:
  4560                           	callstack 0
  4561                           
  4562 ;; *************** function _I2C1_DO_SEND_ADR_READ *****************
  4563 ;; Defined at:
  4564 ;;		line 342 in file "mcc_generated_files/i2c1_master.c"
  4565 ;; Parameters:    Size  Location     Type
  4566 ;;		None
  4567 ;; Auto vars:     Size  Location     Type
  4568 ;;		None
  4569 ;; Return value:  Size  Location     Type
  4570 ;;                  1    wreg      enum E5014
  4571 ;; Registers used:
  4572 ;;		wreg, status,0, cstack
  4573 ;; Tracked objects:
  4574 ;;		On entry : 0/0
  4575 ;;		On exit  : 0/0
  4576 ;;		Unchanged: 0/0
  4577 ;; Data sizes:     COMRAM   BANK0   BANK1   BANK2   BANK3   BANK4   BANK5   BANK6   BANK7
  4578 ;;      Params:         0       0       0       0       0       0       0       0       0
  4579 ;;      Locals:         0       0       0       0       0       0       0       0       0
  4580 ;;      Temps:          0       0       0       0       0       0       0       0       0
  4581 ;;      Totals:         0       0       0       0       0       0       0       0       0
  4582 ;;Total ram usage:        0 bytes
  4583 ;; Hardware stack levels used: 1
  4584 ;; Hardware stack levels required when called: 1
  4585 ;; This function calls:
  4586 ;;		_I2C1_MasterSendTxData
  4587 ;; This function is called by:
  4588 ;;		_I2C1_MasterFsm
  4589 ;; This function uses a non-reentrant model
  4590 ;;
  4591                           
  4592                           	psect	text31
  4593   0012C6                     __ptext31:
  4594                           	callstack 0
  4595   0012C6                     _I2C1_DO_SEND_ADR_READ:
  4596                           	callstack 21
  4597   0012C6                     
  4598                           ;mcc_generated_files/i2c1_master.c: 344:     I2C1_Status.addressNackCheck = 1;
  4599   0012C6  0100               	movlb	0	; () banked
  4600   0012C8  819D               	bsf	(_I2C1_Status+29)& (0+255),0,b
  4601   0012CA                     
  4602                           ; BSR set to: 0
  4603                           ;mcc_generated_files/i2c1_master.c: 345:     I2C1_MasterSendTxData((uint8_t) (I2C1_Statu
      +                          s.address << 1 | 1));
  4604   0012CA  80D8               	bsf	status,0,c
  4605   0012CC  3596               	rlcf	(_I2C1_Status+22)& (0+255),w,b
  4606   0012CE  EC97  F009         	call	_I2C1_MasterSendTxData
  4607   0012D2                     
  4608                           ;mcc_generated_files/i2c1_master.c: 346:     return I2C1_RCEN;
  4609   0012D2  0E05               	movlw	5
  4610   0012D4  0012               	return		;funcret
  4611   0012D6                     __end_of_I2C1_DO_SEND_ADR_READ:
  4612                           	callstack 0
  4613                           
  4614 ;; *************** function _I2C1_DO_IDLE *****************
  4615 ;; Defined at:
  4616 ;;		line 335 in file "mcc_generated_files/i2c1_master.c"
  4617 ;; Parameters:    Size  Location     Type
  4618 ;;		None
  4619 ;; Auto vars:     Size  Location     Type
  4620 ;;		None
  4621 ;; Return value:  Size  Location     Type
  4622 ;;                  1    wreg      enum E5014
  4623 ;; Registers used:
  4624 ;;		wreg
  4625 ;; Tracked objects:
  4626 ;;		On entry : 0/0
  4627 ;;		On exit  : 0/0
  4628 ;;		Unchanged: 0/0
  4629 ;; Data sizes:     COMRAM   BANK0   BANK1   BANK2   BANK3   BANK4   BANK5   BANK6   BANK7
  4630 ;;      Params:         0       0       0       0       0       0       0       0       0
  4631 ;;      Locals:         0       0       0       0       0       0       0       0       0
  4632 ;;      Temps:          0       0       0       0       0       0       0       0       0
  4633 ;;      Totals:         0       0       0       0       0       0       0       0       0
  4634 ;;Total ram usage:        0 bytes
  4635 ;; Hardware stack levels used: 1
  4636 ;; This function calls:
  4637 ;;		Nothing
  4638 ;; This function is called by:
  4639 ;;		_I2C1_MasterFsm
  4640 ;; This function uses a non-reentrant model
  4641 ;;
  4642                           
  4643                           	psect	text32
  4644   0012EC                     __ptext32:
  4645                           	callstack 0
  4646   0012EC                     _I2C1_DO_IDLE:
  4647                           	callstack 22
  4648   0012EC                     
  4649                           ;mcc_generated_files/i2c1_master.c: 337:     I2C1_Status.busy = 0;
  4650   0012EC  0100               	movlb	0	; () banked
  4651   0012EE  939D               	bcf	(_I2C1_Status+29)& (0+255),1,b
  4652                           
  4653                           ;mcc_generated_files/i2c1_master.c: 338:     I2C1_Status.error = I2C1_NOERR;
  4654   0012F0  6B9C               	clrf	(_I2C1_Status+28)& (0+255),b
  4655   0012F2                     
  4656                           ; BSR set to: 0
  4657                           ;mcc_generated_files/i2c1_master.c: 339:     return I2C1_RESET;
  4658   0012F2  0E0E               	movlw	14
  4659   0012F4                     
  4660                           ; BSR set to: 0
  4661   0012F4  0012               	return		;funcret
  4662   0012F6                     __end_of_I2C1_DO_IDLE:
  4663                           	callstack 0
  4664                           
  4665 ;; *************** function _I2C1_DO_TX_EMPTY *****************
  4666 ;; Defined at:
  4667 ;;		line 411 in file "mcc_generated_files/i2c1_master.c"
  4668 ;; Parameters:    Size  Location     Type
  4669 ;;		None
  4670 ;; Auto vars:     Size  Location     Type
  4671 ;;		None
  4672 ;; Return value:  Size  Location     Type
  4673 ;;                  1    wreg      enum E5014
  4674 ;; Registers used:
  4675 ;;		wreg, fsr2l, fsr2h, status,2, status,0, pcl, pclath, pclatu, tosl, prodl, prodh, cstack
  4676 ;; Tracked objects:
  4677 ;;		On entry : 0/0
  4678 ;;		On exit  : 0/0
  4679 ;;		Unchanged: 0/0
  4680 ;; Data sizes:     COMRAM   BANK0   BANK1   BANK2   BANK3   BANK4   BANK5   BANK6   BANK7
  4681 ;;      Params:         0       0       0       0       0       0       0       0       0
  4682 ;;      Locals:         0       0       0       0       0       0       0       0       0
  4683 ;;      Temps:          2       0       0       0       0       0       0       0       0
  4684 ;;      Totals:         2       0       0       0       0       0       0       0       0
  4685 ;;Total ram usage:        2 bytes
  4686 ;; Hardware stack levels used: 1
  4687 ;; Hardware stack levels required when called: 3
  4688 ;; This function calls:
  4689 ;;		NULL
  4690 ;;		_I2C1_CallbackReturnReset
  4691 ;;		_I2C1_CallbackReturnStop
  4692 ;;		_I2C1_DO_SEND_RESTART
  4693 ;;		_I2C1_DO_SEND_STOP
  4694 ;;		_I2C1_MasterSetIrq
  4695 ;;		_rd1RegCompleteHandler
  4696 ;;		_rd1RegCompleteHandler@i2c_simple_master$F680
  4697 ;;		_rd2RegCompleteHandler
  4698 ;;		_rd2RegCompleteHandler@i2c_simple_master$F688
  4699 ;;		_rdBlkRegCompleteHandler
  4700 ;;		_rdBlkRegCompleteHandler@i2c_simple_master$F700
  4701 ;;		_wr1RegCompleteHandler
  4702 ;;		_wr1RegCompleteHandler@i2c_simple_master$F670
  4703 ;;		_wr2RegCompleteHandler
  4704 ;;		_wr2RegCompleteHandler@i2c_simple_master$F694
  4705 ;; This function is called by:
  4706 ;;		_I2C1_MasterFsm
  4707 ;; This function uses a non-reentrant model
  4708 ;;
  4709                           
  4710                           	psect	text33
  4711   000E08                     __ptext33:
  4712                           	callstack 0
  4713   000E08                     _I2C1_DO_TX_EMPTY:
  4714                           	callstack 19
  4715   000E08                     
  4716                           ;mcc_generated_files/i2c1_master.c: 413:     I2C1_Status.bufferFree = 1;
  4717   000E08  0100               	movlb	0	; () banked
  4718   000E0A  879D               	bsf	(_I2C1_Status+29)& (0+255),3,b
  4719                           
  4720                           ;mcc_generated_files/i2c1_master.c: 414:     switch(I2C1_Status.callbackTable[I2C1_DATA_
      +                          COMPLETE](I2C1_Status.callbackPayload[I2C1_DATA_COMPLETE]))
  4721   000E0C  EF15  F007         	goto	i2l3194
  4722   000E10                     i2l3178:
  4723                           
  4724                           ;mcc_generated_files/i2c1_master.c: 418:             return I2C1_DO_SEND_RESTART();
  4725   000E10  EC8B  F009         	call	_I2C1_DO_SEND_RESTART	;wreg free
  4726   000E14  EF40  F007         	goto	i2l492
  4727   000E18                     i2l3182:
  4728                           
  4729                           ;mcc_generated_files/i2c1_master.c: 420:             I2C1_MasterSetIrq();
  4730   000E18  ECA8  F009         	call	_I2C1_MasterSetIrq	;wreg free
  4731   000E1C                     
  4732                           ;mcc_generated_files/i2c1_master.c: 421:             return I2C1_TX;
  4733   000E1C  0E03               	movlw	3
  4734   000E1E  EF40  F007         	goto	i2l492
  4735   000E22                     i2l3188:
  4736                           
  4737                           ;mcc_generated_files/i2c1_master.c: 424:             return I2C1_DO_SEND_STOP();
  4738   000E22  EC87  F009         	call	_I2C1_DO_SEND_STOP	;wreg free
  4739   000E26  EF40  F007         	goto	i2l492
  4740   000E2A                     i2l3194:
  4741                           
  4742                           ; BSR set to: 0
  4743   000E2A  C08C  F008         	movff	_I2C1_Status+12,I2C1_CallbackReturnReset@funPtr
  4744   000E2E  D802               	call	i2u124_48
  4745   000E30  EF24  F007         	goto	i2u124_49
  4746   000E34                     i2u124_48:
  4747   000E34  0005               	push	
  4748   000E36  6EFA               	movwf	pclath,c
  4749   000E38  5180               	movf	_I2C1_Status& (0+255),w,b
  4750   000E3A  6EFD               	movwf	tosl,c
  4751   000E3C  5181               	movf	(_I2C1_Status+1)& (0+255),w,b
  4752   000E3E  6EFE               	movwf	tosh,c
  4753   000E40  50F8               	movf	tblptru,w,c
  4754   000E42  6EFF               	movwf	tosu,c
  4755   000E44  50FA               	movf	pclath,w,c
  4756   000E46  0012               	return		;indir
  4757   000E48                     i2u124_49:
  4758   000E48  6E0A               	movwf	??_I2C1_DO_TX_EMPTY^0,c
  4759   000E4A  6A0B               	clrf	(??_I2C1_DO_TX_EMPTY+1)^0,c
  4760                           
  4761                           ; Switch on 2 bytes has been partitioned into a top level switch of size 1, and 1 sub-sw
      +                          itches
  4762                           ; Switch size 1, requested type "simple"
  4763                           ; Number of cases is 1, Range of values is 0 to 0
  4764                           ; switch strategies available:
  4765                           ; Name         Instructions Cycles
  4766                           ; simple_byte            4     3 (average)
  4767                           ;	Chosen strategy is simple_byte
  4768   000E4C  500B               	movf	(??_I2C1_DO_TX_EMPTY+1)^0,w,c
  4769   000E4E  0A00               	xorlw	0	; case 0
  4770   000E50  B4D8               	btfsc	status,2,c
  4771   000E52  EF2D  F007         	goto	i2l3984
  4772   000E56  EF11  F007         	goto	i2l3188
  4773   000E5A                     i2l3984:
  4774                           
  4775                           ; Switch size 1, requested type "simple"
  4776                           ; Number of cases is 4, Range of values is 1 to 4
  4777                           ; switch strategies available:
  4778                           ; Name         Instructions Cycles
  4779                           ; simple_byte           13     7 (average)
  4780                           ;	Chosen strategy is simple_byte
  4781   000E5A  500A               	movf	??_I2C1_DO_TX_EMPTY^0,w,c
  4782   000E5C  0A01               	xorlw	1	; case 1
  4783   000E5E  B4D8               	btfsc	status,2,c
  4784   000E60  EF11  F007         	goto	i2l3188
  4785   000E64  0A03               	xorlw	3	; case 2
  4786   000E66  B4D8               	btfsc	status,2,c
  4787   000E68  EF08  F007         	goto	i2l3178
  4788   000E6C  0A01               	xorlw	1	; case 3
  4789   000E6E  B4D8               	btfsc	status,2,c
  4790   000E70  EF08  F007         	goto	i2l3178
  4791   000E74  0A07               	xorlw	7	; case 4
  4792   000E76  B4D8               	btfsc	status,2,c
  4793   000E78  EF0C  F007         	goto	i2l3182
  4794   000E7C  EF11  F007         	goto	i2l3188
  4795   000E80                     i2l492:
  4796   000E80  0012               	return		;funcret
  4797   000E82                     __end_of_I2C1_DO_TX_EMPTY:
  4798                           	callstack 0
  4799                           
  4800 ;; *************** function _I2C1_MasterSetIrq *****************
  4801 ;; Defined at:
  4802 ;;		line 647 in file "mcc_generated_files/i2c1_master.c"
  4803 ;; Parameters:    Size  Location     Type
  4804 ;;		None
  4805 ;; Auto vars:     Size  Location     Type
  4806 ;;		None
  4807 ;; Return value:  Size  Location     Type
  4808 ;;                  1    wreg      void 
  4809 ;; Registers used:
  4810 ;;		None
  4811 ;; Tracked objects:
  4812 ;;		On entry : 0/0
  4813 ;;		On exit  : 0/0
  4814 ;;		Unchanged: 0/0
  4815 ;; Data sizes:     COMRAM   BANK0   BANK1   BANK2   BANK3   BANK4   BANK5   BANK6   BANK7
  4816 ;;      Params:         0       0       0       0       0       0       0       0       0
  4817 ;;      Locals:         0       0       0       0       0       0       0       0       0
  4818 ;;      Temps:          0       0       0       0       0       0       0       0       0
  4819 ;;      Totals:         0       0       0       0       0       0       0       0       0
  4820 ;;Total ram usage:        0 bytes
  4821 ;; Hardware stack levels used: 1
  4822 ;; This function calls:
  4823 ;;		Nothing
  4824 ;; This function is called by:
  4825 ;;		_I2C1_DO_TX_EMPTY
  4826 ;; This function uses a non-reentrant model
  4827 ;;
  4828                           
  4829                           	psect	text34
  4830   001350                     __ptext34:
  4831                           	callstack 0
  4832   001350                     _I2C1_MasterSetIrq:
  4833                           	callstack 21
  4834   001350                     
  4835                           ;mcc_generated_files/i2c1_master.c: 649:     PIR1bits.SSP1IF = 1;
  4836   001350  869E               	bsf	158,3,c	;volatile
  4837   001352  0012               	return		;funcret
  4838   001354                     __end_of_I2C1_MasterSetIrq:
  4839                           	callstack 0
  4840                           
  4841 ;; *************** function _I2C1_MasterIsNack *****************
  4842 ;; Defined at:
  4843 ;;		line 599 in file "mcc_generated_files/i2c1_master.c"
  4844 ;; Parameters:    Size  Location     Type
  4845 ;;		None
  4846 ;; Auto vars:     Size  Location     Type
  4847 ;;		None
  4848 ;; Return value:  Size  Location     Type
  4849 ;;                  1    wreg      _Bool 
  4850 ;; Registers used:
  4851 ;;		wreg
  4852 ;; Tracked objects:
  4853 ;;		On entry : 0/0
  4854 ;;		On exit  : 0/0
  4855 ;;		Unchanged: 0/0
  4856 ;; Data sizes:     COMRAM   BANK0   BANK1   BANK2   BANK3   BANK4   BANK5   BANK6   BANK7
  4857 ;;      Params:         0       0       0       0       0       0       0       0       0
  4858 ;;      Locals:         0       0       0       0       0       0       0       0       0
  4859 ;;      Temps:          0       0       0       0       0       0       0       0       0
  4860 ;;      Totals:         0       0       0       0       0       0       0       0       0
  4861 ;;Total ram usage:        0 bytes
  4862 ;; Hardware stack levels used: 1
  4863 ;; This function calls:
  4864 ;;		Nothing
  4865 ;; This function is called by:
  4866 ;;		_I2C1_MasterFsm
  4867 ;;		_I2C1_DO_TX
  4868 ;; This function uses a non-reentrant model
  4869 ;;
  4870                           
  4871                           	psect	text35
  4872   00126C                     __ptext35:
  4873                           	callstack 0
  4874   00126C                     _I2C1_MasterIsNack:
  4875                           	callstack 22
  4876   00126C                     
  4877                           ;mcc_generated_files/i2c1_master.c: 601:     return SSP1CON2bits.ACKSTAT;
  4878   00126C  BCC5               	btfsc	197,6,c	;volatile
  4879   00126E  EF3B  F009         	goto	i2u99_41
  4880   001272  EF3E  F009         	goto	i2u99_40
  4881   001276                     i2u99_41:
  4882   001276  0E01               	movlw	1
  4883   001278  EF3F  F009         	goto	i2u99_46
  4884   00127C                     i2u99_40:
  4885   00127C  0E00               	movlw	0
  4886   00127E                     i2u99_46:
  4887   00127E  0012               	return		;funcret
  4888   001280                     __end_of_I2C1_MasterIsNack:
  4889                           	callstack 0
  4890                           
  4891 ;; *************** function _I2C1_MasterSendTxData *****************
  4892 ;; Defined at:
  4893 ;;		line 569 in file "mcc_generated_files/i2c1_master.c"
  4894 ;; Parameters:    Size  Location     Type
  4895 ;;  data            1    wreg     unsigned char 
  4896 ;; Auto vars:     Size  Location     Type
  4897 ;;  data            1    0[COMRAM] unsigned char 
  4898 ;; Return value:  Size  Location     Type
  4899 ;;                  1    wreg      void 
  4900 ;; Registers used:
  4901 ;;		wreg
  4902 ;; Tracked objects:
  4903 ;;		On entry : 0/0
  4904 ;;		On exit  : 0/0
  4905 ;;		Unchanged: 0/0
  4906 ;; Data sizes:     COMRAM   BANK0   BANK1   BANK2   BANK3   BANK4   BANK5   BANK6   BANK7
  4907 ;;      Params:         0       0       0       0       0       0       0       0       0
  4908 ;;      Locals:         1       0       0       0       0       0       0       0       0
  4909 ;;      Temps:          0       0       0       0       0       0       0       0       0
  4910 ;;      Totals:         1       0       0       0       0       0       0       0       0
  4911 ;;Total ram usage:        1 bytes
  4912 ;; Hardware stack levels used: 1
  4913 ;; This function calls:
  4914 ;;		Nothing
  4915 ;; This function is called by:
  4916 ;;		_I2C1_DO_SEND_ADR_READ
  4917 ;;		_I2C1_DO_SEND_ADR_WRITE
  4918 ;;		_I2C1_DO_TX
  4919 ;; This function uses a non-reentrant model
  4920 ;;
  4921                           
  4922                           	psect	text36
  4923   00132E                     __ptext36:
  4924                           	callstack 0
  4925   00132E                     _I2C1_MasterSendTxData:
  4926                           	callstack 21
  4927                           
  4928                           ;incstack = 0
  4929                           ;I2C1_MasterSendTxData@data stored from wreg
  4930   00132E  6E01               	movwf	I2C1_MasterSendTxData@data^0,c
  4931   001330                     
  4932                           ;mcc_generated_files/i2c1_master.c: 569: static __attribute__((inline)) void I2C1_Master
      +                          SendTxData(uint8_t data);mcc_generated_files/i2c1_master.c: 570: {;mcc_generated_files/i
      +                          2c1_master.c: 571:     SSP1BUF = data;
  4933   001330  C001  FFC9         	movff	I2C1_MasterSendTxData@data,4041	;volatile
  4934   001334  0012               	return		;funcret
  4935   001336                     __end_of_I2C1_MasterSendTxData:
  4936                           	callstack 0
  4937                           
  4938 ;; *************** function _I2C1_MasterSendAck *****************
  4939 ;; Defined at:
  4940 ;;		line 604 in file "mcc_generated_files/i2c1_master.c"
  4941 ;; Parameters:    Size  Location     Type
  4942 ;;		None
  4943 ;; Auto vars:     Size  Location     Type
  4944 ;;		None
  4945 ;; Return value:  Size  Location     Type
  4946 ;;                  1    wreg      void 
  4947 ;; Registers used:
  4948 ;;		None
  4949 ;; Tracked objects:
  4950 ;;		On entry : 0/0
  4951 ;;		On exit  : 0/0
  4952 ;;		Unchanged: 0/0
  4953 ;; Data sizes:     COMRAM   BANK0   BANK1   BANK2   BANK3   BANK4   BANK5   BANK6   BANK7
  4954 ;;      Params:         0       0       0       0       0       0       0       0       0
  4955 ;;      Locals:         0       0       0       0       0       0       0       0       0
  4956 ;;      Temps:          0       0       0       0       0       0       0       0       0
  4957 ;;      Totals:         0       0       0       0       0       0       0       0       0
  4958 ;;Total ram usage:        0 bytes
  4959 ;; Hardware stack levels used: 1
  4960 ;; This function calls:
  4961 ;;		Nothing
  4962 ;; This function is called by:
  4963 ;;		_I2C1_DO_RX
  4964 ;;		_I2C1_DO_RX_ACK
  4965 ;; This function uses a non-reentrant model
  4966 ;;
  4967                           
  4968                           	psect	text37
  4969   00133C                     __ptext37:
  4970                           	callstack 0
  4971   00133C                     _I2C1_MasterSendAck:
  4972                           	callstack 21
  4973   00133C                     
  4974                           ;mcc_generated_files/i2c1_master.c: 606:     SSP1CON2bits.ACKDT = 0;
  4975   00133C  9AC5               	bcf	197,5,c	;volatile
  4976                           
  4977                           ;mcc_generated_files/i2c1_master.c: 607:     SSP1CON2bits.ACKEN = 1;
  4978   00133E  88C5               	bsf	197,4,c	;volatile
  4979   001340  0012               	return		;funcret
  4980   001342                     __end_of_I2C1_MasterSendAck:
  4981                           	callstack 0
  4982                           
  4983 ;; *************** function _I2C1_MasterGetRxData *****************
  4984 ;; Defined at:
  4985 ;;		line 564 in file "mcc_generated_files/i2c1_master.c"
  4986 ;; Parameters:    Size  Location     Type
  4987 ;;		None
  4988 ;; Auto vars:     Size  Location     Type
  4989 ;;		None
  4990 ;; Return value:  Size  Location     Type
  4991 ;;                  1    wreg      unsigned char 
  4992 ;; Registers used:
  4993 ;;		wreg, status,2
  4994 ;; Tracked objects:
  4995 ;;		On entry : 0/0
  4996 ;;		On exit  : 0/0
  4997 ;;		Unchanged: 0/0
  4998 ;; Data sizes:     COMRAM   BANK0   BANK1   BANK2   BANK3   BANK4   BANK5   BANK6   BANK7
  4999 ;;      Params:         0       0       0       0       0       0       0       0       0
  5000 ;;      Locals:         0       0       0       0       0       0       0       0       0
  5001 ;;      Temps:          0       0       0       0       0       0       0       0       0
  5002 ;;      Totals:         0       0       0       0       0       0       0       0       0
  5003 ;;Total ram usage:        0 bytes
  5004 ;; Hardware stack levels used: 1
  5005 ;; This function calls:
  5006 ;;		Nothing
  5007 ;; This function is called by:
  5008 ;;		_I2C1_DO_RX
  5009 ;; This function uses a non-reentrant model
  5010 ;;
  5011                           
  5012                           	psect	text38
  5013   001354                     __ptext38:
  5014                           	callstack 0
  5015   001354                     _I2C1_MasterGetRxData:
  5016                           	callstack 21
  5017   001354                     
  5018                           ;mcc_generated_files/i2c1_master.c: 566:     return SSP1BUF;
  5019   001354  50C9               	movf	201,w,c	;volatile
  5020   001356  0012               	return		;funcret
  5021   001358                     __end_of_I2C1_MasterGetRxData:
  5022                           	callstack 0
  5023                           
  5024 ;; *************** function _I2C1_MasterSendNack *****************
  5025 ;; Defined at:
  5026 ;;		line 610 in file "mcc_generated_files/i2c1_master.c"
  5027 ;; Parameters:    Size  Location     Type
  5028 ;;		None
  5029 ;; Auto vars:     Size  Location     Type
  5030 ;;		None
  5031 ;; Return value:  Size  Location     Type
  5032 ;;                  1    wreg      void 
  5033 ;; Registers used:
  5034 ;;		None
  5035 ;; Tracked objects:
  5036 ;;		On entry : 0/0
  5037 ;;		On exit  : 0/0
  5038 ;;		Unchanged: 0/0
  5039 ;; Data sizes:     COMRAM   BANK0   BANK1   BANK2   BANK3   BANK4   BANK5   BANK6   BANK7
  5040 ;;      Params:         0       0       0       0       0       0       0       0       0
  5041 ;;      Locals:         0       0       0       0       0       0       0       0       0
  5042 ;;      Temps:          0       0       0       0       0       0       0       0       0
  5043 ;;      Totals:         0       0       0       0       0       0       0       0       0
  5044 ;;Total ram usage:        0 bytes
  5045 ;; Hardware stack levels used: 1
  5046 ;; This function calls:
  5047 ;;		Nothing
  5048 ;; This function is called by:
  5049 ;;		_I2C1_DO_RX_NACK_STOP
  5050 ;;		_I2C1_DO_RX_NACK_RESTART
  5051 ;; This function uses a non-reentrant model
  5052 ;;
  5053                           
  5054                           	psect	text39
  5055   001342                     __ptext39:
  5056                           	callstack 0
  5057   001342                     _I2C1_MasterSendNack:
  5058                           	callstack 21
  5059   001342                     
  5060                           ;mcc_generated_files/i2c1_master.c: 612:     SSP1CON2bits.ACKDT = 1;
  5061   001342  8AC5               	bsf	197,5,c	;volatile
  5062                           
  5063                           ;mcc_generated_files/i2c1_master.c: 613:     SSP1CON2bits.ACKEN = 1;
  5064   001344  88C5               	bsf	197,4,c	;volatile
  5065   001346  0012               	return		;funcret
  5066   001348                     __end_of_I2C1_MasterSendNack:
  5067                           	callstack 0
  5068                           
  5069 ;; *************** function _I2C1_MasterStartRx *****************
  5070 ;; Defined at:
  5071 ;;		line 584 in file "mcc_generated_files/i2c1_master.c"
  5072 ;; Parameters:    Size  Location     Type
  5073 ;;		None
  5074 ;; Auto vars:     Size  Location     Type
  5075 ;;		None
  5076 ;; Return value:  Size  Location     Type
  5077 ;;                  1    wreg      void 
  5078 ;; Registers used:
  5079 ;;		None
  5080 ;; Tracked objects:
  5081 ;;		On entry : 0/0
  5082 ;;		On exit  : 0/0
  5083 ;;		Unchanged: 0/0
  5084 ;; Data sizes:     COMRAM   BANK0   BANK1   BANK2   BANK3   BANK4   BANK5   BANK6   BANK7
  5085 ;;      Params:         0       0       0       0       0       0       0       0       0
  5086 ;;      Locals:         0       0       0       0       0       0       0       0       0
  5087 ;;      Temps:          0       0       0       0       0       0       0       0       0
  5088 ;;      Totals:         0       0       0       0       0       0       0       0       0
  5089 ;;Total ram usage:        0 bytes
  5090 ;; Hardware stack levels used: 1
  5091 ;; This function calls:
  5092 ;;		Nothing
  5093 ;; This function is called by:
  5094 ;;		_I2C1_DO_RCEN
  5095 ;; This function uses a non-reentrant model
  5096 ;;
  5097                           
  5098                           	psect	text40
  5099   001358                     __ptext40:
  5100                           	callstack 0
  5101   001358                     _I2C1_MasterStartRx:
  5102                           	callstack 21
  5103   001358                     
  5104                           ;mcc_generated_files/i2c1_master.c: 586:     SSP1CON2bits.RCEN = 1;
  5105   001358  86C5               	bsf	197,3,c	;volatile
  5106   00135A  0012               	return		;funcret
  5107   00135C                     __end_of_I2C1_MasterStartRx:
  5108                           	callstack 0
  5109                           
  5110 ;; *************** function _I2C1_CallbackReturnReset *****************
  5111 ;; Defined at:
  5112 ;;		line 526 in file "mcc_generated_files/i2c1_master.c"
  5113 ;; Parameters:    Size  Location     Type
  5114 ;;  funPtr          1    7[COMRAM] PTR void 
  5115 ;;		 -> i2c_readDataBlock@d(4), i2c_write2ByteRegister@data(2), i2c_read2ByteRegister@result(2), i2c_read1ByteRegister@d
      +2(1), 
  5116 ;;		 -> i2c_write1ByteRegister@data(1), I2C1_ReadDataBlock@bufferBlock(4), I2C1_Write2ByteRegister@data(2), I2C1_Write1B
      +yteRegister@data(1), 
  5117 ;;		 -> I2C1_Read2ByteRegister@returnValue(2), NULL(0), I2C1_Read1ByteRegister@returnValue(1), 
  5118 ;; Auto vars:     Size  Location     Type
  5119 ;;		None
  5120 ;; Return value:  Size  Location     Type
  5121 ;;                  1    wreg      enum E363
  5122 ;; Registers used:
  5123 ;;		wreg
  5124 ;; Tracked objects:
  5125 ;;		On entry : 0/0
  5126 ;;		On exit  : 0/0
  5127 ;;		Unchanged: 0/0
  5128 ;; Data sizes:     COMRAM   BANK0   BANK1   BANK2   BANK3   BANK4   BANK5   BANK6   BANK7
  5129 ;;      Params:         1       0       0       0       0       0       0       0       0
  5130 ;;      Locals:         0       0       0       0       0       0       0       0       0
  5131 ;;      Temps:          0       0       0       0       0       0       0       0       0
  5132 ;;      Totals:         1       0       0       0       0       0       0       0       0
  5133 ;;Total ram usage:        1 bytes
  5134 ;; Hardware stack levels used: 1
  5135 ;; This function calls:
  5136 ;;		Nothing
  5137 ;; This function is called by:
  5138 ;;		_I2C1_Open
  5139 ;;		_I2C1_DO_TX
  5140 ;;		_I2C1_DO_RX
  5141 ;;		_I2C1_DO_TX_EMPTY
  5142 ;;		_I2C1_DO_ADDRESS_NACK
  5143 ;;		_I2C1_DO_RX_EMPTY
  5144 ;; This function uses a non-reentrant model
  5145 ;;
  5146                           
  5147                           	psect	text41
  5148   00135C                     __ptext41:
  5149                           	callstack 0
  5150   00135C                     _I2C1_CallbackReturnReset:
  5151                           	callstack 21
  5152   00135C                     
  5153                           ;mcc_generated_files/i2c1_master.c: 526: i2c1_operations_t I2C1_CallbackReturnReset(void
      +                           *funPtr);mcc_generated_files/i2c1_master.c: 527: {;mcc_generated_files/i2c1_master.c: 5
      +                          28:     return I2C1_RESET_LINK;
  5154   00135C  0E05               	movlw	5
  5155   00135E  0012               	return		;funcret
  5156   001360                     __end_of_I2C1_CallbackReturnReset:
  5157                           	callstack 0
  5158                           
  5159 ;; *************** function _I2C1_CallbackReturnStop *****************
  5160 ;; Defined at:
  5161 ;;		line 521 in file "mcc_generated_files/i2c1_master.c"
  5162 ;; Parameters:    Size  Location     Type
  5163 ;;  funPtr          1    7[COMRAM] PTR void 
  5164 ;;		 -> i2c_readDataBlock@d(4), i2c_write2ByteRegister@data(2), i2c_read2ByteRegister@result(2), i2c_read1ByteRegister@d
      +2(1), 
  5165 ;;		 -> i2c_write1ByteRegister@data(1), I2C1_ReadDataBlock@bufferBlock(4), I2C1_Write2ByteRegister@data(2), I2C1_Write1B
      +yteRegister@data(1), 
  5166 ;;		 -> I2C1_Read2ByteRegister@returnValue(2), NULL(0), I2C1_Read1ByteRegister@returnValue(1), 
  5167 ;; Auto vars:     Size  Location     Type
  5168 ;;		None
  5169 ;; Return value:  Size  Location     Type
  5170 ;;                  1    wreg      enum E363
  5171 ;; Registers used:
  5172 ;;		wreg
  5173 ;; Tracked objects:
  5174 ;;		On entry : 0/0
  5175 ;;		On exit  : 0/0
  5176 ;;		Unchanged: 0/0
  5177 ;; Data sizes:     COMRAM   BANK0   BANK1   BANK2   BANK3   BANK4   BANK5   BANK6   BANK7
  5178 ;;      Params:         1       0       0       0       0       0       0       0       0
  5179 ;;      Locals:         0       0       0       0       0       0       0       0       0
  5180 ;;      Temps:          0       0       0       0       0       0       0       0       0
  5181 ;;      Totals:         1       0       0       0       0       0       0       0       0
  5182 ;;Total ram usage:        1 bytes
  5183 ;; Hardware stack levels used: 1
  5184 ;; This function calls:
  5185 ;;		Nothing
  5186 ;; This function is called by:
  5187 ;;		_I2C1_SetCallback
  5188 ;;		_I2C1_Open
  5189 ;;		_I2C1_DO_TX
  5190 ;;		_I2C1_DO_RX
  5191 ;;		_I2C1_DO_TX_EMPTY
  5192 ;;		_I2C1_DO_ADDRESS_NACK
  5193 ;;		_I2C1_DO_RX_EMPTY
  5194 ;; This function uses a non-reentrant model
  5195 ;;
  5196                           
  5197                           	psect	text42
  5198   001360                     __ptext42:
  5199                           	callstack 0
  5200   001360                     _I2C1_CallbackReturnStop:
  5201                           	callstack 21
  5202   001360                     
  5203                           ;mcc_generated_files/i2c1_master.c: 521: i2c1_operations_t I2C1_CallbackReturnStop(void 
      +                          *funPtr);mcc_generated_files/i2c1_master.c: 522: {;mcc_generated_files/i2c1_master.c: 52
      +                          3:     return I2C1_STOP;
  5204   001360  0E01               	movlw	1
  5205   001362  0012               	return		;funcret
  5206   001364                     __end_of_I2C1_CallbackReturnStop:
  5207                           	callstack 0
  5208                           
  5209 ;; *************** function _rdBlkRegCompleteHandler@i2c_simple_master$F700 *****************
  5210 ;; Defined at:
  5211 ;;		line 185 in file "mcc_generated_files/drivers/i2c_simple_master.c"
  5212 ;; Parameters:    Size  Location     Type
  5213 ;;  p               1    7[COMRAM] PTR void 
  5214 ;;		 -> i2c_readDataBlock@d(4), i2c_write2ByteRegister@data(2), i2c_read2ByteRegister@result(2), i2c_read1ByteRegister@d
      +2(1), 
  5215 ;;		 -> i2c_write1ByteRegister@data(1), I2C1_ReadDataBlock@bufferBlock(4), I2C1_Write2ByteRegister@data(2), I2C1_Write1B
      +yteRegister@data(1), 
  5216 ;;		 -> I2C1_Read2ByteRegister@returnValue(2), NULL(0), I2C1_Read1ByteRegister@returnValue(1), 
  5217 ;; Auto vars:     Size  Location     Type
  5218 ;;		None
  5219 ;; Return value:  Size  Location     Type
  5220 ;;                  1    wreg      enum E363
  5221 ;; Registers used:
  5222 ;;		wreg, fsr2l, fsr2h, status,2, status,0, prodl, prodh, cstack
  5223 ;; Tracked objects:
  5224 ;;		On entry : 0/0
  5225 ;;		On exit  : 0/0
  5226 ;;		Unchanged: 0/0
  5227 ;; Data sizes:     COMRAM   BANK0   BANK1   BANK2   BANK3   BANK4   BANK5   BANK6   BANK7
  5228 ;;      Params:         1       0       0       0       0       0       0       0       0
  5229 ;;      Locals:         0       0       0       0       0       0       0       0       0
  5230 ;;      Temps:          1       0       0       0       0       0       0       0       0
  5231 ;;      Totals:         2       0       0       0       0       0       0       0       0
  5232 ;;Total ram usage:        2 bytes
  5233 ;; Hardware stack levels used: 1
  5234 ;; Hardware stack levels required when called: 2
  5235 ;; This function calls:
  5236 ;;		_I2C1_SetBuffer
  5237 ;;		_I2C1_SetDataCompleteCallback
  5238 ;; This function is called by:
  5239 ;;		_i2c_readDataBlock
  5240 ;;		_I2C1_DO_TX
  5241 ;;		_I2C1_DO_RX
  5242 ;;		_I2C1_DO_TX_EMPTY
  5243 ;;		_I2C1_DO_ADDRESS_NACK
  5244 ;;		_I2C1_DO_RX_EMPTY
  5245 ;; This function uses a non-reentrant model
  5246 ;;
  5247                           
  5248                           	psect	text43
  5249   000FE6                     __ptext43:
  5250                           	callstack 0
  5251   000FE6                     _rdBlkRegCompleteHandler@i2c_simple_master$F700:
  5252                           	callstack 19
  5253   000FE6                     
  5254                           ;mcc_generated_files/drivers/i2c_simple_master.c: 185: static i2c1_operations_t rdBlkReg
      +                          CompleteHandler(void *p);mcc_generated_files/drivers/i2c_simple_master.c: 186: {;mcc_gen
      +                          erated_files/drivers/i2c_simple_master.c: 187:     I2C1_SetBuffer(((buf_t *)p)->data,((b
      +                          uf_t*)p)->len);
  5255   000FE6  5008               	movf	rdBlkRegCompleteHandler@i2c_simple_master$F700@p^0,w,c
  5256   000FE8  6ED9               	movwf	fsr2l,c
  5257   000FEA  6ADA               	clrf	fsr2h,c
  5258   000FEC  0E02               	movlw	2
  5259   000FEE  26D9               	addwf	fsr2l,f,c
  5260   000FF0  50DF               	movf	indf2,w,c
  5261   000FF2  6E09               	movwf	??_rdBlkRegCompleteHandler@i2c_simple_master$F700^0,c
  5262   000FF4  C009  F001         	movff	??_rdBlkRegCompleteHandler@i2c_simple_master$F700,I2C1_SetBuffer@buffer
  5263   000FF8  6A02               	clrf	(I2C1_SetBuffer@buffer+1)^0,c
  5264   000FFA  5008               	movf	rdBlkRegCompleteHandler@i2c_simple_master$F700@p^0,w,c
  5265   000FFC  6ED9               	movwf	fsr2l,c
  5266   000FFE  6ADA               	clrf	fsr2h,c
  5267   001000  CFDE F003          	movff	postinc2,I2C1_SetBuffer@bufferSize
  5268   001004  CFDD F004          	movff	postdec2,I2C1_SetBuffer@bufferSize+1
  5269   001008  EC0C  F009         	call	_I2C1_SetBuffer	;wreg free
  5270   00100C                     
  5271                           ;mcc_generated_files/drivers/i2c_simple_master.c: 188:     I2C1_SetDataCompleteCallback(
      +                          ((void*)0),((void*)0));
  5272   00100C  0E00               	movlw	0
  5273   00100E  6E05               	movwf	I2C1_SetDataCompleteCallback@cb^0,c
  5274   001010  0E00               	movlw	0
  5275   001012  6E06               	movwf	(I2C1_SetDataCompleteCallback@cb+1)^0,c
  5276   001014  0E00               	movlw	0
  5277   001016  6E07               	movwf	I2C1_SetDataCompleteCallback@ptr^0,c
  5278   001018  EC40  F009         	call	_I2C1_SetDataCompleteCallback	;wreg free
  5279   00101C                     
  5280                           ;mcc_generated_files/drivers/i2c_simple_master.c: 189:     return I2C1_RESTART_READ;
  5281   00101C  0E02               	movlw	2
  5282   00101E  0012               	return		;funcret
  5283   001020                     __end_of_rdBlkRegCompleteHandler@i2c_simple_master$F700:
  5284                           	callstack 0
  5285                           
  5286 ;; *************** function _rd2RegCompleteHandler@i2c_simple_master$F688 *****************
  5287 ;; Defined at:
  5288 ;;		line 119 in file "mcc_generated_files/drivers/i2c_simple_master.c"
  5289 ;; Parameters:    Size  Location     Type
  5290 ;;  p               1    7[COMRAM] PTR void 
  5291 ;;		 -> i2c_readDataBlock@d(4), i2c_write2ByteRegister@data(2), i2c_read2ByteRegister@result(2), i2c_read1ByteRegister@d
      +2(1), 
  5292 ;;		 -> i2c_write1ByteRegister@data(1), I2C1_ReadDataBlock@bufferBlock(4), I2C1_Write2ByteRegister@data(2), I2C1_Write1B
      +yteRegister@data(1), 
  5293 ;;		 -> I2C1_Read2ByteRegister@returnValue(2), NULL(0), I2C1_Read1ByteRegister@returnValue(1), 
  5294 ;; Auto vars:     Size  Location     Type
  5295 ;;		None
  5296 ;; Return value:  Size  Location     Type
  5297 ;;                  1    wreg      enum E363
  5298 ;; Registers used:
  5299 ;;		wreg, fsr2l, fsr2h, status,2, status,0, prodl, prodh, cstack
  5300 ;; Tracked objects:
  5301 ;;		On entry : 0/0
  5302 ;;		On exit  : 0/0
  5303 ;;		Unchanged: 0/0
  5304 ;; Data sizes:     COMRAM   BANK0   BANK1   BANK2   BANK3   BANK4   BANK5   BANK6   BANK7
  5305 ;;      Params:         1       0       0       0       0       0       0       0       0
  5306 ;;      Locals:         0       0       0       0       0       0       0       0       0
  5307 ;;      Temps:          0       0       0       0       0       0       0       0       0
  5308 ;;      Totals:         1       0       0       0       0       0       0       0       0
  5309 ;;Total ram usage:        1 bytes
  5310 ;; Hardware stack levels used: 1
  5311 ;; Hardware stack levels required when called: 2
  5312 ;; This function calls:
  5313 ;;		_I2C1_SetBuffer
  5314 ;;		_I2C1_SetDataCompleteCallback
  5315 ;; This function is called by:
  5316 ;;		_i2c_read2ByteRegister
  5317 ;;		_I2C1_DO_TX
  5318 ;;		_I2C1_DO_RX
  5319 ;;		_I2C1_DO_TX_EMPTY
  5320 ;;		_I2C1_DO_ADDRESS_NACK
  5321 ;;		_I2C1_DO_RX_EMPTY
  5322 ;; This function uses a non-reentrant model
  5323 ;;
  5324                           
  5325                           	psect	text44
  5326   0010E8                     __ptext44:
  5327                           	callstack 0
  5328   0010E8                     _rd2RegCompleteHandler@i2c_simple_master$F688:
  5329                           	callstack 19
  5330   0010E8                     
  5331                           ;mcc_generated_files/drivers/i2c_simple_master.c: 119: static i2c1_operations_t rd2RegCo
      +                          mpleteHandler(void *p);mcc_generated_files/drivers/i2c_simple_master.c: 120: {;mcc_gener
      +                          ated_files/drivers/i2c_simple_master.c: 121:     I2C1_SetBuffer(p,2);
  5332   0010E8  C008  F001         	movff	rd2RegCompleteHandler@i2c_simple_master$F688@p,I2C1_SetBuffer@buffer
  5333   0010EC  6A02               	clrf	(I2C1_SetBuffer@buffer+1)^0,c
  5334   0010EE  0E00               	movlw	0
  5335   0010F0  6E04               	movwf	(I2C1_SetBuffer@bufferSize+1)^0,c
  5336   0010F2  0E02               	movlw	2
  5337   0010F4  6E03               	movwf	I2C1_SetBuffer@bufferSize^0,c
  5338   0010F6  EC0C  F009         	call	_I2C1_SetBuffer	;wreg free
  5339   0010FA                     
  5340                           ;mcc_generated_files/drivers/i2c_simple_master.c: 122:     I2C1_SetDataCompleteCallback(
      +                          ((void*)0),((void*)0));
  5341   0010FA  0E00               	movlw	0
  5342   0010FC  6E05               	movwf	I2C1_SetDataCompleteCallback@cb^0,c
  5343   0010FE  0E00               	movlw	0
  5344   001100  6E06               	movwf	(I2C1_SetDataCompleteCallback@cb+1)^0,c
  5345   001102  0E00               	movlw	0
  5346   001104  6E07               	movwf	I2C1_SetDataCompleteCallback@ptr^0,c
  5347   001106  EC40  F009         	call	_I2C1_SetDataCompleteCallback	;wreg free
  5348   00110A                     
  5349                           ;mcc_generated_files/drivers/i2c_simple_master.c: 123:     return I2C1_RESTART_READ;
  5350   00110A  0E02               	movlw	2
  5351   00110C  0012               	return		;funcret
  5352   00110E                     __end_of_rd2RegCompleteHandler@i2c_simple_master$F688:
  5353                           	callstack 0
  5354                           
  5355 ;; *************** function _rd1RegCompleteHandler@i2c_simple_master$F680 *****************
  5356 ;; Defined at:
  5357 ;;		line 81 in file "mcc_generated_files/drivers/i2c_simple_master.c"
  5358 ;; Parameters:    Size  Location     Type
  5359 ;;  p               1    7[COMRAM] PTR void 
  5360 ;;		 -> i2c_readDataBlock@d(4), i2c_write2ByteRegister@data(2), i2c_read2ByteRegister@result(2), i2c_read1ByteRegister@d
      +2(1), 
  5361 ;;		 -> i2c_write1ByteRegister@data(1), I2C1_ReadDataBlock@bufferBlock(4), I2C1_Write2ByteRegister@data(2), I2C1_Write1B
      +yteRegister@data(1), 
  5362 ;;		 -> I2C1_Read2ByteRegister@returnValue(2), NULL(0), I2C1_Read1ByteRegister@returnValue(1), 
  5363 ;; Auto vars:     Size  Location     Type
  5364 ;;		None
  5365 ;; Return value:  Size  Location     Type
  5366 ;;                  1    wreg      enum E363
  5367 ;; Registers used:
  5368 ;;		wreg, fsr2l, fsr2h, status,2, status,0, prodl, prodh, cstack
  5369 ;; Tracked objects:
  5370 ;;		On entry : 0/0
  5371 ;;		On exit  : 0/0
  5372 ;;		Unchanged: 0/0
  5373 ;; Data sizes:     COMRAM   BANK0   BANK1   BANK2   BANK3   BANK4   BANK5   BANK6   BANK7
  5374 ;;      Params:         1       0       0       0       0       0       0       0       0
  5375 ;;      Locals:         0       0       0       0       0       0       0       0       0
  5376 ;;      Temps:          0       0       0       0       0       0       0       0       0
  5377 ;;      Totals:         1       0       0       0       0       0       0       0       0
  5378 ;;Total ram usage:        1 bytes
  5379 ;; Hardware stack levels used: 1
  5380 ;; Hardware stack levels required when called: 2
  5381 ;; This function calls:
  5382 ;;		_I2C1_SetBuffer
  5383 ;;		_I2C1_SetDataCompleteCallback
  5384 ;; This function is called by:
  5385 ;;		_i2c_read1ByteRegister
  5386 ;;		_I2C1_DO_TX
  5387 ;;		_I2C1_DO_RX
  5388 ;;		_I2C1_DO_TX_EMPTY
  5389 ;;		_I2C1_DO_ADDRESS_NACK
  5390 ;;		_I2C1_DO_RX_EMPTY
  5391 ;; This function uses a non-reentrant model
  5392 ;;
  5393                           
  5394                           	psect	text45
  5395   00110E                     __ptext45:
  5396                           	callstack 0
  5397   00110E                     _rd1RegCompleteHandler@i2c_simple_master$F680:
  5398                           	callstack 19
  5399   00110E                     
  5400                           ;mcc_generated_files/drivers/i2c_simple_master.c: 81: static i2c1_operations_t rd1RegCom
      +                          pleteHandler(void *p);mcc_generated_files/drivers/i2c_simple_master.c: 82: {;mcc_generat
      +                          ed_files/drivers/i2c_simple_master.c: 83:     I2C1_SetBuffer(p,1);
  5401   00110E  C008  F001         	movff	rd1RegCompleteHandler@i2c_simple_master$F680@p,I2C1_SetBuffer@buffer
  5402   001112  6A02               	clrf	(I2C1_SetBuffer@buffer+1)^0,c
  5403   001114  0E00               	movlw	0
  5404   001116  6E04               	movwf	(I2C1_SetBuffer@bufferSize+1)^0,c
  5405   001118  0E01               	movlw	1
  5406   00111A  6E03               	movwf	I2C1_SetBuffer@bufferSize^0,c
  5407   00111C  EC0C  F009         	call	_I2C1_SetBuffer	;wreg free
  5408   001120                     
  5409                           ;mcc_generated_files/drivers/i2c_simple_master.c: 84:     I2C1_SetDataCompleteCallback((
      +                          (void*)0),((void*)0));
  5410   001120  0E00               	movlw	0
  5411   001122  6E05               	movwf	I2C1_SetDataCompleteCallback@cb^0,c
  5412   001124  0E00               	movlw	0
  5413   001126  6E06               	movwf	(I2C1_SetDataCompleteCallback@cb+1)^0,c
  5414   001128  0E00               	movlw	0
  5415   00112A  6E07               	movwf	I2C1_SetDataCompleteCallback@ptr^0,c
  5416   00112C  EC40  F009         	call	_I2C1_SetDataCompleteCallback	;wreg free
  5417   001130                     
  5418                           ;mcc_generated_files/drivers/i2c_simple_master.c: 85:     return I2C1_RESTART_READ;
  5419   001130  0E02               	movlw	2
  5420   001132  0012               	return		;funcret
  5421   001134                     __end_of_rd1RegCompleteHandler@i2c_simple_master$F680:
  5422                           	callstack 0
  5423                           
  5424 ;; *************** function _wr1RegCompleteHandler@i2c_simple_master$F670 *****************
  5425 ;; Defined at:
  5426 ;;		line 34 in file "mcc_generated_files/drivers/i2c_simple_master.c"
  5427 ;; Parameters:    Size  Location     Type
  5428 ;;  p               1    7[COMRAM] PTR void 
  5429 ;;		 -> i2c_readDataBlock@d(4), i2c_write2ByteRegister@data(2), i2c_read2ByteRegister@result(2), i2c_read1ByteRegister@d
      +2(1), 
  5430 ;;		 -> i2c_write1ByteRegister@data(1), I2C1_ReadDataBlock@bufferBlock(4), I2C1_Write2ByteRegister@data(2), I2C1_Write1B
      +yteRegister@data(1), 
  5431 ;;		 -> I2C1_Read2ByteRegister@returnValue(2), NULL(0), I2C1_Read1ByteRegister@returnValue(1), 
  5432 ;; Auto vars:     Size  Location     Type
  5433 ;;		None
  5434 ;; Return value:  Size  Location     Type
  5435 ;;                  1    wreg      enum E363
  5436 ;; Registers used:
  5437 ;;		wreg, fsr2l, fsr2h, status,2, status,0, prodl, prodh, cstack
  5438 ;; Tracked objects:
  5439 ;;		On entry : 0/0
  5440 ;;		On exit  : 0/0
  5441 ;;		Unchanged: 0/0
  5442 ;; Data sizes:     COMRAM   BANK0   BANK1   BANK2   BANK3   BANK4   BANK5   BANK6   BANK7
  5443 ;;      Params:         1       0       0       0       0       0       0       0       0
  5444 ;;      Locals:         0       0       0       0       0       0       0       0       0
  5445 ;;      Temps:          0       0       0       0       0       0       0       0       0
  5446 ;;      Totals:         1       0       0       0       0       0       0       0       0
  5447 ;;Total ram usage:        1 bytes
  5448 ;; Hardware stack levels used: 1
  5449 ;; Hardware stack levels required when called: 2
  5450 ;; This function calls:
  5451 ;;		_I2C1_SetBuffer
  5452 ;;		_I2C1_SetDataCompleteCallback
  5453 ;; This function is called by:
  5454 ;;		_i2c_write1ByteRegister
  5455 ;;		_I2C1_DO_TX
  5456 ;;		_I2C1_DO_RX
  5457 ;;		_I2C1_DO_TX_EMPTY
  5458 ;;		_I2C1_DO_ADDRESS_NACK
  5459 ;;		_I2C1_DO_RX_EMPTY
  5460 ;; This function uses a non-reentrant model
  5461 ;;
  5462                           
  5463                           	psect	text46
  5464   001134                     __ptext46:
  5465                           	callstack 0
  5466   001134                     _wr1RegCompleteHandler@i2c_simple_master$F670:
  5467                           	callstack 19
  5468   001134                     
  5469                           ;mcc_generated_files/drivers/i2c_simple_master.c: 34: static i2c1_operations_t wr1RegCom
      +                          pleteHandler(void *p);mcc_generated_files/drivers/i2c_simple_master.c: 35: {;mcc_generat
      +                          ed_files/drivers/i2c_simple_master.c: 36:     I2C1_SetBuffer(p,1);
  5470   001134  C008  F001         	movff	wr1RegCompleteHandler@i2c_simple_master$F670@p,I2C1_SetBuffer@buffer
  5471   001138  6A02               	clrf	(I2C1_SetBuffer@buffer+1)^0,c
  5472   00113A  0E00               	movlw	0
  5473   00113C  6E04               	movwf	(I2C1_SetBuffer@bufferSize+1)^0,c
  5474   00113E  0E01               	movlw	1
  5475   001140  6E03               	movwf	I2C1_SetBuffer@bufferSize^0,c
  5476   001142  EC0C  F009         	call	_I2C1_SetBuffer	;wreg free
  5477   001146                     
  5478                           ;mcc_generated_files/drivers/i2c_simple_master.c: 37:     I2C1_SetDataCompleteCallback((
      +                          (void*)0),((void*)0));
  5479   001146  0E00               	movlw	0
  5480   001148  6E05               	movwf	I2C1_SetDataCompleteCallback@cb^0,c
  5481   00114A  0E00               	movlw	0
  5482   00114C  6E06               	movwf	(I2C1_SetDataCompleteCallback@cb+1)^0,c
  5483   00114E  0E00               	movlw	0
  5484   001150  6E07               	movwf	I2C1_SetDataCompleteCallback@ptr^0,c
  5485   001152  EC40  F009         	call	_I2C1_SetDataCompleteCallback	;wreg free
  5486   001156                     
  5487                           ;mcc_generated_files/drivers/i2c_simple_master.c: 38:     return I2C1_CONTINUE;
  5488   001156  0E04               	movlw	4
  5489   001158  0012               	return		;funcret
  5490   00115A                     __end_of_wr1RegCompleteHandler@i2c_simple_master$F670:
  5491                           	callstack 0
  5492                           
  5493 ;; *************** function _rdBlkRegCompleteHandler *****************
  5494 ;; Defined at:
  5495 ;;		line 170 in file "mcc_generated_files/examples/i2c1_master_example.c"
  5496 ;; Parameters:    Size  Location     Type
  5497 ;;  ptr             1    7[COMRAM] PTR void 
  5498 ;;		 -> i2c_readDataBlock@d(4), i2c_write2ByteRegister@data(2), i2c_read2ByteRegister@result(2), i2c_read1ByteRegister@d
      +2(1), 
  5499 ;;		 -> i2c_write1ByteRegister@data(1), I2C1_ReadDataBlock@bufferBlock(4), I2C1_Write2ByteRegister@data(2), I2C1_Write1B
      +yteRegister@data(1), 
  5500 ;;		 -> I2C1_Read2ByteRegister@returnValue(2), NULL(0), I2C1_Read1ByteRegister@returnValue(1), 
  5501 ;; Auto vars:     Size  Location     Type
  5502 ;;		None
  5503 ;; Return value:  Size  Location     Type
  5504 ;;                  1    wreg      enum E363
  5505 ;; Registers used:
  5506 ;;		wreg, fsr2l, fsr2h, status,2, status,0, prodl, prodh, cstack
  5507 ;; Tracked objects:
  5508 ;;		On entry : 0/0
  5509 ;;		On exit  : 0/0
  5510 ;;		Unchanged: 0/0
  5511 ;; Data sizes:     COMRAM   BANK0   BANK1   BANK2   BANK3   BANK4   BANK5   BANK6   BANK7
  5512 ;;      Params:         1       0       0       0       0       0       0       0       0
  5513 ;;      Locals:         0       0       0       0       0       0       0       0       0
  5514 ;;      Temps:          1       0       0       0       0       0       0       0       0
  5515 ;;      Totals:         2       0       0       0       0       0       0       0       0
  5516 ;;Total ram usage:        2 bytes
  5517 ;; Hardware stack levels used: 1
  5518 ;; Hardware stack levels required when called: 2
  5519 ;; This function calls:
  5520 ;;		_I2C1_SetBuffer
  5521 ;;		_I2C1_SetDataCompleteCallback
  5522 ;; This function is called by:
  5523 ;;		_I2C1_ReadDataBlock
  5524 ;;		_I2C1_DO_TX
  5525 ;;		_I2C1_DO_RX
  5526 ;;		_I2C1_DO_TX_EMPTY
  5527 ;;		_I2C1_DO_ADDRESS_NACK
  5528 ;;		_I2C1_DO_RX_EMPTY
  5529 ;; This function uses a non-reentrant model
  5530 ;;
  5531                           
  5532                           	psect	text47
  5533   001020                     __ptext47:
  5534                           	callstack 0
  5535   001020                     _rdBlkRegCompleteHandler:
  5536                           	callstack 19
  5537   001020                     
  5538                           ;mcc_generated_files/examples/i2c1_master_example.c: 170: static i2c1_operations_t rdBlk
      +                          RegCompleteHandler(void *ptr);mcc_generated_files/examples/i2c1_master_example.c: 171: {
      +                          ;mcc_generated_files/examples/i2c1_master_example.c: 172:     I2C1_SetBuffer(((i2c1_buff
      +                          er_t *)ptr)->data,((i2c1_buffer_t*)ptr)->len);
  5539   001020  5008               	movf	rdBlkRegCompleteHandler@ptr^0,w,c
  5540   001022  6ED9               	movwf	fsr2l,c
  5541   001024  6ADA               	clrf	fsr2h,c
  5542   001026  0E02               	movlw	2
  5543   001028  26D9               	addwf	fsr2l,f,c
  5544   00102A  50DF               	movf	indf2,w,c
  5545   00102C  6E09               	movwf	??_rdBlkRegCompleteHandler^0,c
  5546   00102E  C009  F001         	movff	??_rdBlkRegCompleteHandler,I2C1_SetBuffer@buffer
  5547   001032  6A02               	clrf	(I2C1_SetBuffer@buffer+1)^0,c
  5548   001034  5008               	movf	rdBlkRegCompleteHandler@ptr^0,w,c
  5549   001036  6ED9               	movwf	fsr2l,c
  5550   001038  6ADA               	clrf	fsr2h,c
  5551   00103A  CFDE F003          	movff	postinc2,I2C1_SetBuffer@bufferSize
  5552   00103E  CFDD F004          	movff	postdec2,I2C1_SetBuffer@bufferSize+1
  5553   001042  EC0C  F009         	call	_I2C1_SetBuffer	;wreg free
  5554   001046                     
  5555                           ;mcc_generated_files/examples/i2c1_master_example.c: 173:     I2C1_SetDataCompleteCallba
      +                          ck(((void*)0),((void*)0));
  5556   001046  0E00               	movlw	0
  5557   001048  6E05               	movwf	I2C1_SetDataCompleteCallback@cb^0,c
  5558   00104A  0E00               	movlw	0
  5559   00104C  6E06               	movwf	(I2C1_SetDataCompleteCallback@cb+1)^0,c
  5560   00104E  0E00               	movlw	0
  5561   001050  6E07               	movwf	I2C1_SetDataCompleteCallback@ptr^0,c
  5562   001052  EC40  F009         	call	_I2C1_SetDataCompleteCallback	;wreg free
  5563   001056                     
  5564                           ;mcc_generated_files/examples/i2c1_master_example.c: 174:     return I2C1_RESTART_READ;
  5565   001056  0E02               	movlw	2
  5566   001058  0012               	return		;funcret
  5567   00105A                     __end_of_rdBlkRegCompleteHandler:
  5568                           	callstack 0
  5569                           
  5570 ;; *************** function _wr2RegCompleteHandler *****************
  5571 ;; Defined at:
  5572 ;;		line 163 in file "mcc_generated_files/examples/i2c1_master_example.c"
  5573 ;; Parameters:    Size  Location     Type
  5574 ;;  ptr             1    7[COMRAM] PTR void 
  5575 ;;		 -> i2c_readDataBlock@d(4), i2c_write2ByteRegister@data(2), i2c_read2ByteRegister@result(2), i2c_read1ByteRegister@d
      +2(1), 
  5576 ;;		 -> i2c_write1ByteRegister@data(1), I2C1_ReadDataBlock@bufferBlock(4), I2C1_Write2ByteRegister@data(2), I2C1_Write1B
      +yteRegister@data(1), 
  5577 ;;		 -> I2C1_Read2ByteRegister@returnValue(2), NULL(0), I2C1_Read1ByteRegister@returnValue(1), 
  5578 ;; Auto vars:     Size  Location     Type
  5579 ;;		None
  5580 ;; Return value:  Size  Location     Type
  5581 ;;                  1    wreg      enum E363
  5582 ;; Registers used:
  5583 ;;		wreg, fsr2l, fsr2h, status,2, status,0, prodl, prodh, cstack
  5584 ;; Tracked objects:
  5585 ;;		On entry : 0/0
  5586 ;;		On exit  : 0/0
  5587 ;;		Unchanged: 0/0
  5588 ;; Data sizes:     COMRAM   BANK0   BANK1   BANK2   BANK3   BANK4   BANK5   BANK6   BANK7
  5589 ;;      Params:         1       0       0       0       0       0       0       0       0
  5590 ;;      Locals:         0       0       0       0       0       0       0       0       0
  5591 ;;      Temps:          0       0       0       0       0       0       0       0       0
  5592 ;;      Totals:         1       0       0       0       0       0       0       0       0
  5593 ;;Total ram usage:        1 bytes
  5594 ;; Hardware stack levels used: 1
  5595 ;; Hardware stack levels required when called: 2
  5596 ;; This function calls:
  5597 ;;		_I2C1_SetBuffer
  5598 ;;		_I2C1_SetDataCompleteCallback
  5599 ;; This function is called by:
  5600 ;;		_I2C1_Write2ByteRegister
  5601 ;;		_I2C1_DO_TX
  5602 ;;		_I2C1_DO_RX
  5603 ;;		_I2C1_DO_TX_EMPTY
  5604 ;;		_I2C1_DO_ADDRESS_NACK
  5605 ;;		_I2C1_DO_RX_EMPTY
  5606 ;; This function uses a non-reentrant model
  5607 ;;
  5608                           
  5609                           	psect	text48
  5610   00115A                     __ptext48:
  5611                           	callstack 0
  5612   00115A                     _wr2RegCompleteHandler:
  5613                           	callstack 19
  5614   00115A                     
  5615                           ;mcc_generated_files/examples/i2c1_master_example.c: 163: static i2c1_operations_t wr2Re
      +                          gCompleteHandler(void *ptr);mcc_generated_files/examples/i2c1_master_example.c: 164: {;m
      +                          cc_generated_files/examples/i2c1_master_example.c: 165:     I2C1_SetBuffer(ptr,2);
  5616   00115A  C008  F001         	movff	wr2RegCompleteHandler@ptr,I2C1_SetBuffer@buffer
  5617   00115E  6A02               	clrf	(I2C1_SetBuffer@buffer+1)^0,c
  5618   001160  0E00               	movlw	0
  5619   001162  6E04               	movwf	(I2C1_SetBuffer@bufferSize+1)^0,c
  5620   001164  0E02               	movlw	2
  5621   001166  6E03               	movwf	I2C1_SetBuffer@bufferSize^0,c
  5622   001168  EC0C  F009         	call	_I2C1_SetBuffer	;wreg free
  5623   00116C                     
  5624                           ;mcc_generated_files/examples/i2c1_master_example.c: 166:     I2C1_SetDataCompleteCallba
      +                          ck(((void*)0),((void*)0));
  5625   00116C  0E00               	movlw	0
  5626   00116E  6E05               	movwf	I2C1_SetDataCompleteCallback@cb^0,c
  5627   001170  0E00               	movlw	0
  5628   001172  6E06               	movwf	(I2C1_SetDataCompleteCallback@cb+1)^0,c
  5629   001174  0E00               	movlw	0
  5630   001176  6E07               	movwf	I2C1_SetDataCompleteCallback@ptr^0,c
  5631   001178  EC40  F009         	call	_I2C1_SetDataCompleteCallback	;wreg free
  5632   00117C                     
  5633                           ;mcc_generated_files/examples/i2c1_master_example.c: 167:     return I2C1_CONTINUE;
  5634   00117C  0E04               	movlw	4
  5635   00117E  0012               	return		;funcret
  5636   001180                     __end_of_wr2RegCompleteHandler:
  5637                           	callstack 0
  5638                           
  5639 ;; *************** function _wr1RegCompleteHandler *****************
  5640 ;; Defined at:
  5641 ;;		line 156 in file "mcc_generated_files/examples/i2c1_master_example.c"
  5642 ;; Parameters:    Size  Location     Type
  5643 ;;  ptr             1    7[COMRAM] PTR void 
  5644 ;;		 -> i2c_readDataBlock@d(4), i2c_write2ByteRegister@data(2), i2c_read2ByteRegister@result(2), i2c_read1ByteRegister@d
      +2(1), 
  5645 ;;		 -> i2c_write1ByteRegister@data(1), I2C1_ReadDataBlock@bufferBlock(4), I2C1_Write2ByteRegister@data(2), I2C1_Write1B
      +yteRegister@data(1), 
  5646 ;;		 -> I2C1_Read2ByteRegister@returnValue(2), NULL(0), I2C1_Read1ByteRegister@returnValue(1), 
  5647 ;; Auto vars:     Size  Location     Type
  5648 ;;		None
  5649 ;; Return value:  Size  Location     Type
  5650 ;;                  1    wreg      enum E363
  5651 ;; Registers used:
  5652 ;;		wreg, fsr2l, fsr2h, status,2, status,0, prodl, prodh, cstack
  5653 ;; Tracked objects:
  5654 ;;		On entry : 0/0
  5655 ;;		On exit  : 0/0
  5656 ;;		Unchanged: 0/0
  5657 ;; Data sizes:     COMRAM   BANK0   BANK1   BANK2   BANK3   BANK4   BANK5   BANK6   BANK7
  5658 ;;      Params:         1       0       0       0       0       0       0       0       0
  5659 ;;      Locals:         0       0       0       0       0       0       0       0       0
  5660 ;;      Temps:          0       0       0       0       0       0       0       0       0
  5661 ;;      Totals:         1       0       0       0       0       0       0       0       0
  5662 ;;Total ram usage:        1 bytes
  5663 ;; Hardware stack levels used: 1
  5664 ;; Hardware stack levels required when called: 2
  5665 ;; This function calls:
  5666 ;;		_I2C1_SetBuffer
  5667 ;;		_I2C1_SetDataCompleteCallback
  5668 ;; This function is called by:
  5669 ;;		_I2C1_Write1ByteRegister
  5670 ;;		_I2C1_DO_TX
  5671 ;;		_I2C1_DO_RX
  5672 ;;		_I2C1_DO_TX_EMPTY
  5673 ;;		_I2C1_DO_ADDRESS_NACK
  5674 ;;		_I2C1_DO_RX_EMPTY
  5675 ;; This function uses a non-reentrant model
  5676 ;;
  5677                           
  5678                           	psect	text49
  5679   001180                     __ptext49:
  5680                           	callstack 0
  5681   001180                     _wr1RegCompleteHandler:
  5682                           	callstack 19
  5683   001180                     
  5684                           ;mcc_generated_files/examples/i2c1_master_example.c: 156: static i2c1_operations_t wr1Re
      +                          gCompleteHandler(void *ptr);mcc_generated_files/examples/i2c1_master_example.c: 157: {;m
      +                          cc_generated_files/examples/i2c1_master_example.c: 158:     I2C1_SetBuffer(ptr,1);
  5685   001180  C008  F001         	movff	wr1RegCompleteHandler@ptr,I2C1_SetBuffer@buffer
  5686   001184  6A02               	clrf	(I2C1_SetBuffer@buffer+1)^0,c
  5687   001186  0E00               	movlw	0
  5688   001188  6E04               	movwf	(I2C1_SetBuffer@bufferSize+1)^0,c
  5689   00118A  0E01               	movlw	1
  5690   00118C  6E03               	movwf	I2C1_SetBuffer@bufferSize^0,c
  5691   00118E  EC0C  F009         	call	_I2C1_SetBuffer	;wreg free
  5692   001192                     
  5693                           ;mcc_generated_files/examples/i2c1_master_example.c: 159:     I2C1_SetDataCompleteCallba
      +                          ck(((void*)0),((void*)0));
  5694   001192  0E00               	movlw	0
  5695   001194  6E05               	movwf	I2C1_SetDataCompleteCallback@cb^0,c
  5696   001196  0E00               	movlw	0
  5697   001198  6E06               	movwf	(I2C1_SetDataCompleteCallback@cb+1)^0,c
  5698   00119A  0E00               	movlw	0
  5699   00119C  6E07               	movwf	I2C1_SetDataCompleteCallback@ptr^0,c
  5700   00119E  EC40  F009         	call	_I2C1_SetDataCompleteCallback	;wreg free
  5701   0011A2                     
  5702                           ;mcc_generated_files/examples/i2c1_master_example.c: 160:     return I2C1_CONTINUE;
  5703   0011A2  0E04               	movlw	4
  5704   0011A4  0012               	return		;funcret
  5705   0011A6                     __end_of_wr1RegCompleteHandler:
  5706                           	callstack 0
  5707                           
  5708 ;; *************** function _rd2RegCompleteHandler *****************
  5709 ;; Defined at:
  5710 ;;		line 149 in file "mcc_generated_files/examples/i2c1_master_example.c"
  5711 ;; Parameters:    Size  Location     Type
  5712 ;;  ptr             1    7[COMRAM] PTR void 
  5713 ;;		 -> i2c_readDataBlock@d(4), i2c_write2ByteRegister@data(2), i2c_read2ByteRegister@result(2), i2c_read1ByteRegister@d
      +2(1), 
  5714 ;;		 -> i2c_write1ByteRegister@data(1), I2C1_ReadDataBlock@bufferBlock(4), I2C1_Write2ByteRegister@data(2), I2C1_Write1B
      +yteRegister@data(1), 
  5715 ;;		 -> I2C1_Read2ByteRegister@returnValue(2), NULL(0), I2C1_Read1ByteRegister@returnValue(1), 
  5716 ;; Auto vars:     Size  Location     Type
  5717 ;;		None
  5718 ;; Return value:  Size  Location     Type
  5719 ;;                  1    wreg      enum E363
  5720 ;; Registers used:
  5721 ;;		wreg, fsr2l, fsr2h, status,2, status,0, prodl, prodh, cstack
  5722 ;; Tracked objects:
  5723 ;;		On entry : 0/0
  5724 ;;		On exit  : 0/0
  5725 ;;		Unchanged: 0/0
  5726 ;; Data sizes:     COMRAM   BANK0   BANK1   BANK2   BANK3   BANK4   BANK5   BANK6   BANK7
  5727 ;;      Params:         1       0       0       0       0       0       0       0       0
  5728 ;;      Locals:         0       0       0       0       0       0       0       0       0
  5729 ;;      Temps:          0       0       0       0       0       0       0       0       0
  5730 ;;      Totals:         1       0       0       0       0       0       0       0       0
  5731 ;;Total ram usage:        1 bytes
  5732 ;; Hardware stack levels used: 1
  5733 ;; Hardware stack levels required when called: 2
  5734 ;; This function calls:
  5735 ;;		_I2C1_SetBuffer
  5736 ;;		_I2C1_SetDataCompleteCallback
  5737 ;; This function is called by:
  5738 ;;		_I2C1_Read2ByteRegister
  5739 ;;		_I2C1_DO_TX
  5740 ;;		_I2C1_DO_RX
  5741 ;;		_I2C1_DO_TX_EMPTY
  5742 ;;		_I2C1_DO_ADDRESS_NACK
  5743 ;;		_I2C1_DO_RX_EMPTY
  5744 ;; This function uses a non-reentrant model
  5745 ;;
  5746                           
  5747                           	psect	text50
  5748   0011A6                     __ptext50:
  5749                           	callstack 0
  5750   0011A6                     _rd2RegCompleteHandler:
  5751                           	callstack 19
  5752   0011A6                     
  5753                           ;mcc_generated_files/examples/i2c1_master_example.c: 149: static i2c1_operations_t rd2Re
      +                          gCompleteHandler(void *ptr);mcc_generated_files/examples/i2c1_master_example.c: 150: {;m
      +                          cc_generated_files/examples/i2c1_master_example.c: 151:     I2C1_SetBuffer(ptr,2);
  5754   0011A6  C008  F001         	movff	rd2RegCompleteHandler@ptr,I2C1_SetBuffer@buffer
  5755   0011AA  6A02               	clrf	(I2C1_SetBuffer@buffer+1)^0,c
  5756   0011AC  0E00               	movlw	0
  5757   0011AE  6E04               	movwf	(I2C1_SetBuffer@bufferSize+1)^0,c
  5758   0011B0  0E02               	movlw	2
  5759   0011B2  6E03               	movwf	I2C1_SetBuffer@bufferSize^0,c
  5760   0011B4  EC0C  F009         	call	_I2C1_SetBuffer	;wreg free
  5761   0011B8                     
  5762                           ;mcc_generated_files/examples/i2c1_master_example.c: 152:     I2C1_SetDataCompleteCallba
      +                          ck(((void*)0),((void*)0));
  5763   0011B8  0E00               	movlw	0
  5764   0011BA  6E05               	movwf	I2C1_SetDataCompleteCallback@cb^0,c
  5765   0011BC  0E00               	movlw	0
  5766   0011BE  6E06               	movwf	(I2C1_SetDataCompleteCallback@cb+1)^0,c
  5767   0011C0  0E00               	movlw	0
  5768   0011C2  6E07               	movwf	I2C1_SetDataCompleteCallback@ptr^0,c
  5769   0011C4  EC40  F009         	call	_I2C1_SetDataCompleteCallback	;wreg free
  5770   0011C8                     
  5771                           ;mcc_generated_files/examples/i2c1_master_example.c: 153:     return I2C1_RESTART_READ;
  5772   0011C8  0E02               	movlw	2
  5773   0011CA  0012               	return		;funcret
  5774   0011CC                     __end_of_rd2RegCompleteHandler:
  5775                           	callstack 0
  5776                           
  5777 ;; *************** function _rd1RegCompleteHandler *****************
  5778 ;; Defined at:
  5779 ;;		line 142 in file "mcc_generated_files/examples/i2c1_master_example.c"
  5780 ;; Parameters:    Size  Location     Type
  5781 ;;  ptr             1    7[COMRAM] PTR void 
  5782 ;;		 -> i2c_readDataBlock@d(4), i2c_write2ByteRegister@data(2), i2c_read2ByteRegister@result(2), i2c_read1ByteRegister@d
      +2(1), 
  5783 ;;		 -> i2c_write1ByteRegister@data(1), I2C1_ReadDataBlock@bufferBlock(4), I2C1_Write2ByteRegister@data(2), I2C1_Write1B
      +yteRegister@data(1), 
  5784 ;;		 -> I2C1_Read2ByteRegister@returnValue(2), NULL(0), I2C1_Read1ByteRegister@returnValue(1), 
  5785 ;; Auto vars:     Size  Location     Type
  5786 ;;		None
  5787 ;; Return value:  Size  Location     Type
  5788 ;;                  1    wreg      enum E363
  5789 ;; Registers used:
  5790 ;;		wreg, fsr2l, fsr2h, status,2, status,0, prodl, prodh, cstack
  5791 ;; Tracked objects:
  5792 ;;		On entry : 0/0
  5793 ;;		On exit  : 0/0
  5794 ;;		Unchanged: 0/0
  5795 ;; Data sizes:     COMRAM   BANK0   BANK1   BANK2   BANK3   BANK4   BANK5   BANK6   BANK7
  5796 ;;      Params:         1       0       0       0       0       0       0       0       0
  5797 ;;      Locals:         0       0       0       0       0       0       0       0       0
  5798 ;;      Temps:          0       0       0       0       0       0       0       0       0
  5799 ;;      Totals:         1       0       0       0       0       0       0       0       0
  5800 ;;Total ram usage:        1 bytes
  5801 ;; Hardware stack levels used: 1
  5802 ;; Hardware stack levels required when called: 2
  5803 ;; This function calls:
  5804 ;;		_I2C1_SetBuffer
  5805 ;;		_I2C1_SetDataCompleteCallback
  5806 ;; This function is called by:
  5807 ;;		_I2C1_Read1ByteRegister
  5808 ;;		_I2C1_DO_TX
  5809 ;;		_I2C1_DO_RX
  5810 ;;		_I2C1_DO_TX_EMPTY
  5811 ;;		_I2C1_DO_ADDRESS_NACK
  5812 ;;		_I2C1_DO_RX_EMPTY
  5813 ;; This function uses a non-reentrant model
  5814 ;;
  5815                           
  5816                           	psect	text51
  5817   0011CC                     __ptext51:
  5818                           	callstack 0
  5819   0011CC                     _rd1RegCompleteHandler:
  5820                           	callstack 19
  5821   0011CC                     
  5822                           ;mcc_generated_files/examples/i2c1_master_example.c: 142: static i2c1_operations_t rd1Re
      +                          gCompleteHandler(void *ptr);mcc_generated_files/examples/i2c1_master_example.c: 143: {;m
      +                          cc_generated_files/examples/i2c1_master_example.c: 144:     I2C1_SetBuffer(ptr,1);
  5823   0011CC  C008  F001         	movff	rd1RegCompleteHandler@ptr,I2C1_SetBuffer@buffer
  5824   0011D0  6A02               	clrf	(I2C1_SetBuffer@buffer+1)^0,c
  5825   0011D2  0E00               	movlw	0
  5826   0011D4  6E04               	movwf	(I2C1_SetBuffer@bufferSize+1)^0,c
  5827   0011D6  0E01               	movlw	1
  5828   0011D8  6E03               	movwf	I2C1_SetBuffer@bufferSize^0,c
  5829   0011DA  EC0C  F009         	call	_I2C1_SetBuffer	;wreg free
  5830   0011DE                     
  5831                           ;mcc_generated_files/examples/i2c1_master_example.c: 145:     I2C1_SetDataCompleteCallba
      +                          ck(((void*)0),((void*)0));
  5832   0011DE  0E00               	movlw	0
  5833   0011E0  6E05               	movwf	I2C1_SetDataCompleteCallback@cb^0,c
  5834   0011E2  0E00               	movlw	0
  5835   0011E4  6E06               	movwf	(I2C1_SetDataCompleteCallback@cb+1)^0,c
  5836   0011E6  0E00               	movlw	0
  5837   0011E8  6E07               	movwf	I2C1_SetDataCompleteCallback@ptr^0,c
  5838   0011EA  EC40  F009         	call	_I2C1_SetDataCompleteCallback	;wreg free
  5839   0011EE                     
  5840                           ;mcc_generated_files/examples/i2c1_master_example.c: 146:     return I2C1_RESTART_READ;
  5841   0011EE  0E02               	movlw	2
  5842   0011F0  0012               	return		;funcret
  5843   0011F2                     __end_of_rd1RegCompleteHandler:
  5844                           	callstack 0
  5845                           
  5846 ;; *************** function _wr2RegCompleteHandler@i2c_simple_master$F694 *****************
  5847 ;; Defined at:
  5848 ;;		line 151 in file "mcc_generated_files/drivers/i2c_simple_master.c"
  5849 ;; Parameters:    Size  Location     Type
  5850 ;;  p               1    7[COMRAM] PTR void 
  5851 ;;		 -> i2c_readDataBlock@d(4), i2c_write2ByteRegister@data(2), i2c_read2ByteRegister@result(2), i2c_read1ByteRegister@d
      +2(1), 
  5852 ;;		 -> i2c_write1ByteRegister@data(1), I2C1_ReadDataBlock@bufferBlock(4), I2C1_Write2ByteRegister@data(2), I2C1_Write1B
      +yteRegister@data(1), 
  5853 ;;		 -> I2C1_Read2ByteRegister@returnValue(2), NULL(0), I2C1_Read1ByteRegister@returnValue(1), 
  5854 ;; Auto vars:     Size  Location     Type
  5855 ;;		None
  5856 ;; Return value:  Size  Location     Type
  5857 ;;                  1    wreg      enum E363
  5858 ;; Registers used:
  5859 ;;		wreg, fsr2l, fsr2h, status,2, status,0, prodl, prodh, cstack
  5860 ;; Tracked objects:
  5861 ;;		On entry : 0/0
  5862 ;;		On exit  : 0/0
  5863 ;;		Unchanged: 0/0
  5864 ;; Data sizes:     COMRAM   BANK0   BANK1   BANK2   BANK3   BANK4   BANK5   BANK6   BANK7
  5865 ;;      Params:         1       0       0       0       0       0       0       0       0
  5866 ;;      Locals:         0       0       0       0       0       0       0       0       0
  5867 ;;      Temps:          0       0       0       0       0       0       0       0       0
  5868 ;;      Totals:         1       0       0       0       0       0       0       0       0
  5869 ;;Total ram usage:        1 bytes
  5870 ;; Hardware stack levels used: 1
  5871 ;; Hardware stack levels required when called: 2
  5872 ;; This function calls:
  5873 ;;		_I2C1_SetBuffer
  5874 ;;		_I2C1_SetDataCompleteCallback
  5875 ;; This function is called by:
  5876 ;;		_i2c_write2ByteRegister
  5877 ;;		_I2C1_DO_TX
  5878 ;;		_I2C1_DO_RX
  5879 ;;		_I2C1_DO_TX_EMPTY
  5880 ;;		_I2C1_DO_ADDRESS_NACK
  5881 ;;		_I2C1_DO_RX_EMPTY
  5882 ;; This function uses a non-reentrant model
  5883 ;;
  5884                           
  5885                           	psect	text52
  5886   0011F2                     __ptext52:
  5887                           	callstack 0
  5888   0011F2                     _wr2RegCompleteHandler@i2c_simple_master$F694:
  5889                           	callstack 19
  5890   0011F2                     
  5891                           ;mcc_generated_files/drivers/i2c_simple_master.c: 151: static i2c1_operations_t wr2RegCo
      +                          mpleteHandler(void *p);mcc_generated_files/drivers/i2c_simple_master.c: 152: {;mcc_gener
      +                          ated_files/drivers/i2c_simple_master.c: 153:     I2C1_SetBuffer(p,2);
  5892   0011F2  C008  F001         	movff	wr2RegCompleteHandler@i2c_simple_master$F694@p,I2C1_SetBuffer@buffer
  5893   0011F6  6A02               	clrf	(I2C1_SetBuffer@buffer+1)^0,c
  5894   0011F8  0E00               	movlw	0
  5895   0011FA  6E04               	movwf	(I2C1_SetBuffer@bufferSize+1)^0,c
  5896   0011FC  0E02               	movlw	2
  5897   0011FE  6E03               	movwf	I2C1_SetBuffer@bufferSize^0,c
  5898   001200  EC0C  F009         	call	_I2C1_SetBuffer	;wreg free
  5899   001204                     
  5900                           ;mcc_generated_files/drivers/i2c_simple_master.c: 154:     I2C1_SetDataCompleteCallback(
      +                          ((void*)0),((void*)0));
  5901   001204  0E00               	movlw	0
  5902   001206  6E05               	movwf	I2C1_SetDataCompleteCallback@cb^0,c
  5903   001208  0E00               	movlw	0
  5904   00120A  6E06               	movwf	(I2C1_SetDataCompleteCallback@cb+1)^0,c
  5905   00120C  0E00               	movlw	0
  5906   00120E  6E07               	movwf	I2C1_SetDataCompleteCallback@ptr^0,c
  5907   001210  EC40  F009         	call	_I2C1_SetDataCompleteCallback	;wreg free
  5908   001214                     
  5909                           ;mcc_generated_files/drivers/i2c_simple_master.c: 155:     return I2C1_CONTINUE;
  5910   001214  0E04               	movlw	4
  5911   001216  0012               	return		;funcret
  5912   001218                     __end_of_wr2RegCompleteHandler@i2c_simple_master$F694:
  5913                           	callstack 0
  5914                           
  5915 ;; *************** function _I2C1_SetDataCompleteCallback *****************
  5916 ;; Defined at:
  5917 ;;		line 274 in file "mcc_generated_files/i2c1_master.c"
  5918 ;; Parameters:    Size  Location     Type
  5919 ;;  cb              2    4[COMRAM] PTR FTN(PTR void ,)enum 
  5920 ;;		 -> NULL(1), rdBlkRegCompleteHandler@i2c_simple_master$F700(1), wr2RegCompleteHandler@i2c_simple_master$F694(1), rd2
      +RegCompleteHandler@i2c_simple_master$F688(1), 
  5921 ;;		 -> rd1RegCompleteHandler@i2c_simple_master$F680(1), wr1RegCompleteHandler@i2c_simple_master$F670(1), rdBlkRegComple
      +teHandler(1), wr2RegCompleteHandler(1), 
  5922 ;;		 -> wr1RegCompleteHandler(1), rd2RegCompleteHandler(1), rd1RegCompleteHandler(1), 
  5923 ;;  ptr             1    6[COMRAM] PTR void 
  5924 ;;		 -> i2c_readDataBlock@d(4), i2c_write2ByteRegister@data(2), i2c_read2ByteRegister@result(2), i2c_read1ByteRegister@d
      +2(1), 
  5925 ;;		 -> i2c_write1ByteRegister@data(1), I2C1_ReadDataBlock@bufferBlock(4), I2C1_Write2ByteRegister@data(2), I2C1_Write1B
      +yteRegister@data(1), 
  5926 ;;		 -> I2C1_Read2ByteRegister@returnValue(2), NULL(0), I2C1_Read1ByteRegister@returnValue(1), 
  5927 ;; Auto vars:     Size  Location     Type
  5928 ;;		None
  5929 ;; Return value:  Size  Location     Type
  5930 ;;                  1    wreg      void 
  5931 ;; Registers used:
  5932 ;;		wreg, fsr2l, fsr2h, status,2, status,0, prodl, prodh, cstack
  5933 ;; Tracked objects:
  5934 ;;		On entry : 0/0
  5935 ;;		On exit  : 0/0
  5936 ;;		Unchanged: 0/0
  5937 ;; Data sizes:     COMRAM   BANK0   BANK1   BANK2   BANK3   BANK4   BANK5   BANK6   BANK7
  5938 ;;      Params:         3       0       0       0       0       0       0       0       0
  5939 ;;      Locals:         0       0       0       0       0       0       0       0       0
  5940 ;;      Temps:          0       0       0       0       0       0       0       0       0
  5941 ;;      Totals:         3       0       0       0       0       0       0       0       0
  5942 ;;Total ram usage:        3 bytes
  5943 ;; Hardware stack levels used: 1
  5944 ;; Hardware stack levels required when called: 1
  5945 ;; This function calls:
  5946 ;;		_I2C1_SetCallback
  5947 ;; This function is called by:
  5948 ;;		_rd1RegCompleteHandler
  5949 ;;		_rd2RegCompleteHandler
  5950 ;;		_wr1RegCompleteHandler
  5951 ;;		_wr2RegCompleteHandler
  5952 ;;		_rdBlkRegCompleteHandler
  5953 ;;		_wr1RegCompleteHandler@i2c_simple_master$F670
  5954 ;;		_rd1RegCompleteHandler@i2c_simple_master$F680
  5955 ;;		_rd2RegCompleteHandler@i2c_simple_master$F688
  5956 ;;		_wr2RegCompleteHandler@i2c_simple_master$F694
  5957 ;;		_rdBlkRegCompleteHandler@i2c_simple_master$F700
  5958 ;;		_I2C1_Read1ByteRegister
  5959 ;;		_I2C1_Read2ByteRegister
  5960 ;;		_I2C1_Write1ByteRegister
  5961 ;;		_I2C1_Write2ByteRegister
  5962 ;;		_I2C1_ReadDataBlock
  5963 ;;		_i2c_write1ByteRegister
  5964 ;;		_i2c_read1ByteRegister
  5965 ;;		_i2c_read2ByteRegister
  5966 ;;		_i2c_write2ByteRegister
  5967 ;;		_i2c_readDataBlock
  5968 ;; This function uses a non-reentrant model
  5969 ;;
  5970                           
  5971                           	psect	text53
  5972   001280                     __ptext53:
  5973                           	callstack 0
  5974   001280                     _I2C1_SetDataCompleteCallback:
  5975                           	callstack 19
  5976   001280                     
  5977                           ;mcc_generated_files/i2c1_master.c: 274: void I2C1_SetDataCompleteCallback(i2c1_callback
      +                          _t cb, void *ptr);mcc_generated_files/i2c1_master.c: 275: {;mcc_generated_files/i2c1_mas
      +                          ter.c: 276:     I2C1_SetCallback(I2C1_DATA_COMPLETE, cb, ptr);
  5978   001280  C005  F001         	movff	I2C1_SetDataCompleteCallback@cb,I2C1_SetCallback@cb
  5979   001284  C006  F002         	movff	I2C1_SetDataCompleteCallback@cb+1,I2C1_SetCallback@cb+1
  5980   001288  C007  F003         	movff	I2C1_SetDataCompleteCallback@ptr,I2C1_SetCallback@ptr
  5981   00128C  0E00               	movlw	0
  5982   00128E  ECA8  F007         	call	_I2C1_SetCallback
  5983   001292  0012               	return		;funcret
  5984   001294                     __end_of_I2C1_SetDataCompleteCallback:
  5985                           	callstack 0
  5986                           
  5987 ;; *************** function _I2C1_SetCallback *****************
  5988 ;; Defined at:
  5989 ;;		line 304 in file "mcc_generated_files/i2c1_master.c"
  5990 ;; Parameters:    Size  Location     Type
  5991 ;;  idx             1    wreg     enum E5032
  5992 ;;  cb              2    0[COMRAM] PTR FTN(PTR void ,)enum 
  5993 ;;		 -> NULL(1), rdBlkRegCompleteHandler@i2c_simple_master$F700(1), wr2RegCompleteHandler@i2c_simple_master$F694(1), rd2
      +RegCompleteHandler@i2c_simple_master$F688(1), 
  5994 ;;		 -> rd1RegCompleteHandler@i2c_simple_master$F680(1), wr1RegCompleteHandler@i2c_simple_master$F670(1), rdBlkRegComple
      +teHandler(1), wr2RegCompleteHandler(1), 
  5995 ;;		 -> wr1RegCompleteHandler(1), rd2RegCompleteHandler(1), rd1RegCompleteHandler(1), 
  5996 ;;  ptr             1    2[COMRAM] PTR void 
  5997 ;;		 -> i2c_readDataBlock@d(4), i2c_write2ByteRegister@data(2), i2c_read2ByteRegister@result(2), i2c_read1ByteRegister@d
      +2(1), 
  5998 ;;		 -> i2c_write1ByteRegister@data(1), I2C1_ReadDataBlock@bufferBlock(4), I2C1_Write2ByteRegister@data(2), I2C1_Write1B
      +yteRegister@data(1), 
  5999 ;;		 -> I2C1_Read2ByteRegister@returnValue(2), NULL(0), I2C1_Read1ByteRegister@returnValue(1), 
  6000 ;; Auto vars:     Size  Location     Type
  6001 ;;  idx             1    3[COMRAM] enum E5032
  6002 ;; Return value:  Size  Location     Type
  6003 ;;                  1    wreg      void 
  6004 ;; Registers used:
  6005 ;;		wreg, fsr2l, fsr2h, status,2, status,0, prodl, prodh
  6006 ;; Tracked objects:
  6007 ;;		On entry : 0/0
  6008 ;;		On exit  : 0/0
  6009 ;;		Unchanged: 0/0
  6010 ;; Data sizes:     COMRAM   BANK0   BANK1   BANK2   BANK3   BANK4   BANK5   BANK6   BANK7
  6011 ;;      Params:         3       0       0       0       0       0       0       0       0
  6012 ;;      Locals:         1       0       0       0       0       0       0       0       0
  6013 ;;      Temps:          0       0       0       0       0       0       0       0       0
  6014 ;;      Totals:         4       0       0       0       0       0       0       0       0
  6015 ;;Total ram usage:        4 bytes
  6016 ;; Hardware stack levels used: 1
  6017 ;; This function calls:
  6018 ;;		Nothing
  6019 ;; This function is called by:
  6020 ;;		_I2C1_SetDataCompleteCallback
  6021 ;;		_I2C1_SetWriteCollisionCallback
  6022 ;;		_I2C1_SetAddressNackCallback
  6023 ;;		_I2C1_SetDataNackCallback
  6024 ;;		_I2C1_SetTimeoutCallback
  6025 ;; This function uses a non-reentrant model
  6026 ;;
  6027                           
  6028                           	psect	text54
  6029   000F50                     __ptext54:
  6030                           	callstack 0
  6031   000F50                     _I2C1_SetCallback:
  6032                           	callstack 19
  6033                           
  6034                           ;incstack = 0
  6035                           ;I2C1_SetCallback@idx stored from wreg
  6036   000F50  6E04               	movwf	I2C1_SetCallback@idx^0,c
  6037   000F52                     
  6038                           ;mcc_generated_files/i2c1_master.c: 304: static void I2C1_SetCallback(i2c1_callbackIndex
      +                          _t idx, i2c1_callback_t cb, void *ptr);mcc_generated_files/i2c1_master.c: 305: {;mcc_gen
      +                          erated_files/i2c1_master.c: 306:     if(cb)
  6039   000F52  5001               	movf	I2C1_SetCallback@cb^0,w,c
  6040   000F54  1002               	iorwf	(I2C1_SetCallback@cb+1)^0,w,c
  6041   000F56  B4D8               	btfsc	status,2,c
  6042   000F58  EFB0  F007         	goto	i2u94_41
  6043   000F5C  EFB2  F007         	goto	i2u94_40
  6044   000F60                     i2u94_41:
  6045   000F60  EFC4  F007         	goto	i2l2710
  6046   000F64                     i2u94_40:
  6047   000F64                     
  6048                           ;mcc_generated_files/i2c1_master.c: 307:     {;mcc_generated_files/i2c1_master.c: 308:  
      +                                 I2C1_Status.callbackTable[idx] = cb;
  6049   000F64  5004               	movf	I2C1_SetCallback@idx^0,w,c
  6050   000F66  0D02               	mullw	2
  6051   000F68  50F3               	movf	243,w,c
  6052   000F6A  0F80               	addlw	low _I2C1_Status
  6053   000F6C  6ED9               	movwf	fsr2l,c
  6054   000F6E  6ADA               	clrf	fsr2h,c
  6055   000F70  C001  FFDE         	movff	I2C1_SetCallback@cb,postinc2
  6056   000F74  C002  FFDD         	movff	I2C1_SetCallback@cb+1,postdec2
  6057   000F78                     
  6058                           ;mcc_generated_files/i2c1_master.c: 309:         I2C1_Status.callbackPayload[idx] = ptr;
  6059   000F78  5004               	movf	I2C1_SetCallback@idx^0,w,c
  6060   000F7A  0F8C               	addlw	low (_I2C1_Status+12)
  6061   000F7C  6ED9               	movwf	fsr2l,c
  6062   000F7E  6ADA               	clrf	fsr2h,c
  6063   000F80  C003  FFDF         	movff	I2C1_SetCallback@ptr,indf2
  6064                           
  6065                           ;mcc_generated_files/i2c1_master.c: 310:     }
  6066   000F84  EFD3  F007         	goto	i2l439
  6067   000F88                     i2l2710:
  6068                           
  6069                           ;mcc_generated_files/i2c1_master.c: 312:     {;mcc_generated_files/i2c1_master.c: 313:  
      +                                 I2C1_Status.callbackTable[idx] = I2C1_CallbackReturnStop;
  6070   000F88  5004               	movf	I2C1_SetCallback@idx^0,w,c
  6071   000F8A  0D02               	mullw	2
  6072   000F8C  50F3               	movf	243,w,c
  6073   000F8E  0F80               	addlw	low _I2C1_Status
  6074   000F90  6ED9               	movwf	fsr2l,c
  6075   000F92  6ADA               	clrf	fsr2h,c
  6076   000F94  0E60               	movlw	low _I2C1_CallbackReturnStop
  6077   000F96  6EDE               	movwf	postinc2,c
  6078   000F98  0E13               	movlw	high _I2C1_CallbackReturnStop
  6079   000F9A  6EDD               	movwf	postdec2,c
  6080   000F9C                     
  6081                           ;mcc_generated_files/i2c1_master.c: 314:         I2C1_Status.callbackPayload[idx] = ((vo
      +                          id*)0);
  6082   000F9C  5004               	movf	I2C1_SetCallback@idx^0,w,c
  6083   000F9E  0F8C               	addlw	low (_I2C1_Status+12)
  6084   000FA0  6ED9               	movwf	fsr2l,c
  6085   000FA2  6ADA               	clrf	fsr2h,c
  6086   000FA4  6ADF               	clrf	indf2,c
  6087   000FA6                     i2l439:
  6088   000FA6  0012               	return		;funcret
  6089   000FA8                     __end_of_I2C1_SetCallback:
  6090                           	callstack 0
  6091                           
  6092 ;; *************** function _I2C1_SetBuffer *****************
  6093 ;; Defined at:
  6094 ;;		line 264 in file "mcc_generated_files/i2c1_master.c"
  6095 ;; Parameters:    Size  Location     Type
  6096 ;;  buffer          2    0[COMRAM] PTR void 
  6097 ;;		 -> I2C1_Read1ByteRegister@returnValue$data(2), I2C1_Read2ByteRegister@returnValue$data(2), I2C1_Write1ByteRegister@
      +data$data(2), I2C1_Write2ByteRegister@data$data(2), 
  6098 ;;		 -> i2c_write1ByteRegister@data$data(2), i2c_read1ByteRegister@d2$data(2), i2c_read2ByteRegister@result$data(2), i2c
      +_write2ByteRegister@data$data(2), 
  6099 ;;		 -> pcf8574_write_wEnable@writeBuffer(3), RAM(2047), i2c_readDataBlock@reg(1), i2c_readDataBlock@d(4), 
  6100 ;;		 -> d$data(2), i2c_write2ByteRegister@reg(1), i2c_write2ByteRegister@data(2), i2c_read2ByteRegister@reg(1), 
  6101 ;;		 -> i2c_read2ByteRegister@result(2), i2c_read1ByteRegister@reg(1), i2c_read1ByteRegister@d2(1), i2c_write1ByteRegist
      +er@reg(1), 
  6102 ;;		 -> i2c_write1ByteRegister@data(1), I2C1_ReadDataBlock@reg(1), I2C1_ReadDataBlock@bufferBlock(4), bufferBlock$data(2
      +), 
  6103 ;;		 -> I2C1_Write2ByteRegister@reg(1), I2C1_Write2ByteRegister@data(2), I2C1_Write1ByteRegister@reg(1), I2C1_Write1Byte
      +Register@data(1), 
  6104 ;;		 -> I2C1_Read2ByteRegister@reg(1), I2C1_Read2ByteRegister@returnValue(2), NULL(0), I2C1_Read1ByteRegister@reg(1), 
  6105 ;;		 -> I2C1_Read1ByteRegister@returnValue(1), 
  6106 ;;  bufferSize      2    2[COMRAM] unsigned int 
  6107 ;; Auto vars:     Size  Location     Type
  6108 ;;		None
  6109 ;; Return value:  Size  Location     Type
  6110 ;;                  1    wreg      void 
  6111 ;; Registers used:
  6112 ;;		wreg, status,2, status,0
  6113 ;; Tracked objects:
  6114 ;;		On entry : 0/0
  6115 ;;		On exit  : 0/0
  6116 ;;		Unchanged: 0/0
  6117 ;; Data sizes:     COMRAM   BANK0   BANK1   BANK2   BANK3   BANK4   BANK5   BANK6   BANK7
  6118 ;;      Params:         4       0       0       0       0       0       0       0       0
  6119 ;;      Locals:         0       0       0       0       0       0       0       0       0
  6120 ;;      Temps:          0       0       0       0       0       0       0       0       0
  6121 ;;      Totals:         4       0       0       0       0       0       0       0       0
  6122 ;;Total ram usage:        4 bytes
  6123 ;; Hardware stack levels used: 1
  6124 ;; This function calls:
  6125 ;;		Nothing
  6126 ;; This function is called by:
  6127 ;;		_rd1RegCompleteHandler
  6128 ;;		_rd2RegCompleteHandler
  6129 ;;		_wr1RegCompleteHandler
  6130 ;;		_wr2RegCompleteHandler
  6131 ;;		_rdBlkRegCompleteHandler
  6132 ;;		_wr1RegCompleteHandler@i2c_simple_master$F670
  6133 ;;		_rd1RegCompleteHandler@i2c_simple_master$F680
  6134 ;;		_rd2RegCompleteHandler@i2c_simple_master$F688
  6135 ;;		_wr2RegCompleteHandler@i2c_simple_master$F694
  6136 ;;		_rdBlkRegCompleteHandler@i2c_simple_master$F700
  6137 ;;		_I2C1_Read1ByteRegister
  6138 ;;		_I2C1_Read2ByteRegister
  6139 ;;		_I2C1_Write1ByteRegister
  6140 ;;		_I2C1_Write2ByteRegister
  6141 ;;		_I2C1_WriteNBytes
  6142 ;;		_I2C1_ReadNBytes
  6143 ;;		_I2C1_ReadDataBlock
  6144 ;;		_i2c_write1ByteRegister
  6145 ;;		_i2c_writeNBytes
  6146 ;;		_i2c_read1ByteRegister
  6147 ;;		_i2c_read2ByteRegister
  6148 ;;		_i2c_write2ByteRegister
  6149 ;;		_i2c_readDataBlock
  6150 ;;		_i2c_readNBytes
  6151 ;; This function uses a non-reentrant model
  6152 ;;
  6153                           
  6154                           	psect	text55
  6155   001218                     __ptext55:
  6156                           	callstack 0
  6157   001218                     _I2C1_SetBuffer:
  6158                           	callstack 20
  6159   001218                     
  6160                           ;mcc_generated_files/i2c1_master.c: 264: void I2C1_SetBuffer(void *buffer, size_t buffer
      +                          Size);mcc_generated_files/i2c1_master.c: 265: {;mcc_generated_files/i2c1_master.c: 266: 
      +                              if(I2C1_Status.bufferFree)
  6161   001218  0100               	movlb	0	; () banked
  6162   00121A  A79D               	btfss	(_I2C1_Status+29)& (0+255),3,b
  6163   00121C  EF12  F009         	goto	i2u95_41
  6164   001220  EF14  F009         	goto	i2u95_40
  6165   001224                     i2u95_41:
  6166   001224  EF1D  F009         	goto	i2l416
  6167   001228                     i2u95_40:
  6168   001228                     
  6169                           ; BSR set to: 0
  6170                           ;mcc_generated_files/i2c1_master.c: 267:     {;mcc_generated_files/i2c1_master.c: 268:  
      +                                 I2C1_Status.data_ptr = buffer;
  6171   001228  C001  F097         	movff	I2C1_SetBuffer@buffer,_I2C1_Status+23
  6172   00122C  C002  F098         	movff	I2C1_SetBuffer@buffer+1,_I2C1_Status+24
  6173   001230                     
  6174                           ; BSR set to: 0
  6175                           ;mcc_generated_files/i2c1_master.c: 269:         I2C1_Status.data_length = bufferSize;
  6176   001230  C003  F099         	movff	I2C1_SetBuffer@bufferSize,_I2C1_Status+25
  6177   001234  C004  F09A         	movff	I2C1_SetBuffer@bufferSize+1,_I2C1_Status+26
  6178   001238                     
  6179                           ; BSR set to: 0
  6180                           ;mcc_generated_files/i2c1_master.c: 270:         I2C1_Status.bufferFree = 0;
  6181   001238  979D               	bcf	(_I2C1_Status+29)& (0+255),3,b
  6182   00123A                     i2l416:
  6183                           
  6184                           ; BSR set to: 0
  6185   00123A  0012               	return		;funcret
  6186   00123C                     __end_of_I2C1_SetBuffer:
  6187                           	callstack 0
  6188                           
  6189 ;; *************** function _I2C1_MasterStop *****************
  6190 ;; Defined at:
  6191 ;;		line 594 in file "mcc_generated_files/i2c1_master.c"
  6192 ;; Parameters:    Size  Location     Type
  6193 ;;		None
  6194 ;; Auto vars:     Size  Location     Type
  6195 ;;		None
  6196 ;; Return value:  Size  Location     Type
  6197 ;;                  1    wreg      void 
  6198 ;; Registers used:
  6199 ;;		None
  6200 ;; Tracked objects:
  6201 ;;		On entry : 0/0
  6202 ;;		On exit  : 0/0
  6203 ;;		Unchanged: 0/0
  6204 ;; Data sizes:     COMRAM   BANK0   BANK1   BANK2   BANK3   BANK4   BANK5   BANK6   BANK7
  6205 ;;      Params:         0       0       0       0       0       0       0       0       0
  6206 ;;      Locals:         0       0       0       0       0       0       0       0       0
  6207 ;;      Temps:          0       0       0       0       0       0       0       0       0
  6208 ;;      Totals:         0       0       0       0       0       0       0       0       0
  6209 ;;Total ram usage:        0 bytes
  6210 ;; Hardware stack levels used: 1
  6211 ;; This function calls:
  6212 ;;		Nothing
  6213 ;; This function is called by:
  6214 ;;		_I2C1_DO_SEND_STOP
  6215 ;; This function uses a non-reentrant model
  6216 ;;
  6217                           
  6218                           	psect	text56
  6219   001364                     __ptext56:
  6220                           	callstack 0
  6221   001364                     _I2C1_MasterStop:
  6222                           	callstack 20
  6223   001364                     
  6224                           ;mcc_generated_files/i2c1_master.c: 596:     SSP1CON2bits.PEN = 1;
  6225   001364  84C5               	bsf	197,2,c	;volatile
  6226   001366  0012               	return		;funcret
  6227   001368                     __end_of_I2C1_MasterStop:
  6228                           	callstack 0
  6229                           
  6230 ;; *************** function _I2C1_MasterEnableRestart *****************
  6231 ;; Defined at:
  6232 ;;		line 574 in file "mcc_generated_files/i2c1_master.c"
  6233 ;; Parameters:    Size  Location     Type
  6234 ;;		None
  6235 ;; Auto vars:     Size  Location     Type
  6236 ;;		None
  6237 ;; Return value:  Size  Location     Type
  6238 ;;                  1    wreg      void 
  6239 ;; Registers used:
  6240 ;;		None
  6241 ;; Tracked objects:
  6242 ;;		On entry : 0/0
  6243 ;;		On exit  : 0/0
  6244 ;;		Unchanged: 0/0
  6245 ;; Data sizes:     COMRAM   BANK0   BANK1   BANK2   BANK3   BANK4   BANK5   BANK6   BANK7
  6246 ;;      Params:         0       0       0       0       0       0       0       0       0
  6247 ;;      Locals:         0       0       0       0       0       0       0       0       0
  6248 ;;      Temps:          0       0       0       0       0       0       0       0       0
  6249 ;;      Totals:         0       0       0       0       0       0       0       0       0
  6250 ;;Total ram usage:        0 bytes
  6251 ;; Hardware stack levels used: 1
  6252 ;; This function calls:
  6253 ;;		Nothing
  6254 ;; This function is called by:
  6255 ;;		_I2C1_DO_SEND_RESTART_READ
  6256 ;;		_I2C1_DO_SEND_RESTART_WRITE
  6257 ;;		_I2C1_DO_SEND_RESTART
  6258 ;;		_I2C1_DO_RX_EMPTY
  6259 ;; This function uses a non-reentrant model
  6260 ;;
  6261                           
  6262                           	psect	text57
  6263   001368                     __ptext57:
  6264                           	callstack 0
  6265   001368                     _I2C1_MasterEnableRestart:
  6266                           	callstack 20
  6267   001368                     
  6268                           ;mcc_generated_files/i2c1_master.c: 576:     SSP1CON2bits.RSEN = 1;
  6269   001368  82C5               	bsf	197,1,c	;volatile
  6270   00136A  0012               	return		;funcret
  6271   00136C                     __end_of_I2C1_MasterEnableRestart:
  6272                           	callstack 0
  6273                           
  6274                           	psect	rparam
  6275   000001                     ___rparam_used  equ	1
  6276   000000                     ___param_bank   equ	0
  6277   000000                     __Lparam        equ	__Lrparam
  6278   000000                     __Hparam        equ	__Hrparam
  6279                           
  6280                           	psect	temp
  6281   000049                     btemp:
  6282                           	callstack 0
  6283   000049                     	ds	1
  6284   000049                     int$flags       set	btemp
  6285   00004A                     wtemp8          set	btemp+1
  6286   00004A                     ttemp5          set	btemp+1
  6287   00004D                     ttemp6          set	btemp+4
  6288   000051                     ttemp7          set	btemp+8
  6289                           
  6290                           	psect	config
  6291                           
  6292                           ;Config register CONFIG1L @ 0x300000
  6293                           ;	PLL Selection
  6294                           ;	PLLSEL = PLL3X, 3x clock multiplier
  6295                           ;	PLL Enable Configuration bit
  6296                           ;	CFGPLLEN = ON, PLL Enabled
  6297                           ;	CPU System Clock Postscaler
  6298                           ;	CPUDIV = NOCLKDIV, CPU uses system clock (no divide)
  6299                           ;	Low Speed USB mode with 48 MHz system clock
  6300                           ;	LS48MHZ = SYS48X8, System clock at 48 MHz, USB clock divider is set to 8
  6301   300000                     	org	3145728
  6302   300000  23                 	db	35
  6303                           
  6304                           ;Config register CONFIG1H @ 0x300001
  6305                           ;	Oscillator Selection
  6306                           ;	FOSC = INTOSCIO, Internal oscillator
  6307                           ;	Primary Oscillator Shutdown
  6308                           ;	PCLKEN = ON, Primary oscillator enabled
  6309                           ;	Fail-Safe Clock Monitor
  6310                           ;	FCMEN = OFF, Fail-Safe Clock Monitor disabled
  6311                           ;	Internal/External Oscillator Switchover
  6312                           ;	IESO = OFF, Oscillator Switchover mode disabled
  6313   300001                     	org	3145729
  6314   300001  28                 	db	40
  6315                           
  6316                           ;Config register CONFIG2L @ 0x300002
  6317                           ;	Power-up Timer Enable
  6318                           ;	nPWRTEN = OFF, Power up timer disabled
  6319                           ;	Brown-out Reset Enable
  6320                           ;	BOREN = SBORDIS, BOR enabled in hardware (SBOREN is ignored)
  6321                           ;	Brown-out Reset Voltage
  6322                           ;	BORV = 190, BOR set to 1.9V nominal
  6323                           ;	Low-Power Brown-out Reset
  6324                           ;	nLPBOR = OFF, Low-Power Brown-out Reset disabled
  6325   300002                     	org	3145730
  6326   300002  5F                 	db	95
  6327                           
  6328                           ;Config register CONFIG2H @ 0x300003
  6329                           ;	Watchdog Timer Enable bits
  6330                           ;	WDTEN = OFF, WDT disabled in hardware (SWDTEN ignored)
  6331                           ;	Watchdog Timer Postscaler
  6332                           ;	WDTPS = 32768, 1:32768
  6333   300003                     	org	3145731
  6334   300003  3C                 	db	60
  6335                           
  6336                           ; Padding undefined space
  6337   300004                     	org	3145732
  6338   300004  FF                 	db	255
  6339                           
  6340                           ;Config register CONFIG3H @ 0x300005
  6341                           ;	CCP2 MUX bit
  6342                           ;	CCP2MX = RC1, CCP2 input/output is multiplexed with RC1
  6343                           ;	PORTB A/D Enable bit
  6344                           ;	PBADEN = ON, PORTB<5:0> pins are configured as analog input channels on Reset
  6345                           ;	Timer3 Clock Input MUX bit
  6346                           ;	T3CMX = RC0, T3CKI function is on RC0
  6347                           ;	SDO Output MUX bit
  6348                           ;	SDOMX = RB3, SDO function is on RB3
  6349                           ;	Master Clear Reset Pin Enable
  6350                           ;	MCLRE = ON, MCLR pin enabled; RE3 input disabled
  6351   300005                     	org	3145733
  6352   300005  D3                 	db	211
  6353                           
  6354                           ;Config register CONFIG4L @ 0x300006
  6355                           ;	Stack Full/Underflow Reset
  6356                           ;	STVREN = ON, Stack full/underflow will cause Reset
  6357                           ;	Single-Supply ICSP Enable bit
  6358                           ;	LVP = ON, Single-Supply ICSP enabled if MCLRE is also 1
  6359                           ;	Dedicated In-Circuit Debug/Programming Port Enable
  6360                           ;	ICPRT = OFF, ICPORT disabled
  6361                           ;	Extended Instruction Set Enable bit
  6362                           ;	XINST = OFF, Instruction set extension and Indexed Addressing mode disabled
  6363                           ;	Background Debugger Enable bit
  6364                           ;	DEBUG = OFF, Background debugger disabled, RB6 and RB7 configured as general purpose I
      +                          /O pins
  6365   300006                     	org	3145734
  6366   300006  85                 	db	133
  6367                           
  6368                           ; Padding undefined space
  6369   300007                     	org	3145735
  6370   300007  FF                 	db	255
  6371                           
  6372                           ;Config register CONFIG5L @ 0x300008
  6373                           ;	Block 0 Code Protect
  6374                           ;	CP0 = OFF, Block 0 is not code-protected
  6375                           ;	Block 1 Code Protect
  6376                           ;	CP1 = OFF, Block 1 is not code-protected
  6377                           ;	Block 2 Code Protect
  6378                           ;	CP2 = OFF, Block 2 is not code-protected
  6379                           ;	Block 3 Code Protect
  6380                           ;	CP3 = OFF, Block 3 is not code-protected
  6381   300008                     	org	3145736
  6382   300008  0F                 	db	15
  6383                           
  6384                           ;Config register CONFIG5H @ 0x300009
  6385                           ;	Boot Block Code Protect
  6386                           ;	CPB = OFF, Boot block is not code-protected
  6387                           ;	Data EEPROM Code Protect
  6388                           ;	CPD = OFF, Data EEPROM is not code-protected
  6389   300009                     	org	3145737
  6390   300009  C0                 	db	192
  6391                           
  6392                           ;Config register CONFIG6L @ 0x30000A
  6393                           ;	Block 0 Write Protect
  6394                           ;	WRT0 = OFF, Block 0 (0800-1FFFh) is not write-protected
  6395                           ;	Block 1 Write Protect
  6396                           ;	WRT1 = OFF, Block 1 (2000-3FFFh) is not write-protected
  6397                           ;	Block 2 Write Protect
  6398                           ;	WRT2 = OFF, Block 2 (04000-5FFFh) is not write-protected
  6399                           ;	Block 3 Write Protect
  6400                           ;	WRT3 = OFF, Block 3 (06000-7FFFh) is not write-protected
  6401   30000A                     	org	3145738
  6402   30000A  0F                 	db	15
  6403                           
  6404                           ;Config register CONFIG6H @ 0x30000B
  6405                           ;	Configuration Registers Write Protect
  6406                           ;	WRTC = OFF, Configuration registers (300000-3000FFh) are not write-protected
  6407                           ;	Boot Block Write Protect
  6408                           ;	WRTB = OFF, Boot block (0000-7FFh) is not write-protected
  6409                           ;	Data EEPROM Write Protect
  6410                           ;	WRTD = OFF, Data EEPROM is not write-protected
  6411   30000B                     	org	3145739
  6412   30000B  E0                 	db	224
  6413                           
  6414                           ;Config register CONFIG7L @ 0x30000C
  6415                           ;	Block 0 Table Read Protect
  6416                           ;	EBTR0 = OFF, Block 0 is not protected from table reads executed in other blocks
  6417                           ;	Block 1 Table Read Protect
  6418                           ;	EBTR1 = OFF, Block 1 is not protected from table reads executed in other blocks
  6419                           ;	Block 2 Table Read Protect
  6420                           ;	EBTR2 = OFF, Block 2 is not protected from table reads executed in other blocks
  6421                           ;	Block 3 Table Read Protect
  6422                           ;	EBTR3 = OFF, Block 3 is not protected from table reads executed in other blocks
  6423   30000C                     	org	3145740
  6424   30000C  0F                 	db	15
  6425                           
  6426                           ;Config register CONFIG7H @ 0x30000D
  6427                           ;	Boot Block Table Read Protect
  6428                           ;	EBTRB = OFF, Boot block is not protected from table reads executed in other blocks
  6429   30000D                     	org	3145741
  6430   30000D  40                 	db	64
  6431                           tosu	equ	0xFFF
  6432                           tosh	equ	0xFFE
  6433                           tosl	equ	0xFFD
  6434                           stkptr	equ	0xFFC
  6435                           pclatu	equ	0xFFB
  6436                           pclath	equ	0xFFA
  6437                           pcl	equ	0xFF9
  6438                           tblptru	equ	0xFF8
  6439                           tblptrh	equ	0xFF7
  6440                           tblptrl	equ	0xFF6
  6441                           tablat	equ	0xFF5
  6442                           prodh	equ	0xFF4
  6443                           prodl	equ	0xFF3
  6444                           indf0	equ	0xFEF
  6445                           postinc0	equ	0xFEE
  6446                           postdec0	equ	0xFED
  6447                           preinc0	equ	0xFEC
  6448                           plusw0	equ	0xFEB
  6449                           fsr0h	equ	0xFEA
  6450                           fsr0l	equ	0xFE9
  6451                           wreg	equ	0xFE8
  6452                           indf1	equ	0xFE7
  6453                           postinc1	equ	0xFE6
  6454                           postdec1	equ	0xFE5
  6455                           preinc1	equ	0xFE4
  6456                           plusw1	equ	0xFE3
  6457                           fsr1h	equ	0xFE2
  6458                           fsr1l	equ	0xFE1
  6459                           bsr	equ	0xFE0
  6460                           indf2	equ	0xFDF
  6461                           postinc2	equ	0xFDE
  6462                           postdec2	equ	0xFDD
  6463                           preinc2	equ	0xFDC
  6464                           plusw2	equ	0xFDB
  6465                           fsr2h	equ	0xFDA
  6466                           fsr2l	equ	0xFD9
  6467                           status	equ	0xFD8

Data Sizes:
    Strings     3
    Constant    32
    Data        0
    BSS         71
    Persistent  0
    Stack       0

Auto Spaces:
    Space          Size  Autos    Used
    COMRAM           94     63      72
    BANK0           160     16      78
    BANK1           256      0       0
    BANK2           256      0       0
    BANK3           256      0       0
    BANK4           256      0       0
    BANK5           256      0       0
    BANK6           256      0       0
    BANK7           256      0       0

Pointer List with Targets:

    bufferBlock$data	PTR unsigned char  size(2) Largest target is 0

    cb$0	PTR void  size(1) Largest target is 4
		 -> I2C1_Read1ByteRegister@returnValue(COMRAM[1]), I2C1_Read2ByteRegister@returnValue(COMRAM[2]), I2C1_ReadDataBlock@bufferBlock(COMRAM[4]), I2C1_Write1ByteRegister@data(COMRAM[1]), 
		 -> I2C1_Write2ByteRegister@data(COMRAM[2]), i2c_read1ByteRegister@d2(COMRAM[1]), i2c_read2ByteRegister@result(COMRAM[2]), i2c_readDataBlock@d(COMRAM[4]), 
		 -> i2c_write1ByteRegister@data(COMRAM[1]), i2c_write2ByteRegister@data(COMRAM[2]), NULL(NULL[0]), 

    cb$0	PTR void  size(1) Largest target is 4
		 -> I2C1_Read1ByteRegister@returnValue(COMRAM[1]), I2C1_Read2ByteRegister@returnValue(COMRAM[2]), I2C1_ReadDataBlock@bufferBlock(COMRAM[4]), I2C1_Write1ByteRegister@data(COMRAM[1]), 
		 -> I2C1_Write2ByteRegister@data(COMRAM[2]), i2c_read1ByteRegister@d2(COMRAM[1]), i2c_read2ByteRegister@result(COMRAM[2]), i2c_readDataBlock@d(COMRAM[4]), 
		 -> i2c_write1ByteRegister@data(COMRAM[1]), i2c_write2ByteRegister@data(COMRAM[2]), NULL(NULL[0]), 

    d$data	PTR unsigned char  size(2) Largest target is 0

    f$.$buffer	PTR unsigned char  size(1) Largest target is 10
		 -> main@Contadorstr(BANK0[10]), 

    f$.$source	PTR const unsigned char  size(2) Largest target is 0

    fputc@fp	PTR struct _IO_FILE size(1) Largest target is 11
		 -> sprintf@f(COMRAM[11]), 

    fputc@fp$.$buffer	PTR unsigned char  size(1) Largest target is 10
		 -> main@Contadorstr(BANK0[10]), 

    fputc@fp$.$source	PTR const unsigned char  size(2) Largest target is 0

    I2C1_CallbackReturnReset@funPtr	PTR void  size(1) Largest target is 4
		 -> I2C1_Read1ByteRegister@returnValue(COMRAM[1]), I2C1_Read2ByteRegister@returnValue(COMRAM[2]), I2C1_ReadDataBlock@bufferBlock(COMRAM[4]), I2C1_Write1ByteRegister@data(COMRAM[1]), 
		 -> I2C1_Write2ByteRegister@data(COMRAM[2]), i2c_read1ByteRegister@d2(COMRAM[1]), i2c_read2ByteRegister@result(COMRAM[2]), i2c_readDataBlock@d(COMRAM[4]), 
		 -> i2c_write1ByteRegister@data(COMRAM[1]), i2c_write2ByteRegister@data(COMRAM[2]), NULL(NULL[0]), 

    I2C1_CallbackReturnStop@funPtr	PTR void  size(1) Largest target is 4
		 -> I2C1_Read1ByteRegister@returnValue(COMRAM[1]), I2C1_Read2ByteRegister@returnValue(COMRAM[2]), I2C1_ReadDataBlock@bufferBlock(COMRAM[4]), I2C1_Write1ByteRegister@data(COMRAM[1]), 
		 -> I2C1_Write2ByteRegister@data(COMRAM[2]), i2c_read1ByteRegister@d2(COMRAM[1]), i2c_read2ByteRegister@result(COMRAM[2]), i2c_readDataBlock@d(COMRAM[4]), 
		 -> i2c_write1ByteRegister@data(COMRAM[1]), i2c_write2ByteRegister@data(COMRAM[2]), NULL(NULL[0]), 

    i2c1_fsmStateTable	const PTR FTN()enum E5014[16] size(2) Largest target is 1
		 -> I2C1_DO_ADDRESS_NACK(), I2C1_DO_IDLE(), I2C1_DO_RCEN(), I2C1_DO_RESET(), 
		 -> I2C1_DO_RX(), I2C1_DO_RX_ACK(), I2C1_DO_RX_NACK_RESTART(), I2C1_DO_RX_NACK_STOP(), 
		 -> I2C1_DO_SEND_ADR_READ(), I2C1_DO_SEND_ADR_WRITE(), I2C1_DO_SEND_RESTART(), I2C1_DO_SEND_RESTART_READ(), 
		 -> I2C1_DO_SEND_RESTART_WRITE(), I2C1_DO_SEND_STOP(), I2C1_DO_TX(), I2C1_DO_TX_EMPTY(), 

    I2C1_Read1ByteRegister@returnValue$data	PTR unsigned char  size(2) Largest target is 0

    I2C1_Read2ByteRegister@returnValue$data	PTR unsigned char  size(2) Largest target is 0

    I2C1_SetBuffer@buffer	PTR void  size(2) Largest target is 2047
		 -> bufferBlock$data(COMRAM[2]), d$data(COMRAM[2]), I2C1_Read1ByteRegister@reg(COMRAM[1]), I2C1_Read1ByteRegister@returnValue(COMRAM[1]), 
		 -> I2C1_Read1ByteRegister@returnValue$data(COMRAM[2]), I2C1_Read2ByteRegister@reg(COMRAM[1]), I2C1_Read2ByteRegister@returnValue(COMRAM[2]), I2C1_Read2ByteRegister@returnValue$data(COMRAM[2]), 
		 -> I2C1_ReadDataBlock@bufferBlock(COMRAM[4]), I2C1_ReadDataBlock@reg(COMRAM[1]), I2C1_Write1ByteRegister@data(COMRAM[1]), I2C1_Write1ByteRegister@data$data(COMRAM[2]), 
		 -> I2C1_Write1ByteRegister@reg(COMRAM[1]), I2C1_Write2ByteRegister@data(COMRAM[2]), I2C1_Write2ByteRegister@data$data(COMRAM[2]), I2C1_Write2ByteRegister@reg(COMRAM[1]), 
		 -> i2c_read1ByteRegister@d2(COMRAM[1]), i2c_read1ByteRegister@d2$data(COMRAM[2]), i2c_read1ByteRegister@reg(COMRAM[1]), i2c_read2ByteRegister@reg(COMRAM[1]), 
		 -> i2c_read2ByteRegister@result(COMRAM[2]), i2c_read2ByteRegister@result$data(COMRAM[2]), i2c_readDataBlock@d(COMRAM[4]), i2c_readDataBlock@reg(COMRAM[1]), 
		 -> i2c_write1ByteRegister@data(COMRAM[1]), i2c_write1ByteRegister@data$data(COMRAM[2]), i2c_write1ByteRegister@reg(COMRAM[1]), i2c_write2ByteRegister@data(COMRAM[2]), 
		 -> i2c_write2ByteRegister@data$data(COMRAM[2]), i2c_write2ByteRegister@reg(COMRAM[1]), pcf8574_write_wEnable@writeBuffer(COMRAM[3]), RAM(DATA[2047]), 
		 -> NULL(NULL[0]), 

    I2C1_SetCallback@cb	PTR FTN(PTR void ,)enum E363 size(2) Largest target is 1
		 -> rd1RegCompleteHandler(), rd1RegCompleteHandler@i2c_simple_master$F680(), rd2RegCompleteHandler(), rd2RegCompleteHandler@i2c_simple_master$F688(), 
		 -> rdBlkRegCompleteHandler(), rdBlkRegCompleteHandler@i2c_simple_master$F700(), wr1RegCompleteHandler(), wr1RegCompleteHandler@i2c_simple_master$F670(), 
		 -> wr2RegCompleteHandler(), wr2RegCompleteHandler@i2c_simple_master$F694(), NULL(), 

    I2C1_SetCallback@ptr	PTR void  size(1) Largest target is 4
		 -> I2C1_Read1ByteRegister@returnValue(COMRAM[1]), I2C1_Read2ByteRegister@returnValue(COMRAM[2]), I2C1_ReadDataBlock@bufferBlock(COMRAM[4]), I2C1_Write1ByteRegister@data(COMRAM[1]), 
		 -> I2C1_Write2ByteRegister@data(COMRAM[2]), i2c_read1ByteRegister@d2(COMRAM[1]), i2c_read2ByteRegister@result(COMRAM[2]), i2c_readDataBlock@d(COMRAM[4]), 
		 -> i2c_write1ByteRegister@data(COMRAM[1]), i2c_write2ByteRegister@data(COMRAM[2]), NULL(NULL[0]), 

    I2C1_SetDataCompleteCallback@cb	PTR FTN(PTR void ,)enum E363 size(2) Largest target is 1
		 -> rd1RegCompleteHandler(), rd1RegCompleteHandler@i2c_simple_master$F680(), rd2RegCompleteHandler(), rd2RegCompleteHandler@i2c_simple_master$F688(), 
		 -> rdBlkRegCompleteHandler(), rdBlkRegCompleteHandler@i2c_simple_master$F700(), wr1RegCompleteHandler(), wr1RegCompleteHandler@i2c_simple_master$F670(), 
		 -> wr2RegCompleteHandler(), wr2RegCompleteHandler@i2c_simple_master$F694(), NULL(), 

    I2C1_SetDataCompleteCallback@ptr	PTR void  size(1) Largest target is 4
		 -> I2C1_Read1ByteRegister@returnValue(COMRAM[1]), I2C1_Read2ByteRegister@returnValue(COMRAM[2]), I2C1_ReadDataBlock@bufferBlock(COMRAM[4]), I2C1_Write1ByteRegister@data(COMRAM[1]), 
		 -> I2C1_Write2ByteRegister@data(COMRAM[2]), i2c_read1ByteRegister@d2(COMRAM[1]), i2c_read2ByteRegister@result(COMRAM[2]), i2c_readDataBlock@d(COMRAM[4]), 
		 -> i2c_write1ByteRegister@data(COMRAM[1]), i2c_write2ByteRegister@data(COMRAM[2]), NULL(NULL[0]), 

    I2C1_Status$callbackPayload	PTR void [6] size(1) Largest target is 4
		 -> I2C1_Read1ByteRegister@returnValue(COMRAM[1]), I2C1_Read2ByteRegister@returnValue(COMRAM[2]), I2C1_ReadDataBlock@bufferBlock(COMRAM[4]), I2C1_Write1ByteRegister@data(COMRAM[1]), 
		 -> I2C1_Write2ByteRegister@data(COMRAM[2]), i2c_read1ByteRegister@d2(COMRAM[1]), i2c_read2ByteRegister@result(COMRAM[2]), i2c_readDataBlock@d(COMRAM[4]), 
		 -> i2c_write1ByteRegister@data(COMRAM[1]), i2c_write2ByteRegister@data(COMRAM[2]), NULL(NULL[0]), 

    I2C1_Status$callbackTable	PTR FTN(PTR void ,)enum E363[6] size(2) Largest target is 1
		 -> I2C1_CallbackReturnReset(), I2C1_CallbackReturnStop(), rd1RegCompleteHandler(), rd1RegCompleteHandler@i2c_simple_master$F680(), 
		 -> rd2RegCompleteHandler(), rd2RegCompleteHandler@i2c_simple_master$F688(), rdBlkRegCompleteHandler(), rdBlkRegCompleteHandler@i2c_simple_master$F700(), 
		 -> wr1RegCompleteHandler(), wr1RegCompleteHandler@i2c_simple_master$F670(), wr2RegCompleteHandler(), wr2RegCompleteHandler@i2c_simple_master$F694(), 
		 -> NULL(), 

    I2C1_Status$data_ptr	PTR unsigned char  size(2) Largest target is 2047
		 -> bufferBlock$data(COMRAM[2]), d$data(COMRAM[2]), I2C1_Read1ByteRegister@reg(COMRAM[1]), I2C1_Read1ByteRegister@returnValue(COMRAM[1]), 
		 -> I2C1_Read1ByteRegister@returnValue$data(COMRAM[2]), I2C1_Read2ByteRegister@reg(COMRAM[1]), I2C1_Read2ByteRegister@returnValue(COMRAM[2]), I2C1_Read2ByteRegister@returnValue$data(COMRAM[2]), 
		 -> I2C1_ReadDataBlock@bufferBlock(COMRAM[4]), I2C1_ReadDataBlock@reg(COMRAM[1]), I2C1_Write1ByteRegister@data(COMRAM[1]), I2C1_Write1ByteRegister@data$data(COMRAM[2]), 
		 -> I2C1_Write1ByteRegister@reg(COMRAM[1]), I2C1_Write2ByteRegister@data(COMRAM[2]), I2C1_Write2ByteRegister@data$data(COMRAM[2]), I2C1_Write2ByteRegister@reg(COMRAM[1]), 
		 -> i2c_read1ByteRegister@d2(COMRAM[1]), i2c_read1ByteRegister@d2$data(COMRAM[2]), i2c_read1ByteRegister@reg(COMRAM[1]), i2c_read2ByteRegister@reg(COMRAM[1]), 
		 -> i2c_read2ByteRegister@result(COMRAM[2]), i2c_read2ByteRegister@result$data(COMRAM[2]), i2c_readDataBlock@d(COMRAM[4]), i2c_readDataBlock@reg(COMRAM[1]), 
		 -> i2c_write1ByteRegister@data(COMRAM[1]), i2c_write1ByteRegister@data$data(COMRAM[2]), i2c_write1ByteRegister@reg(COMRAM[1]), i2c_write2ByteRegister@data(COMRAM[2]), 
		 -> i2c_write2ByteRegister@data$data(COMRAM[2]), i2c_write2ByteRegister@reg(COMRAM[1]), pcf8574_write_wEnable@writeBuffer(COMRAM[3]), RAM(DATA[2047]), 
		 -> NULL(NULL[0]), 

    I2C1_Write1ByteRegister@data$data	PTR unsigned char  size(2) Largest target is 0

    I2C1_Write2ByteRegister@data$data	PTR unsigned char  size(2) Largest target is 0

    i2c_read1ByteRegister@d2$data	PTR unsigned char  size(2) Largest target is 0

    i2c_read2ByteRegister@result$data	PTR unsigned char  size(2) Largest target is 0

    i2c_write1ByteRegister@data$data	PTR unsigned char  size(2) Largest target is 0

    i2c_write2ByteRegister@data$data	PTR unsigned char  size(2) Largest target is 0

    MSSP1_InterruptHandler	PTR FTN()void  size(2) Largest target is 1
		 -> I2C1_MasterIsr(), NULL(), 

    NULL$0	PTR void  size(1) Largest target is 4
		 -> I2C1_Read1ByteRegister@returnValue(COMRAM[1]), I2C1_Read2ByteRegister@returnValue(COMRAM[2]), I2C1_ReadDataBlock@bufferBlock(COMRAM[4]), I2C1_Write1ByteRegister@data(COMRAM[1]), 
		 -> I2C1_Write2ByteRegister@data(COMRAM[2]), i2c_read1ByteRegister@d2(COMRAM[1]), i2c_read2ByteRegister@result(COMRAM[2]), i2c_readDataBlock@d(COMRAM[4]), 
		 -> i2c_write1ByteRegister@data(COMRAM[1]), i2c_write2ByteRegister@data(COMRAM[2]), NULL(NULL[0]), 

    rd1RegCompleteHandler@i2c_simple_master$F680@p	PTR void  size(1) Largest target is 4
		 -> I2C1_Read1ByteRegister@returnValue(COMRAM[1]), I2C1_Read2ByteRegister@returnValue(COMRAM[2]), I2C1_ReadDataBlock@bufferBlock(COMRAM[4]), I2C1_Write1ByteRegister@data(COMRAM[1]), 
		 -> I2C1_Write2ByteRegister@data(COMRAM[2]), i2c_read1ByteRegister@d2(COMRAM[1]), i2c_read2ByteRegister@result(COMRAM[2]), i2c_readDataBlock@d(COMRAM[4]), 
		 -> i2c_write1ByteRegister@data(COMRAM[1]), i2c_write2ByteRegister@data(COMRAM[2]), NULL(NULL[0]), 

    rd1RegCompleteHandler@ptr	PTR void  size(1) Largest target is 4
		 -> I2C1_Read1ByteRegister@returnValue(COMRAM[1]), I2C1_Read2ByteRegister@returnValue(COMRAM[2]), I2C1_ReadDataBlock@bufferBlock(COMRAM[4]), I2C1_Write1ByteRegister@data(COMRAM[1]), 
		 -> I2C1_Write2ByteRegister@data(COMRAM[2]), i2c_read1ByteRegister@d2(COMRAM[1]), i2c_read2ByteRegister@result(COMRAM[2]), i2c_readDataBlock@d(COMRAM[4]), 
		 -> i2c_write1ByteRegister@data(COMRAM[1]), i2c_write2ByteRegister@data(COMRAM[2]), NULL(NULL[0]), 

    rd2RegCompleteHandler@i2c_simple_master$F688@p	PTR void  size(1) Largest target is 4
		 -> I2C1_Read1ByteRegister@returnValue(COMRAM[1]), I2C1_Read2ByteRegister@returnValue(COMRAM[2]), I2C1_ReadDataBlock@bufferBlock(COMRAM[4]), I2C1_Write1ByteRegister@data(COMRAM[1]), 
		 -> I2C1_Write2ByteRegister@data(COMRAM[2]), i2c_read1ByteRegister@d2(COMRAM[1]), i2c_read2ByteRegister@result(COMRAM[2]), i2c_readDataBlock@d(COMRAM[4]), 
		 -> i2c_write1ByteRegister@data(COMRAM[1]), i2c_write2ByteRegister@data(COMRAM[2]), NULL(NULL[0]), 

    rd2RegCompleteHandler@ptr	PTR void  size(1) Largest target is 4
		 -> I2C1_Read1ByteRegister@returnValue(COMRAM[1]), I2C1_Read2ByteRegister@returnValue(COMRAM[2]), I2C1_ReadDataBlock@bufferBlock(COMRAM[4]), I2C1_Write1ByteRegister@data(COMRAM[1]), 
		 -> I2C1_Write2ByteRegister@data(COMRAM[2]), i2c_read1ByteRegister@d2(COMRAM[1]), i2c_read2ByteRegister@result(COMRAM[2]), i2c_readDataBlock@d(COMRAM[4]), 
		 -> i2c_write1ByteRegister@data(COMRAM[1]), i2c_write2ByteRegister@data(COMRAM[2]), NULL(NULL[0]), 

    rdBlkRegCompleteHandler@i2c_simple_master$F700@p	PTR void  size(1) Largest target is 4
		 -> I2C1_Read1ByteRegister@returnValue(COMRAM[1]), I2C1_Read2ByteRegister@returnValue(COMRAM[2]), I2C1_ReadDataBlock@bufferBlock(COMRAM[4]), I2C1_Write1ByteRegister@data(COMRAM[1]), 
		 -> I2C1_Write2ByteRegister@data(COMRAM[2]), i2c_read1ByteRegister@d2(COMRAM[1]), i2c_read2ByteRegister@result(COMRAM[2]), i2c_readDataBlock@d(COMRAM[4]), 
		 -> i2c_write1ByteRegister@data(COMRAM[1]), i2c_write2ByteRegister@data(COMRAM[2]), NULL(NULL[0]), 

    rdBlkRegCompleteHandler@i2c_simple_master$F700@p$data	PTR unsigned char  size(2) Largest target is 0

    rdBlkRegCompleteHandler@ptr	PTR void  size(1) Largest target is 4
		 -> I2C1_Read1ByteRegister@returnValue(COMRAM[1]), I2C1_Read2ByteRegister@returnValue(COMRAM[2]), I2C1_ReadDataBlock@bufferBlock(COMRAM[4]), I2C1_Write1ByteRegister@data(COMRAM[1]), 
		 -> I2C1_Write2ByteRegister@data(COMRAM[2]), i2c_read1ByteRegister@d2(COMRAM[1]), i2c_read2ByteRegister@result(COMRAM[2]), i2c_readDataBlock@d(COMRAM[4]), 
		 -> i2c_write1ByteRegister@data(COMRAM[1]), i2c_write2ByteRegister@data(COMRAM[2]), NULL(NULL[0]), 

    rdBlkRegCompleteHandler@ptr$data	PTR unsigned char  size(2) Largest target is 0

    S2200$buffer	PTR unsigned char  size(1) Largest target is 10
		 -> main@Contadorstr(BANK0[10]), 

    S2200$source	PTR const unsigned char  size(2) Largest target is 0

    S810$0$0	PTR void  size(1) Largest target is 4
		 -> I2C1_Read1ByteRegister@returnValue(COMRAM[1]), I2C1_Read2ByteRegister@returnValue(COMRAM[2]), I2C1_ReadDataBlock@bufferBlock(COMRAM[4]), I2C1_Write1ByteRegister@data(COMRAM[1]), 
		 -> I2C1_Write2ByteRegister@data(COMRAM[2]), i2c_read1ByteRegister@d2(COMRAM[1]), i2c_read2ByteRegister@result(COMRAM[2]), i2c_readDataBlock@d(COMRAM[4]), 
		 -> i2c_write1ByteRegister@data(COMRAM[1]), i2c_write2ByteRegister@data(COMRAM[2]), NULL(NULL[0]), 

    S810$callbackPayload	PTR void [6] size(1) Largest target is 4
		 -> I2C1_Read1ByteRegister@returnValue(COMRAM[1]), I2C1_Read2ByteRegister@returnValue(COMRAM[2]), I2C1_ReadDataBlock@bufferBlock(COMRAM[4]), I2C1_Write1ByteRegister@data(COMRAM[1]), 
		 -> I2C1_Write2ByteRegister@data(COMRAM[2]), i2c_read1ByteRegister@d2(COMRAM[1]), i2c_read2ByteRegister@result(COMRAM[2]), i2c_readDataBlock@d(COMRAM[4]), 
		 -> i2c_write1ByteRegister@data(COMRAM[1]), i2c_write2ByteRegister@data(COMRAM[2]), NULL(NULL[0]), 

    S810$callbackTable	PTR FTN(PTR void ,)enum E363[6] size(2) Largest target is 1
		 -> I2C1_CallbackReturnReset(), I2C1_CallbackReturnStop(), rd1RegCompleteHandler(), rd1RegCompleteHandler@i2c_simple_master$F680(), 
		 -> rd2RegCompleteHandler(), rd2RegCompleteHandler@i2c_simple_master$F688(), rdBlkRegCompleteHandler(), rdBlkRegCompleteHandler@i2c_simple_master$F700(), 
		 -> wr1RegCompleteHandler(), wr1RegCompleteHandler@i2c_simple_master$F670(), wr2RegCompleteHandler(), wr2RegCompleteHandler@i2c_simple_master$F694(), 
		 -> NULL(), 

    S810$data_ptr	PTR unsigned char  size(2) Largest target is 2047
		 -> I2C1_Read1ByteRegister@reg(COMRAM[1]), I2C1_Read1ByteRegister@returnValue(COMRAM[1]), I2C1_Read2ByteRegister@reg(COMRAM[1]), I2C1_Read2ByteRegister@returnValue(COMRAM[2]), 
		 -> I2C1_ReadDataBlock@bufferBlock(COMRAM[4]), I2C1_ReadDataBlock@reg(COMRAM[1]), I2C1_Write1ByteRegister@data(COMRAM[1]), I2C1_Write1ByteRegister@reg(COMRAM[1]), 
		 -> I2C1_Write2ByteRegister@data(COMRAM[2]), I2C1_Write2ByteRegister@reg(COMRAM[1]), i2c_read1ByteRegister@d2(COMRAM[1]), i2c_read1ByteRegister@reg(COMRAM[1]), 
		 -> i2c_read2ByteRegister@reg(COMRAM[1]), i2c_read2ByteRegister@result(COMRAM[2]), i2c_readDataBlock@d(COMRAM[4]), i2c_readDataBlock@reg(COMRAM[1]), 
		 -> i2c_write1ByteRegister@data(COMRAM[1]), i2c_write1ByteRegister@reg(COMRAM[1]), i2c_write2ByteRegister@data(COMRAM[2]), i2c_write2ByteRegister@reg(COMRAM[1]), 
		 -> pcf8574_write_wEnable@writeBuffer(COMRAM[3]), RAM(DATA[2047]), NULL(NULL[0]), 

    S97$data	PTR unsigned char  size(2) Largest target is 0

    sprintf@ap	PTR void [1] size(1) Largest target is 2
		 -> ?_sprintf(COMRAM[2]), 

    sprintf@fmt	PTR const unsigned char  size(1) Largest target is 3
		 -> STR_1(CODE[3]), 

    sprintf@s	PTR unsigned char  size(1) Largest target is 10
		 -> main@Contadorstr(BANK0[10]), 

    vfpfcnvrt@ap	PTR PTR void  size(1) Largest target is 1
		 -> sprintf@ap(COMRAM[1]), 

    vfpfcnvrt@cp	PTR unsigned char  size(1) Largest target is 3
		 -> STR_1(CODE[3]), 

    vfpfcnvrt@fmt	PTR PTR unsigned char  size(1) Largest target is 1
		 -> vfprintf@cfmt(COMRAM[1]), 

    vfpfcnvrt@fp	PTR struct _IO_FILE size(1) Largest target is 11
		 -> sprintf@f(COMRAM[11]), 

    vfprintf@ap	PTR PTR void  size(1) Largest target is 1
		 -> sprintf@ap(COMRAM[1]), 

    vfprintf@cfmt	PTR unsigned char  size(1) Largest target is 3
		 -> STR_1(CODE[3]), 

    vfprintf@fmt	PTR const unsigned char  size(1) Largest target is 3
		 -> STR_1(CODE[3]), 

    vfprintf@fp	PTR struct _IO_FILE size(1) Largest target is 11
		 -> sprintf@f(COMRAM[11]), 

    wr1RegCompleteHandler@i2c_simple_master$F670@p	PTR void  size(1) Largest target is 4
		 -> I2C1_Read1ByteRegister@returnValue(COMRAM[1]), I2C1_Read2ByteRegister@returnValue(COMRAM[2]), I2C1_ReadDataBlock@bufferBlock(COMRAM[4]), I2C1_Write1ByteRegister@data(COMRAM[1]), 
		 -> I2C1_Write2ByteRegister@data(COMRAM[2]), i2c_read1ByteRegister@d2(COMRAM[1]), i2c_read2ByteRegister@result(COMRAM[2]), i2c_readDataBlock@d(COMRAM[4]), 
		 -> i2c_write1ByteRegister@data(COMRAM[1]), i2c_write2ByteRegister@data(COMRAM[2]), NULL(NULL[0]), 

    wr1RegCompleteHandler@ptr	PTR void  size(1) Largest target is 4
		 -> I2C1_Read1ByteRegister@returnValue(COMRAM[1]), I2C1_Read2ByteRegister@returnValue(COMRAM[2]), I2C1_ReadDataBlock@bufferBlock(COMRAM[4]), I2C1_Write1ByteRegister@data(COMRAM[1]), 
		 -> I2C1_Write2ByteRegister@data(COMRAM[2]), i2c_read1ByteRegister@d2(COMRAM[1]), i2c_read2ByteRegister@result(COMRAM[2]), i2c_readDataBlock@d(COMRAM[4]), 
		 -> i2c_write1ByteRegister@data(COMRAM[1]), i2c_write2ByteRegister@data(COMRAM[2]), NULL(NULL[0]), 

    wr2RegCompleteHandler@i2c_simple_master$F694@p	PTR void  size(1) Largest target is 4
		 -> I2C1_Read1ByteRegister@returnValue(COMRAM[1]), I2C1_Read2ByteRegister@returnValue(COMRAM[2]), I2C1_ReadDataBlock@bufferBlock(COMRAM[4]), I2C1_Write1ByteRegister@data(COMRAM[1]), 
		 -> I2C1_Write2ByteRegister@data(COMRAM[2]), i2c_read1ByteRegister@d2(COMRAM[1]), i2c_read2ByteRegister@result(COMRAM[2]), i2c_readDataBlock@d(COMRAM[4]), 
		 -> i2c_write1ByteRegister@data(COMRAM[1]), i2c_write2ByteRegister@data(COMRAM[2]), NULL(NULL[0]), 

    wr2RegCompleteHandler@ptr	PTR void  size(1) Largest target is 4
		 -> I2C1_Read1ByteRegister@returnValue(COMRAM[1]), I2C1_Read2ByteRegister@returnValue(COMRAM[2]), I2C1_ReadDataBlock@bufferBlock(COMRAM[4]), I2C1_Write1ByteRegister@data(COMRAM[1]), 
		 -> I2C1_Write2ByteRegister@data(COMRAM[2]), i2c_read1ByteRegister@d2(COMRAM[1]), i2c_read2ByteRegister@result(COMRAM[2]), i2c_readDataBlock@d(COMRAM[4]), 
		 -> i2c_write1ByteRegister@data(COMRAM[1]), i2c_write2ByteRegister@data(COMRAM[2]), NULL(NULL[0]), 


Critical Paths under _main in COMRAM

    _main->_sprintf
    _sprintf->_vfprintf
    _vfprintf->_vfpfcnvrt
    _vfpfcnvrt->_abs
    _abs->___awmod

Critical Paths under _INTERRUPT_InterruptManager in COMRAM

    _I2C1_MasterIsr->_I2C1_MasterFsm
    _I2C1_MasterFsm->_I2C1_DO_ADDRESS_NACK
    _I2C1_MasterFsm->_I2C1_DO_RX
    _I2C1_MasterFsm->_I2C1_DO_TX
    _I2C1_MasterFsm->_I2C1_DO_TX_EMPTY
    _I2C1_DO_TX_EMPTY->_rdBlkRegCompleteHandler
    _I2C1_DO_TX_EMPTY->_rdBlkRegCompleteHandler@i2c_simple_master$F700
    _I2C1_DO_TX->_rdBlkRegCompleteHandler
    _I2C1_DO_TX->_rdBlkRegCompleteHandler@i2c_simple_master$F700
    _I2C1_DO_SEND_ADR_WRITE->_I2C1_MasterSendTxData
    _I2C1_DO_RX->_rdBlkRegCompleteHandler
    _I2C1_DO_RX->_rdBlkRegCompleteHandler@i2c_simple_master$F700
    _I2C1_DO_ADDRESS_NACK->_rdBlkRegCompleteHandler
    _I2C1_DO_ADDRESS_NACK->_rdBlkRegCompleteHandler@i2c_simple_master$F700
    _wr2RegCompleteHandler@i2c_simple_master$F694->_I2C1_SetDataCompleteCallback
    _wr2RegCompleteHandler->_I2C1_SetDataCompleteCallback
    _wr1RegCompleteHandler@i2c_simple_master$F670->_I2C1_SetDataCompleteCallback
    _wr1RegCompleteHandler->_I2C1_SetDataCompleteCallback
    _rdBlkRegCompleteHandler@i2c_simple_master$F700->_I2C1_SetDataCompleteCallback
    _rdBlkRegCompleteHandler->_I2C1_SetDataCompleteCallback
    _rd2RegCompleteHandler@i2c_simple_master$F688->_I2C1_SetDataCompleteCallback
    _rd2RegCompleteHandler->_I2C1_SetDataCompleteCallback
    _rd1RegCompleteHandler@i2c_simple_master$F680->_I2C1_SetDataCompleteCallback
    _rd1RegCompleteHandler->_I2C1_SetDataCompleteCallback
    _I2C1_SetDataCompleteCallback->_I2C1_SetCallback

Critical Paths under _main in BANK0

    None.

Critical Paths under _INTERRUPT_InterruptManager in BANK0

    None.

Critical Paths under _main in BANK1

    None.

Critical Paths under _INTERRUPT_InterruptManager in BANK1

    None.

Critical Paths under _main in BANK2

    None.

Critical Paths under _INTERRUPT_InterruptManager in BANK2

    None.

Critical Paths under _main in BANK3

    None.

Critical Paths under _INTERRUPT_InterruptManager in BANK3

    None.

Critical Paths under _main in BANK4

    None.

Critical Paths under _INTERRUPT_InterruptManager in BANK4

    None.

Critical Paths under _main in BANK5

    None.

Critical Paths under _INTERRUPT_InterruptManager in BANK5

    None.

Critical Paths under _main in BANK6

    None.

Critical Paths under _INTERRUPT_InterruptManager in BANK6

    None.

Critical Paths under _main in BANK7

    None.

Critical Paths under _INTERRUPT_InterruptManager in BANK7

    None.

Call Graph Tables:

 ---------------------------------------------------------------------------------
 (Depth) Function   	        Calls       Base Space   Used Autos Params    Refs
 ---------------------------------------------------------------------------------
 (0) _main                                                16    16      0    1911
                                              0 BANK0     16    16      0
                  _SYSTEM_Initialize
                            _sprintf
 ---------------------------------------------------------------------------------
 (1) _sprintf                                             18    14      4    1760
                                             47 COMRAM    16    12      4
                           _vfprintf
 ---------------------------------------------------------------------------------
 (2) _vfprintf                                             4     1      3    1559
                                             43 COMRAM     4     1      3
                          _vfpfcnvrt
 ---------------------------------------------------------------------------------
 (3) _vfpfcnvrt                                           11     8      3    1434
                                             32 COMRAM    11     8      3
                            ___awdiv
                            ___awmod
                                _abs
                              _fputc
 ---------------------------------------------------------------------------------
 (4) _fputc                                                8     5      3     230
                                             22 COMRAM     8     5      3
                              _putch
 ---------------------------------------------------------------------------------
 (5) _putch                                                1     1      0       0
 ---------------------------------------------------------------------------------
 (4) _abs                                                  4     2      2      67
                                             28 COMRAM     4     2      2
                            ___awmod (ARG)
 ---------------------------------------------------------------------------------
 (4) ___awmod                                              6     2      4     298
                                             22 COMRAM     6     2      4
 ---------------------------------------------------------------------------------
 (4) ___awdiv                                              8     4      4     302
                                             22 COMRAM     8     4      4
 ---------------------------------------------------------------------------------
 (1) _SYSTEM_Initialize                                    0     0      0       0
                    _I2C1_Initialize
               _INTERRUPT_Initialize
              _OSCILLATOR_Initialize
             _PIN_MANAGER_Initialize
 ---------------------------------------------------------------------------------
 (2) _PIN_MANAGER_Initialize                               0     0      0       0
 ---------------------------------------------------------------------------------
 (2) _OSCILLATOR_Initialize                                0     0      0       0
 ---------------------------------------------------------------------------------
 (2) _INTERRUPT_Initialize                                 0     0      0       0
 ---------------------------------------------------------------------------------
 (2) _I2C1_Initialize                                      0     0      0       0
 ---------------------------------------------------------------------------------
 Estimated maximum stack depth 5
 ---------------------------------------------------------------------------------
 (Depth) Function   	        Calls       Base Space   Used Autos Params    Refs
 ---------------------------------------------------------------------------------
 (6) _INTERRUPT_InterruptManager                          10    10      0   15883
                                             12 COMRAM    10    10      0
                                NULL *
                     _I2C1_MasterIsr *
 ---------------------------------------------------------------------------------
 (7) _I2C1_MasterIsr                                       0     0      0   15883
                     _I2C1_MasterFsm
 ---------------------------------------------------------------------------------
 (8) _I2C1_MasterFsm                                       1     1      0   15883
                                             11 COMRAM     1     1      0
               _I2C1_DO_ADDRESS_NACK *
                       _I2C1_DO_IDLE *
                       _I2C1_DO_RCEN *
                      _I2C1_DO_RESET *
                         _I2C1_DO_RX *
                     _I2C1_DO_RX_ACK *
            _I2C1_DO_RX_NACK_RESTART *
               _I2C1_DO_RX_NACK_STOP *
              _I2C1_DO_SEND_ADR_READ *
             _I2C1_DO_SEND_ADR_WRITE *
               _I2C1_DO_SEND_RESTART *
          _I2C1_DO_SEND_RESTART_READ *
         _I2C1_DO_SEND_RESTART_WRITE *
                  _I2C1_DO_SEND_STOP *
                         _I2C1_DO_TX *
                   _I2C1_DO_TX_EMPTY *
                _I2C1_MasterClearIrq
                  _I2C1_MasterIsNack
 ---------------------------------------------------------------------------------
 (9) _I2C1_MasterClearIrq                                  0     0      0       0
 ---------------------------------------------------------------------------------
 (9) _I2C1_DO_TX_EMPTY                                     2     2      0    3949
                                              9 COMRAM     2     2      0
                                NULL *
           _I2C1_CallbackReturnReset *
            _I2C1_CallbackReturnStop *
               _I2C1_DO_SEND_RESTART
                  _I2C1_DO_SEND_STOP
                  _I2C1_MasterSetIrq
              _rd1RegCompleteHandler *
_rd1RegCompleteHandler@i2c_simple_ma *
              _rd2RegCompleteHandler *
_rd2RegCompleteHandler@i2c_simple_ma *
            _rdBlkRegCompleteHandler *
_rdBlkRegCompleteHandler@i2c_simple_ *
              _wr1RegCompleteHandler *
_wr1RegCompleteHandler@i2c_simple_ma *
              _wr2RegCompleteHandler *
_wr2RegCompleteHandler@i2c_simple_ma *
 ---------------------------------------------------------------------------------
 (10) _I2C1_MasterSetIrq                                   0     0      0       0
 ---------------------------------------------------------------------------------
 (9) _I2C1_DO_TX                                           2     2      0    3978
                                              9 COMRAM     2     2      0
                                NULL *
           _I2C1_CallbackReturnReset *
            _I2C1_CallbackReturnStop *
          _I2C1_DO_SEND_RESTART_READ
         _I2C1_DO_SEND_RESTART_WRITE
                  _I2C1_DO_SEND_STOP
                  _I2C1_MasterIsNack
              _I2C1_MasterSendTxData
              _rd1RegCompleteHandler *
_rd1RegCompleteHandler@i2c_simple_ma *
              _rd2RegCompleteHandler *
_rd2RegCompleteHandler@i2c_simple_ma *
            _rdBlkRegCompleteHandler *
_rdBlkRegCompleteHandler@i2c_simple_ *
              _wr1RegCompleteHandler *
_wr1RegCompleteHandler@i2c_simple_ma *
              _wr2RegCompleteHandler *
_wr2RegCompleteHandler@i2c_simple_ma *
 ---------------------------------------------------------------------------------
 (9) _I2C1_MasterIsNack                                    0     0      0       0
 ---------------------------------------------------------------------------------
 (10) _I2C1_DO_SEND_RESTART_WRITE                          0     0      0       0
           _I2C1_MasterEnableRestart
 ---------------------------------------------------------------------------------
 (10) _I2C1_DO_SEND_RESTART_READ                           0     0      0       0
           _I2C1_MasterEnableRestart
 ---------------------------------------------------------------------------------
 (9) _I2C1_DO_SEND_ADR_WRITE                               0     0      0      29
              _I2C1_MasterSendTxData
 ---------------------------------------------------------------------------------
 (9) _I2C1_DO_SEND_ADR_READ                                0     0      0      29
              _I2C1_MasterSendTxData
 ---------------------------------------------------------------------------------
 (10) _I2C1_MasterSendTxData                               1     1      0      29
                                              0 COMRAM     1     1      0
 ---------------------------------------------------------------------------------
 (9) _I2C1_DO_RX_ACK                                       0     0      0       0
                 _I2C1_MasterSendAck
 ---------------------------------------------------------------------------------
 (9) _I2C1_DO_RX                                           2     2      0    3949
                                              9 COMRAM     2     2      0
                                NULL *
           _I2C1_CallbackReturnReset *
            _I2C1_CallbackReturnStop *
            _I2C1_DO_RX_NACK_RESTART
               _I2C1_DO_RX_NACK_STOP
               _I2C1_MasterGetRxData
                 _I2C1_MasterSendAck
              _rd1RegCompleteHandler *
_rd1RegCompleteHandler@i2c_simple_ma *
              _rd2RegCompleteHandler *
_rd2RegCompleteHandler@i2c_simple_ma *
            _rdBlkRegCompleteHandler *
_rdBlkRegCompleteHandler@i2c_simple_ *
              _wr1RegCompleteHandler *
_wr1RegCompleteHandler@i2c_simple_ma *
              _wr2RegCompleteHandler *
_wr2RegCompleteHandler@i2c_simple_ma *
 ---------------------------------------------------------------------------------
 (10) _I2C1_MasterSendAck                                  0     0      0       0
 ---------------------------------------------------------------------------------
 (10) _I2C1_MasterGetRxData                                0     0      0       0
 ---------------------------------------------------------------------------------
 (9) _I2C1_DO_RX_NACK_STOP                                 0     0      0       0
                _I2C1_MasterSendNack
 ---------------------------------------------------------------------------------
 (9) _I2C1_DO_RX_NACK_RESTART                              0     0      0       0
                _I2C1_MasterSendNack
 ---------------------------------------------------------------------------------
 (10) _I2C1_MasterSendNack                                 0     0      0       0
 ---------------------------------------------------------------------------------
 (9) _I2C1_DO_RESET                                        0     0      0       0
 ---------------------------------------------------------------------------------
 (9) _I2C1_DO_RCEN                                         0     0      0       0
                 _I2C1_MasterStartRx
 ---------------------------------------------------------------------------------
 (10) _I2C1_MasterStartRx                                  0     0      0       0
 ---------------------------------------------------------------------------------
 (9) _I2C1_DO_IDLE                                         0     0      0       0
 ---------------------------------------------------------------------------------
 (9) _I2C1_DO_ADDRESS_NACK                                 2     2      0    3949
                                              9 COMRAM     2     2      0
                                NULL *
           _I2C1_CallbackReturnReset *
            _I2C1_CallbackReturnStop *
               _I2C1_DO_SEND_RESTART
                  _I2C1_DO_SEND_STOP
              _rd1RegCompleteHandler *
_rd1RegCompleteHandler@i2c_simple_ma *
              _rd2RegCompleteHandler *
_rd2RegCompleteHandler@i2c_simple_ma *
            _rdBlkRegCompleteHandler *
_rdBlkRegCompleteHandler@i2c_simple_ *
              _wr1RegCompleteHandler *
_wr1RegCompleteHandler@i2c_simple_ma *
              _wr2RegCompleteHandler *
_wr2RegCompleteHandler@i2c_simple_ma *
 ---------------------------------------------------------------------------------
 (10) _wr2RegCompleteHandler@i2c_simple_master$F694        1     0      1     390
                                              7 COMRAM     1     0      1
                     _I2C1_SetBuffer
       _I2C1_SetDataCompleteCallback
 ---------------------------------------------------------------------------------
 (10) _wr2RegCompleteHandler                               1     0      1     390
                                              7 COMRAM     1     0      1
                     _I2C1_SetBuffer
       _I2C1_SetDataCompleteCallback
 ---------------------------------------------------------------------------------
 (10) _wr1RegCompleteHandler@i2c_simple_master$F670        1     0      1     390
                                              7 COMRAM     1     0      1
                     _I2C1_SetBuffer
       _I2C1_SetDataCompleteCallback
 ---------------------------------------------------------------------------------
 (10) _wr1RegCompleteHandler                               1     0      1     390
                                              7 COMRAM     1     0      1
                     _I2C1_SetBuffer
       _I2C1_SetDataCompleteCallback
 ---------------------------------------------------------------------------------
 (10) _rdBlkRegCompleteHandler@i2c_simple_master$F700      2     1      1     412
                                              7 COMRAM     2     1      1
                     _I2C1_SetBuffer
       _I2C1_SetDataCompleteCallback
 ---------------------------------------------------------------------------------
 (10) _rdBlkRegCompleteHandler                             2     1      1     412
                                              7 COMRAM     2     1      1
                     _I2C1_SetBuffer
       _I2C1_SetDataCompleteCallback
 ---------------------------------------------------------------------------------
 (10) _rd2RegCompleteHandler@i2c_simple_master$F688        1     0      1     390
                                              7 COMRAM     1     0      1
                     _I2C1_SetBuffer
       _I2C1_SetDataCompleteCallback
 ---------------------------------------------------------------------------------
 (10) _rd2RegCompleteHandler                               1     0      1     390
                                              7 COMRAM     1     0      1
                     _I2C1_SetBuffer
       _I2C1_SetDataCompleteCallback
 ---------------------------------------------------------------------------------
 (10) _rd1RegCompleteHandler@i2c_simple_master$F680        1     0      1     390
                                              7 COMRAM     1     0      1
                     _I2C1_SetBuffer
       _I2C1_SetDataCompleteCallback
 ---------------------------------------------------------------------------------
 (10) _rd1RegCompleteHandler                               1     0      1     390
                                              7 COMRAM     1     0      1
                     _I2C1_SetBuffer
       _I2C1_SetDataCompleteCallback
 ---------------------------------------------------------------------------------
 (11) _I2C1_SetDataCompleteCallback                        3     0      3     276
                                              4 COMRAM     3     0      3
                   _I2C1_SetCallback
 ---------------------------------------------------------------------------------
 (12) _I2C1_SetCallback                                    4     1      3     192
                                              0 COMRAM     4     1      3
 ---------------------------------------------------------------------------------
 (11) _I2C1_SetBuffer                                      4     0      4      92
                                              0 COMRAM     4     0      4
 ---------------------------------------------------------------------------------
 (10) _I2C1_DO_SEND_STOP                                   0     0      0       0
                    _I2C1_MasterStop
 ---------------------------------------------------------------------------------
 (11) _I2C1_MasterStop                                     0     0      0       0
 ---------------------------------------------------------------------------------
 (10) _I2C1_DO_SEND_RESTART                                0     0      0       0
           _I2C1_MasterEnableRestart
 ---------------------------------------------------------------------------------
 (11) _I2C1_MasterEnableRestart                            0     0      0       0
 ---------------------------------------------------------------------------------
 (10) _I2C1_CallbackReturnStop                             1     0      1       0
                                              7 COMRAM     1     0      1
 ---------------------------------------------------------------------------------
 (10) _I2C1_CallbackReturnReset                            1     0      1       5
                                              7 COMRAM     1     0      1
 ---------------------------------------------------------------------------------
 (10) NULL(Fake)                                           1     0      1       0
 ---------------------------------------------------------------------------------
 Estimated maximum stack depth 12
 ---------------------------------------------------------------------------------

 Call Graph Graphs:

 _main (ROOT)
   _SYSTEM_Initialize
     _I2C1_Initialize
     _INTERRUPT_Initialize
     _OSCILLATOR_Initialize
     _PIN_MANAGER_Initialize
   _sprintf
     _vfprintf
       _vfpfcnvrt
         ___awdiv
         ___awmod
         _abs
           ___awmod (ARG)
         _fputc
           _putch

 _INTERRUPT_InterruptManager (ROOT)
   NULL(Fake) *
   _I2C1_MasterIsr *
     _I2C1_MasterFsm
       _I2C1_DO_ADDRESS_NACK *
         NULL(Fake) *
         _I2C1_CallbackReturnReset *
         _I2C1_CallbackReturnStop *
         _I2C1_DO_SEND_RESTART *
           _I2C1_MasterEnableRestart
         _I2C1_DO_SEND_STOP *
           _I2C1_MasterStop
         _rd1RegCompleteHandler *
           _I2C1_SetBuffer
           _I2C1_SetDataCompleteCallback
             _I2C1_SetCallback
         _rd1RegCompleteHandler@i2c_simple_master$F680 *
           _I2C1_SetBuffer
           _I2C1_SetDataCompleteCallback
         _rd2RegCompleteHandler *
           _I2C1_SetBuffer
           _I2C1_SetDataCompleteCallback
         _rd2RegCompleteHandler@i2c_simple_master$F688 *
           _I2C1_SetBuffer
           _I2C1_SetDataCompleteCallback
         _rdBlkRegCompleteHandler *
           _I2C1_SetBuffer
           _I2C1_SetDataCompleteCallback
         _rdBlkRegCompleteHandler@i2c_simple_master$F700 *
           _I2C1_SetBuffer
           _I2C1_SetDataCompleteCallback
         _wr1RegCompleteHandler *
           _I2C1_SetBuffer
           _I2C1_SetDataCompleteCallback
         _wr1RegCompleteHandler@i2c_simple_master$F670 *
           _I2C1_SetBuffer
           _I2C1_SetDataCompleteCallback
         _wr2RegCompleteHandler *
           _I2C1_SetBuffer
           _I2C1_SetDataCompleteCallback
         _wr2RegCompleteHandler@i2c_simple_master$F694 *
           _I2C1_SetBuffer
           _I2C1_SetDataCompleteCallback
       _I2C1_DO_IDLE *
       _I2C1_DO_RCEN *
         _I2C1_MasterStartRx
       _I2C1_DO_RESET *
       _I2C1_DO_RX *
         NULL(Fake) *
         _I2C1_CallbackReturnReset *
         _I2C1_CallbackReturnStop *
         _I2C1_DO_RX_NACK_RESTART *
           _I2C1_MasterSendNack
         _I2C1_DO_RX_NACK_STOP *
           _I2C1_MasterSendNack
         _I2C1_MasterGetRxData *
         _I2C1_MasterSendAck *
         _rd1RegCompleteHandler *
         _rd1RegCompleteHandler@i2c_simple_master$F680 *
         _rd2RegCompleteHandler *
         _rd2RegCompleteHandler@i2c_simple_master$F688 *
         _rdBlkRegCompleteHandler *
         _rdBlkRegCompleteHandler@i2c_simple_master$F700 *
         _wr1RegCompleteHandler *
         _wr1RegCompleteHandler@i2c_simple_master$F670 *
         _wr2RegCompleteHandler *
         _wr2RegCompleteHandler@i2c_simple_master$F694 *
       _I2C1_DO_RX_ACK *
         _I2C1_MasterSendAck
       _I2C1_DO_RX_NACK_RESTART *
       _I2C1_DO_RX_NACK_STOP *
       _I2C1_DO_SEND_ADR_READ *
         _I2C1_MasterSendTxData
       _I2C1_DO_SEND_ADR_WRITE *
         _I2C1_MasterSendTxData
       _I2C1_DO_SEND_RESTART *
       _I2C1_DO_SEND_RESTART_READ *
         _I2C1_MasterEnableRestart
       _I2C1_DO_SEND_RESTART_WRITE *
         _I2C1_MasterEnableRestart
       _I2C1_DO_SEND_STOP *
       _I2C1_DO_TX *
         NULL(Fake) *
         _I2C1_CallbackReturnReset *
         _I2C1_CallbackReturnStop *
         _I2C1_DO_SEND_RESTART_READ *
         _I2C1_DO_SEND_RESTART_WRITE *
         _I2C1_DO_SEND_STOP *
         _I2C1_MasterIsNack *
         _I2C1_MasterSendTxData *
         _rd1RegCompleteHandler *
         _rd1RegCompleteHandler@i2c_simple_master$F680 *
         _rd2RegCompleteHandler *
         _rd2RegCompleteHandler@i2c_simple_master$F688 *
         _rdBlkRegCompleteHandler *
         _rdBlkRegCompleteHandler@i2c_simple_master$F700 *
         _wr1RegCompleteHandler *
         _wr1RegCompleteHandler@i2c_simple_master$F670 *
         _wr2RegCompleteHandler *
         _wr2RegCompleteHandler@i2c_simple_master$F694 *
       _I2C1_DO_TX_EMPTY *
         NULL(Fake) *
         _I2C1_CallbackReturnReset *
         _I2C1_CallbackReturnStop *
         _I2C1_DO_SEND_RESTART *
         _I2C1_DO_SEND_STOP *
         _I2C1_MasterSetIrq *
         _rd1RegCompleteHandler *
         _rd1RegCompleteHandler@i2c_simple_master$F680 *
         _rd2RegCompleteHandler *
         _rd2RegCompleteHandler@i2c_simple_master$F688 *
         _rdBlkRegCompleteHandler *
         _rdBlkRegCompleteHandler@i2c_simple_master$F700 *
         _wr1RegCompleteHandler *
         _wr1RegCompleteHandler@i2c_simple_master$F670 *
         _wr2RegCompleteHandler *
         _wr2RegCompleteHandler@i2c_simple_master$F694 *
       _I2C1_MasterClearIrq *
       _I2C1_MasterIsNack *

Address spaces:
Name               Size   Autos  Total    Usage
BIGRAM            2047      0       0      0.0%
BITBANK7           256      0       0      0.0%
BANK7              256      0       0      0.0%
BITBANK6           256      0       0      0.0%
BANK6              256      0       0      0.0%
BITBANK5           256      0       0      0.0%
BANK5              256      0       0      0.0%
BITBANK4           256      0       0      0.0%
BANK4              256      0       0      0.0%
BITBANK3           256      0       0      0.0%
BANK3              256      0       0      0.0%
BITBANK2           256      0       0      0.0%
BANK2              256      0       0      0.0%
BITBANK1           256      0       0      0.0%
BANK1              256      0       0      0.0%
BITBANK0           160      0       0      0.0%
BANK0              160     16      78     48.8%
BITBIGSFRh         126      0       0      0.0%
BITCOMRAM           94      0       0      0.0%
COMRAM              94     63      72     76.6%
BITBIGSFRlh         36      0       0      0.0%
BITBIGSFRll          9      0       0      0.0%
STACK                0      0       0      0.0%
DATA                 0      0     150      0.0%


Microchip Technology PIC18 Macro Assembler V2.50 build 20240725155939 
Symbol Table                                                                                   Tue Apr 22 11:31:34 2025

                                          ___awdiv@sign 001C  
                                          main@Contador 00AA  
                                                   l123 126A  
                                                   l152 1248  
                                                   l155 1256  
                                                   l172 134A  
                                                   l149 12A4  
                                                   l389 12B4  
                                                   l991 0B62  
                                                   _abs 108E  
                                          ___awmod@sign 001C  
                                                   tosl 0FFD  
                                                   wreg 0FE8  
                                ?_I2C1_MasterSendTxData 0001  
                                  _I2C1_DO_RX_NACK_STOP 12FE  
                             ?_I2C1_MasterEnableRestart 0001  
                                  I2C1_SetBuffer@buffer 0001  
                                                  l1004 0C10  
                                                  ?_abs 001D  
                               ??_rd2RegCompleteHandler 0009  
                                                  l3000 0C8A  
                                                  l3004 108E  
                                                  l1501 0CBA  
                                                  l3006 109C  
                                                  l1512 136C  
                                                  l3300 12B2  
                                                  l3302 123C  
                                                  l1438 108C  
                                                  l3304 1240  
                                                  l3240 0860  
                                                  l3232 0826  
                                                  l3306 1246  
                                                  l3250 08C4  
                                                  l3242 086A  
                                                  l3234 0848  
                                                  l1482 0FE4  
                                                  l1476 09DC  
                                                  l3260 094A  
                                                  l3252 08DC  
                                                  l3244 0886  
                                                  l3236 0850  
                                                  l3340 0FDC  
                                                  l3350 12A0  
                                                  l1486 10A8  
                                                  l3262 095A  
                                                  l3270 0998  
                                                  l3254 090C  
                                                  l3246 08A2  
                                                  l3238 085C  
                                                  l3334 0FA8  
                                                  l3344 1294  
                                                  l3264 096A  
                                                  l3256 0928  
                                                  l3248 08BA  
                                                  l3272 09AE  
                                                  l3336 0FB0  
                                                  l3360 1072  
                                                  l1489 10C0  
                                                  l3290 1268  
                                                  l3282 1258  
                                                  l3346 1298  
                                                  l3266 097C  
                                                  l3258 093A  
                                                  l3338 0FC0  
                                                  l3362 1082  
                                                  l3354 105A  
                                                  l3292 1348  
                                                  l3284 125E  
                                                  l3348 129C  
                                                  l3268 0996  
                                                  l3276 09BA  
                                                  l3356 1062  
                                                  l3294 12A6  
                                                  l3286 1262  
                                                  l2910 0AA2  
                                                  l3358 106A  
                                                  l3296 12A8  
                                                  l3288 1266  
                                                  l2920 0ACC  
                                                  l2912 0AA4  
                                                  l3298 12AC  
                                                  l2930 0AFA  
                                                  l2922 0AD4  
                                                  l2914 0AB2  
                                                  l2940 0B34  
                                                  l2932 0B02  
                                                  l2924 0AD8  
                                                  l2916 0ABA  
                                                  l2950 0B5A  
                                                  l2942 0B36  
                                                  l2934 0B10  
                                                  l2926 0AE0  
                                                  l2918 0ABE  
                                                  l2944 0B3C  
                                                  l2936 0B16  
                                                  l2928 0AF2  
                                                  l2960 0B7C  
                                                  l2938 0B2C  
                                                  l2946 0B42  
                                                  l2970 0BB0  
                                                  l2962 0B80  
                                                  l2954 0B64  
                                                  l2948 0B52  
                                                  l2980 0BEA  
                                                  l2972 0BB8  
                                                  l2964 0B8E  
                                                  l2956 0B66  
                                                  l2974 0BC6  
                                                  l2982 0BF0  
                                                  l2966 0B96  
                                                  l2958 0B74  
                                                  l2990 0C12  
                                                  l2984 0C00  
                                                  l2976 0BDC  
                                                  l2968 0BA8  
                                                  l2992 0C22  
                                                  l3880 0CD6  
                                                  l3872 0CBC  
                                                  l2986 0C08  
                                                  l2978 0BE4  
                                                  l2994 0C32  
                                                  l3890 0D2E  
                                                  l3882 0CF0  
                                                  l3874 0CCE  
                                                  l2996 0C3C  
                                                  l3892 0D3C  
                                                  l3884 0CFE  
                                                  l3876 0CD2  
                                                  l2998 0C58  
                                                  l3894 0D44  
                                                  l3886 0D12  
                                                  l3878 0CD4  
                                                  l3896 0D48  
                                                  l3888 0D1A  
                                                  STR_1 0821  
                                                  u1000 0AB2  
                                                  u1001 0AAE  
                                                  u1010 0ACC  
                                                  u1011 0AC8  
                                                  u1020 0AF2  
                                                  u1100 0BDC  
                                                  u1021 0AEE  
                                                  u1101 0BD8  
                                                  u1030 0B10  
                                                  u1110 0C00  
                                                  u1031 0B0C  
                                                  u1111 0BFC  
                                                  u1040 0B2C  
                                                  u1120 0C22  
                                                  u1041 0B28  
                                                  u1121 0C1E  
                                                  u1050 0B52  
                                                  u1130 0C32  
                                                  u1051 0B4E  
                                                  u1131 0C2E  
                                                  u1060 0B74  
                                                  u1140 0C58  
                                                  u1300 08DA  
                                                  u1061 0B70  
                                                  u1141 0C54  
                                                  u1070 0B8E  
                                                  u1150 0C8A  
                                                  u1310 093A  
                                                  u1071 0B8A  
                                                  u1151 0C86  
                                                  u1311 0936  
                                                  u1080 0BA8  
                                                  u1160 109C  
                                                  u1320 094A  
                                                  u1081 0BA4  
                                                  u1161 1098  
                                                  u1321 0946  
                                                  u1090 0BC6  
                                                  u1330 095A  
                                                  u1091 0BC2  
                                                  u1331 0956  
                                                  u1340 096A  
                                                  u1260 0848  
                                                  u1420 0FDC  
                                                  u1341 0966  
                                                  u1261 0844  
                                                  u1421 0FD8  
                                                  _LATA 0F89  
                                                  u1350 09AA  
                                                  u1270 0886  
                                                  _LATB 0F8A  
                                                  u1351 09A6  
                                                  u1271 0882  
                                                  _LATC 0F8B  
                                                  u1360 1256  
                                                  u1280 08A2  
                                                  u1361 1252  
                                                  u1281 089E  
                                                  u1290 08D8  
                                                  u1291 08D2  
                                                  u1907 0CE2  
                                                  u1860 0CFE  
                                                  u1861 0CFA  
                                                  u1870 0D12  
                                                  u1871 0D0E  
                                                  u1880 0D2E  
                                                  u1881 0D2A  
                                                  u1890 0D3C  
                                                  u1891 0D38  
                                                  i2l92 11F0  
                                                  i2l95 11CA  
                                                  i2l98 11A4  
                               ??_wr2RegCompleteHandler 0009  
                                      ??_I2C1_MasterFsm 000C  
                                      ??_I2C1_MasterIsr 000D  
                             ??_I2C1_CallbackReturnStop 0009  
                                                  abs@a 001D  
                                                  _dbuf 0060  
                                                  _main 0CBC  
                                                  _prec 0042  
                                                  fsr1h 0FE2  
                                                  fsr2h 0FDA  
                                                  indf2 0FDF  
                                                  fsr1l 0FE1  
                                                  fsr2l 0FD9  
                                                  btemp 0049  
                                                  prodh 0FF4  
                                                  prodl 0FF3  
                                                  start 00C6  
                                      ??_I2C1_SetBuffer 0005  
                                          ___param_bank 0000  
                         I2C1_CallbackReturnStop@funPtr 0008  
                                                 ??_abs 001F  
                         __end_of_OSCILLATOR_Initialize 1258  
                                                 ?_main 0001  
                                       __end_of___awdiv 0B64  
                                       __end_of___awmod 0C12  
                                       ___awdiv@divisor 0019  
                                                 i2l101 117E  
                                                 i2l104 1058  
                                                 i2l202 1158  
                                                 i2l223 1132  
                                                 i2l250 1216  
                                                 i2l238 110C  
                                                 i2l262 101E  
                                                 i2l510 132C  
                                                 i2l183 009A  
                                                 i2l416 123A  
                                                 i2l513 1324  
                                                 i2l522 130C  
                                                 i2l442 133A  
                                                 i2l178 007A  
                                                 i2l419 1292  
                                                 i2l531 12EA  
                                                 i2l179 009A  
                                                 i2l612 1352  
                                                 i2l452 12D4  
                                                 i2l516 131C  
                                                 i2l461 0AA0  
                                                 i2l525 1304  
                                                 i2l446 0F4E  
                                                 i2l439 0FA6  
                                                 i2l455 12C4  
                                                 i2l519 1314  
                                                 i2l528 12FC  
                                                 i2l545 1362  
                                                 i2l449 12F4  
                                                 i2l537 0EE8  
                                                 i2l609 134E  
                                                 i2l570 136A  
                                                 i2l458 0A68  
                                                 i2l474 0D9A  
                                                 i2l475 0E06  
                                                 i2l548 135E  
                                                 i2l564 1356  
                                                 i2l492 0E80  
                                                 i2l582 1366  
                                                 i2l486 12E0  
                                                 i2l591 1346  
                                                 i2l567 1334  
                                                 i2l576 135A  
                                                 i2l585 127E  
                                                 i2l588 1340  
                                       ___awdiv@counter 001B  
                            __end_of_i2c1_fsmStateTable 0821  
                                          vfpfcnvrt@fmt 0022  
                                                 _TRISB 0F93  
                                ??_I2C1_MasterGetRxData 0001  
                                 ?_I2C1_DO_RX_NACK_STOP 0001  
                            ??_I2C1_CallbackReturnReset 0009  
                                     ??_I2C1_MasterStop 0001  
                                     ??_I2C1_Initialize 0017  
                                         main@PulsadorE 00AC  
                                                 _flags 0046  
                                                 _fputc 0C12  
                                                 _width 0040  
                                                 _putch 136C  
                                                 pclath 0FFA  
                                                 pclatu 0FFB  
                                                 tablat 0FF5  
                                                 ttemp5 004A  
                                                 ttemp6 004D  
                                                 ttemp7 0051  
                                                 status 0FD8  
                                                 wtemp8 004A  
                                       __end_of_sprintf 108E  
                                          ??_I2C1_DO_RX 000A  
                                          ??_I2C1_DO_TX 000A  
                                ??_I2C1_DO_ADDRESS_NACK 000A  
                                       __initialization 10C2  
                                          __end_of_main 0D64  
                           ?_INTERRUPT_InterruptManager 0001  
__end_of_rdBlkRegCompleteHandler@i2c_simple_master$F700 1020  
      ??_rdBlkRegCompleteHandler@i2c_simple_master$F700 0009  
       ?_rdBlkRegCompleteHandler@i2c_simple_master$F700 0008  
        _rdBlkRegCompleteHandler@i2c_simple_master$F700 0FE6  
                                       main@Contadorstr 00A0  
  __end_of_wr1RegCompleteHandler@i2c_simple_master$F670 115A  
        ??_wr1RegCompleteHandler@i2c_simple_master$F670 0009  
         ?_wr1RegCompleteHandler@i2c_simple_master$F670 0008  
          _wr1RegCompleteHandler@i2c_simple_master$F670 1134  
  __end_of_rd1RegCompleteHandler@i2c_simple_master$F680 1134  
        ??_rd1RegCompleteHandler@i2c_simple_master$F680 0009  
         ?_rd1RegCompleteHandler@i2c_simple_master$F680 0008  
          _rd1RegCompleteHandler@i2c_simple_master$F680 110E  
  __end_of_wr2RegCompleteHandler@i2c_simple_master$F694 1218  
        ??_wr2RegCompleteHandler@i2c_simple_master$F694 0009  
         ?_wr2RegCompleteHandler@i2c_simple_master$F694 0008  
          _wr2RegCompleteHandler@i2c_simple_master$F694 11F2  
  __end_of_rd2RegCompleteHandler@i2c_simple_master$F688 110E  
        ??_rd2RegCompleteHandler@i2c_simple_master$F688 0009  
         ?_rd2RegCompleteHandler@i2c_simple_master$F688 0008  
          _rd2RegCompleteHandler@i2c_simple_master$F688 10E8  
                                                ??_main 009E  
                                         __activetblptr 0002  
                                    __end_of_I2C1_DO_RX 0E08  
                                    __end_of_I2C1_DO_TX 0AA2  
                                                ?_fputc 0017  
                                                _ACTCON 0FB5  
                                      ___awdiv@dividend 0017  
                                                ?_putch 0001  
                                                _ANSELB 0F5C  
                                                i2l3100 12C2  
                                                i2l3112 09FE  
                                                i2l3104 09DE  
                                                i2l3200 1306  
                                                i2l3130 0A9E  
                                                i2l3122 0A0E  
                                                i2l3202 130A  
                                                i2l3124 0A6C  
                                                i2l3116 0A06  
                                                i2l3108 09F6  
                                                i2l3140 0D72  
                                                i2l3220 0E96  
                                                i2l3212 0E82  
                                                i2l3126 0A7E  
                                                i2l3142 0D78  
                                                i2l3206 12E2  
                                                i2l3214 0E86  
                                                i2l3128 0A98  
                                                i2l3152 0DA0  
                                                i2l3144 0D90  
                                                i2l3208 12E8  
                                                i2l3216 0E8E  
                                                i2l3080 134C  
                                                i2l3320 0EEA  
                                                i2l3082 12EC  
                                                i2l3090 12CA  
                                                i2l3162 0DB0  
                                                i2l3146 0D94  
                                                i2l3138 0D64  
                                                i2l3170 12DA  
                                                i2l3226 0E9E  
                                                i2l3322 0EEE  
                                                i2l3084 12F2  
                                                i2l3092 12D2  
                                                i2l3156 0DA8  
                                                i2l3172 12DE  
                                                i2l3324 0EFE  
                                                i2l2710 0F88  
                                                i2l3182 0E18  
                                                i2l3326 0F12  
                                                i2l2720 1230  
                                                i2l2712 0F9C  
                                                i2l2704 0F52  
                                                i2l2800 1214  
                                                i2l3184 0E1C  
                                                i2l3176 0E08  
                                                i2l3088 12C6  
                                                i2l3096 12B6  
                                                i2l3168 12D6  
                                                i2l3328 0F18  
                                                i2l3352 1336  
                                                i2l3520 005C  
                                                i2l2722 1238  
                                                i2l2706 0F64  
                                                i2l2714 1280  
                                                i2l2730 1342  
                                                i2l3178 0E10  
                                                i2l3194 0E2A  
                                                i2l3098 12BA  
                                                i2l3522 0088  
                                                i2l3514 0032  
                                                i2l2716 1218  
                                                i2l2708 0F78  
                                                i2l2732 11CC  
                                                i2l2740 11A6  
                                                i2l2804 0FE6  
                                                i2l2900 1350  
                                                i2l3188 0E22  
                                                i2l3516 0040  
                                                i2l2726 1368  
                                                i2l2718 1228  
                                                i2l2734 11DE  
                                                i2l2742 11B8  
                                                i2l2750 1192  
                                                i2l2806 100C  
                                                i2l2902 1360  
                                                i2l3518 004E  
                                                i2l2728 1364  
                                                i2l2736 11EE  
                                                i2l2744 11C8  
                                                i2l2752 11A2  
                                                i2l2760 117C  
                                                i2l2808 101C  
                                                i2l2906 135C  
                                                i2l2850 126C  
                                                i2l2748 1180  
                                                i2l2756 115A  
                                                i2l2764 1020  
                                                i2l2772 1134  
                                                i2l2780 110E  
                                                i2l2758 116C  
                                                i2l2766 1046  
                                                i2l2774 1146  
                                                i2l2782 1120  
                                                i2l2790 10FA  
                                                i2l2854 1330  
                                                i2l2862 131E  
                                                i2l2870 1312  
                                                i2l2768 1056  
                                                i2l2776 1156  
                                                i2l2784 1130  
                                                i2l2792 110A  
                                                i2l2856 1326  
                                                i2l2864 1322  
                                                i2l2880 12F6  
                                                i2l2874 1354  
                                                i2l2858 132A  
                                                i2l2882 12FA  
                                                i2l2796 11F2  
                                                i2l2788 10E8  
                                                i2l2892 1358  
                                                i2l2868 130E  
                                                i2l2798 1204  
                                                i2l2878 133C  
                                                i2l2894 1316  
                                                i2l2886 12FE  
                                                i2l2896 131A  
                                                i2l2888 1302  
                                                i2l3980 0DE0  
                                                i2l3982 0A42  
                                                i2l3984 0E5A  
                                                i2l3978 0ED2  
                                                _OSCCON 0FD3  
                                                _PLLRDY 7E97  
                                         vfpfcnvrt@done 0025  
                                      _I2C1_DO_TX_EMPTY 0E08  
                                          vfprintf@cfmt 002F  
                                             ??___awdiv 001B  
                                             ??___awmod 001B  
                                                clear_0 10C8  
                                                clear_1 10D4  
                                      ___awdiv@quotient 001D  
                                       ___awmod@divisor 0019  
                                                isa$std 0001  
                                       ___awmod@counter 001B  
                              ??_I2C1_DO_SEND_ADR_WRITE 0002  
                                     ?_I2C1_SetCallback 0001  
                                ??_I2C1_DO_RX_NACK_STOP 0001  
                                 _I2C1_DO_SEND_ADR_READ 12C6  
                                                fputc@c 0017  
                         ?_I2C1_SetDataCompleteCallback 0005  
                                    ??_I2C1_SetCallback 0004  
                                          __mediumconst 0000  
                                                tblptrh 0FF7  
                                                tblptrl 0FF6  
                                                tblptru 0FF8  
                                                putch@c 0001  
                                      __end_of_vfprintf 0FE6  
                                             ??_sprintf 0034  
                               _I2C1_DO_RX_NACK_RESTART 12F6  
                                     _SYSTEM_Initialize 1294  
                        I2C1_SetDataCompleteCallback@cb 0005  
                                            __accesstop 0060  
                               __end_of__initialization 10DA  
                                    ?_SYSTEM_Initialize 0001  
                                         ___rparam_used 0001  
                               _rdBlkRegCompleteHandler 1020  
                                        __pcstackCOMRAM 0001  
                                   ??_SYSTEM_Initialize 0017  
                      __end_of_I2C1_MasterEnableRestart 136C  
                                         __end_of_fputc 0CBC  
                                         __end_of_putch 136E  
                          ??_I2C1_DO_SEND_RESTART_WRITE 0001  
                               ??_I2C1_MasterSendTxData 0001  
                                 __end_of_I2C1_DO_RESET 12EC  
                                               ??_fputc 001A  
                             __end_of_SYSTEM_Initialize 12A6  
                                               ??_putch 0017  
                                            __pbssBANK0 0060  
                         __end_of_rd2RegCompleteHandler 11CC  
                         __end_of_wr2RegCompleteHandler 1180  
                                 _rd1RegCompleteHandler 11CC  
                                     _I2C1_DO_SEND_STOP 130E  
                                 _wr1RegCompleteHandler 1180  
                              rd1RegCompleteHandler@ptr 0008  
                                    ?_I2C1_DO_SEND_STOP 0001  
                                       _I2C1_MasterStop 1364  
                                       _I2C1_Initialize 12A6  
                                ?_I2C1_DO_SEND_ADR_READ 0001  
                                   ??_I2C1_DO_SEND_STOP 0001  
                                     _I2C1_MasterIsNack 126C  
       rdBlkRegCompleteHandler@i2c_simple_master$F700@p 0008  
         wr1RegCompleteHandler@i2c_simple_master$F670@p 0008  
         rd1RegCompleteHandler@i2c_simple_master$F680@p 0008  
         wr2RegCompleteHandler@i2c_simple_master$F694@p 0008  
         rd2RegCompleteHandler@i2c_simple_master$F688@p 0008  
                                               _OSCCON2 0FD2  
                             ??_I2C1_DO_RX_NACK_RESTART 0001  
                                               _OSCTUNE 0F9B  
                                     _I2C1_MasterSetIrq 1350  
                                               i2u94_40 0F64  
                                               i2u94_41 0F60  
                                               i2u95_40 1228  
                                               i2u95_41 1224  
                                               _SSP1ADD 0FC8  
                                               i2u99_40 127C  
                                               i2u99_41 1276  
                                               i2u99_46 127E  
                                               _SSP1BUF 0FC9  
                                    ?_I2C1_MasterIsNack 0001  
                            ?_I2C1_DO_SEND_RESTART_READ 0001  
                        ??_I2C1_SetDataCompleteCallback 0008  
                                    ?_I2C1_MasterSetIrq 0001  
                                    _i2c1_fsmStateTable 0801  
                                   ??_I2C1_MasterIsNack 0001  
                             __end_of_I2C1_DO_SEND_STOP 1316  
                             ??_rdBlkRegCompleteHandler 0009  
                                    I2C1_SetCallback@cb 0001  
                                   ??_I2C1_MasterSetIrq 0001  
                                               __Hparam 0000  
                                               __Lparam 0000  
                                               ___awdiv 0AA2  
                                               ___awmod 0B64  
                                             ?_vfprintf 002C  
                                          __psmallconst 0800  
                                               __pcinit 10C2  
                                         ?_I2C1_DO_IDLE 0001  
                                         ?_I2C1_DO_RCEN 0001  
                                               __ramtop 0800  
                                               __ptext0 0CBC  
                                               __ptext1 105A  
                                               __ptext2 0FA8  
                                               __ptext3 0826  
                                               __ptext4 0C12  
                                               __ptext5 136C  
                                               __ptext6 108E  
                                               __ptext7 0B64  
                                               __ptext8 0AA2  
                                               __ptext9 1294  
                              _I2C1_MasterEnableRestart 1368  
                             __end_of_I2C1_MasterIsNack 1280  
                                 _OSCILLATOR_Initialize 123C  
                             __end_of_I2C1_MasterSetIrq 1354  
                              __end_of_I2C1_DO_TX_EMPTY 0E82  
                                      ___awmod@dividend 0017  
                              ??_PIN_MANAGER_Initialize 0017  
                              wr1RegCompleteHandler@ptr 0008  
                              ?_I2C1_CallbackReturnStop 0008  
                                               _sprintf 105A  
                     __end_of_I2C1_DO_SEND_RESTART_READ 132E  
                                  end_of_initialization 10DA  
                            __end_of_I2C1_MasterSendAck 1342  
                                   _I2C1_MasterClearIrq 134C  
                                               fputc@fp 0019  
                                         __Lmediumconst 0000  
                            __end_of_I2C1_MasterStartRx 135C  
                                ?_rd1RegCompleteHandler 0008  
                                _I2C1_DO_SEND_ADR_WRITE 12B6  
                          __end_of_I2C1_DO_SEND_RESTART 131E  
                                ?_wr1RegCompleteHandler 0008  
                               __end_of_I2C1_MasterStop 1368  
                               __end_of_I2C1_Initialize 12B6  
                             ?_I2C1_CallbackReturnReset 0008  
                                           _I2C1_Status 0080  
                                     __end_of_vfpfcnvrt 09DE  
                                               postdec2 0FDD  
                                               postinc0 0FEE  
                                               postinc1 0FE6  
                                               postinc2 0FDE  
                                      vfpfcnvrt@convarg 0027  
                                   _I2C1_MasterSendNack 1342  
                                            ??_vfprintf 002F  
                                  ?_I2C1_MasterClearIrq 0001  
                                        ??_I2C1_DO_IDLE 0001  
                                        ??_I2C1_DO_RCEN 0001  
                    __end_of_I2C1_DO_SEND_RESTART_WRITE 1326  
                            _I2C1_DO_SEND_RESTART_WRITE 131E  
                                             _PORTBbits 0F81  
                       __end_of_rdBlkRegCompleteHandler 105A  
                       I2C1_SetDataCompleteCallback@ptr 0007  
                        I2C1_CallbackReturnReset@funPtr 0008  
                                  ?_I2C1_MasterSendNack 0001  
                            rdBlkRegCompleteHandler@ptr 0008  
                          __end_of_INTERRUPT_Initialize 134C  
                                 ??_I2C1_MasterClearIrq 0001  
                                           vfpfcnvrt@ap 0023  
                                           vfpfcnvrt@cp 0026  
                                           vfpfcnvrt@fp 0021  
                                        _I2C1_DO_RX_ACK 1306  
                                ?_OSCILLATOR_Initialize 0001  
                       __end_of_I2C1_CallbackReturnStop 1364  
                         __end_of_I2C1_MasterSendTxData 1336  
                                   start_initialization 10C2  
                                           __end_of_abs 10C2  
                                 ??_I2C1_MasterSendNack 0001  
                              I2C1_SetBuffer@bufferSize 0003  
                                      ?_I2C1_MasterStop 0001  
                                      ?_I2C1_Initialize 0001  
                                           vfprintf@fmt 002D  
                                __end_of_I2C1_DO_RX_ACK 130E  
                               ??_I2C1_DO_SEND_ADR_READ 0001  
                                           __pbssCOMRAM 0040  
                                  _I2C1_DO_SEND_RESTART 1316  
                                         __pcstackBANK0 009E  
                           ??_I2C1_DO_SEND_RESTART_READ 0001  
                                  __end_of_I2C1_DO_IDLE 12F6  
                                  __end_of_I2C1_DO_RCEN 12E2  
                                 _rd2RegCompleteHandler 11A6  
                                _PIN_MANAGER_Initialize 1258  
                                 _wr2RegCompleteHandler 115A  
                                _MSSP1_InterruptHandler 0044  
                            ??_I2C1_MasterEnableRestart 0001  
                              rd2RegCompleteHandler@ptr 0008  
                                             __pintcode 0008  
                                        _I2C1_MasterFsm 0EEA  
                                        _I2C1_MasterIsr 1336  
                                       ?_I2C1_DO_RX_ACK 0001  
                                              ?___awdiv 0017  
                                              ?___awmod 0017  
                                        _I2C1_SetBuffer 1218  
                          ??_INTERRUPT_InterruptManager 000D  
                                           __smallconst 0800  
                                 ?_I2C1_DO_SEND_RESTART 0001  
                                     ?_I2C1_DO_TX_EMPTY 0001  
                      __end_of_I2C1_CallbackReturnReset 1360  
                                    ??_I2C1_DO_TX_EMPTY 000A  
                                              ?_sprintf 0030  
                               ??_rd1RegCompleteHandler 0009  
                               ?_I2C1_DO_SEND_ADR_WRITE 0001  
                             I2C1_MasterSendTxData@data 0001  
                                  _INTERRUPT_Initialize 1348  
                               ??_wr1RegCompleteHandler 0009  
                                      _I2C1_SetCallback 0F50  
                                            _I2C1_DO_RX 0D64  
                                            _I2C1_DO_TX 09DE  
                                              _PIE1bits 0F9D  
                                              _PIE2bits 0FA0  
                                __end_of_I2C1_MasterFsm 0F50  
                                __end_of_I2C1_MasterIsr 133C  
                                              i2u121_40 0A98  
                                              i2u120_48 0A1C  
                                              i2u121_41 0A94  
                                              i2u120_49 0A30  
                                              i2u122_40 0D90  
                                              i2u122_41 0D8C  
                                              i2u123_48 0DBA  
                                              i2u140_40 0F12  
                                              i2u123_49 0DCE  
                                              i2u140_41 0F0E  
                                              i2u124_48 0E34  
                                              i2u124_49 0E48  
                                              i2u125_48 0EAC  
                                              i2u141_48 0F32  
                                              i2u125_49 0EC0  
                                              i2u141_49 0F4A  
                                              i2u119_40 09F2  
                                              i2u119_41 09EE  
                          __end_of_I2C1_MasterGetRxData 1358  
                                              i2u161_40 0088  
                                              i2u160_48 0062  
                                              i2u161_41 0084  
                                              i2u160_49 0076  
                                              i2u162_40 0096  
                                              i2u162_41 0092  
                                              i2u139_40 0EFE  
                                              i2u139_41 0EFA  
                                              i2u157_40 0040  
                                              i2u157_41 003C  
                                              i2u158_40 004E  
                                              i2u158_41 004A  
                                              i2u159_40 005C  
                                              i2u159_41 0058  
                                              _PIR1bits 0F9E  
                                              _PIR2bits 0FA1  
                                              _RCONbits 0FD0  
                                    _I2C1_MasterSendAck 133C  
                             _I2C1_DO_SEND_RESTART_READ 1326  
                                              _SSP1CON1 0FC6  
                                              _SSP1CON2 0FC5  
                                __end_of_I2C1_SetBuffer 123C  
                                              _SSP1STAT 0FC7  
                  __end_of_I2C1_SetDataCompleteCallback 1294  
                          _I2C1_SetDataCompleteCallback 1280  
                                    _I2C1_MasterStartRx 1358  
                                             _vfpfcnvrt 0826  
                           ?_I2C1_DO_SEND_RESTART_WRITE 0001  
                                   ?_I2C1_MasterSendAck 0001  
                              ?_I2C1_DO_RX_NACK_RESTART 0001  
                                              _WPUBbits 0F85  
                                   ?_I2C1_MasterStartRx 0001  
                          __end_of_I2C1_DO_ADDRESS_NACK 0EEA  
                                  _display_cursor_blink 0047  
                              wr2RegCompleteHandler@ptr 0008  
                        __end_of_I2C1_DO_SEND_ADR_WRITE 12C6  
                                         _I2C1_DO_RESET 12E2  
                                            vfpfcnvrt@c 002B  
                                           _INTCON2bits 0FF1  
                                 ?_INTERRUPT_Initialize 0001  
                              ?_rdBlkRegCompleteHandler 0008  
                                   I2C1_SetCallback@idx 0004  
                                   I2C1_SetCallback@ptr 0003  
                                  ??_I2C1_MasterSendAck 0001  
                                ?_rd2RegCompleteHandler 0008  
                                ?_wr2RegCompleteHandler 0008  
                                  ??_I2C1_MasterStartRx 0001  
                                              __Hrparam 0000  
                                       ?_I2C1_MasterFsm 0001  
                                       ?_I2C1_MasterIsr 0001  
                                            vfprintf@ap 002E  
                                              __Lrparam 0000  
                                            vfprintf@fp 002C  
                               ??_OSCILLATOR_Initialize 0017  
                                       ?_I2C1_SetBuffer 0001  
                                            ?_vfpfcnvrt 0021  
                                ??_I2C1_DO_SEND_RESTART 0001  
                                            sprintf@fmt 0031  
                                        ?_I2C1_DO_RESET 0001  
                                              __ptext10 1258  
                                              __ptext11 123C  
                                              __ptext20 12F6  
                                              __ptext12 1348  
                                              __ptext21 12FE  
                                              __ptext13 12A6  
                                              __ptext30 12B6  
                                              __ptext22 1306  
                                              __ptext31 12C6  
                                              __ptext23 130E  
                                              __ptext15 1336  
                                              __ptext40 1358  
                                              __ptext32 12EC  
                                              __ptext24 1316  
                                              __ptext16 0EEA  
                                              __ptext41 135C  
                                              __ptext33 0E08  
                                              __ptext25 131E  
                                              __ptext17 134C  
                                              __ptext50 11A6  
                                              __ptext42 1360  
                                              __ptext34 1350  
                                              __ptext26 1326  
                                              __ptext18 0E82  
                                              __ptext51 11CC  
                                              __ptext43 0FE6  
                                              __ptext35 126C  
                                              __ptext27 12D6  
                                              __ptext19 12E2  
                                              __ptext52 11F2  
                                              __ptext44 10E8  
                                              __ptext36 132E  
                                              __ptext28 0D64  
                                              __ptext53 1280  
                                              __ptext45 110E  
                                              __ptext37 133C  
                                              __ptext29 09DE  
                                              __ptext54 0F50  
                                              __ptext46 1134  
                                              __ptext38 1354  
                                              __ptext55 1218  
                                              __ptext47 1020  
                                              __ptext39 1342  
                                              __ptext56 1364  
                                              __ptext48 115A  
                                              __ptext57 1368  
                                              __ptext49 1180  
                                          _SSP1CON1bits 0FC6  
                                          _SSP1CON2bits 0FC5  
                              _I2C1_CallbackReturnReset 135C  
                                              _pcf_port 0048  
                                           ?_I2C1_DO_RX 0001  
                                           ?_I2C1_DO_TX 0001  
                           __end_of_I2C1_MasterClearIrq 1350  
                          __end_of_I2C1_DO_RX_NACK_STOP 1306  
                                              isa$xinst 0000  
                                              int$flags 0049  
                       __end_of_I2C1_DO_RX_NACK_RESTART 12FE  
                                              _vfprintf 0FA8  
                    __end_of_INTERRUPT_InterruptManager 00C6  
                            _INTERRUPT_InterruptManager 0008  
                                          _SSP1STATbits 0FC7  
                         __end_of_I2C1_DO_SEND_ADR_READ 12D6  
                                          _I2C1_DO_IDLE 12EC  
                                          _I2C1_DO_RCEN 12D6  
                           __end_of_I2C1_MasterSendNack 1348  
                                            _INTCONbits 0FF2  
                                  _I2C1_MasterGetRxData 1354  
                                 _I2C1_MasterSendTxData 132E  
                                ??_INTERRUPT_Initialize 0017  
                                              intlevel2 0000  
                                             sprintf@ap 0034  
                               ?_PIN_MANAGER_Initialize 0001  
                                      ??_I2C1_DO_RX_ACK 0001  
                               _I2C1_CallbackReturnStop 1360  
                                  _I2C1_DO_ADDRESS_NACK 0E82  
                                           ??_vfpfcnvrt 0024  
                              __end_of_I2C1_SetCallback 0FA8  
                                              sprintf@f 0035  
                                              sprintf@s 0030  
                                       ??_I2C1_DO_RESET 0001  
                                 ?_I2C1_MasterGetRxData 0001  
                        __end_of_PIN_MANAGER_Initialize 126C  
                         __end_of_rd1RegCompleteHandler 11F2  
                         __end_of_wr1RegCompleteHandler 11A6  
                                 ?_I2C1_DO_ADDRESS_NACK 0001  
